 dagw_oracle

 Timestamp is 57305f69 (Mon May 09 17:59:05 2016)

 Preferred load address is 00400000

 Start         Length     Name                   Class
 0001:00000000 000760acH .text                   CODE
 0001:000760b0 0000a82eH .text$x                 CODE
 0001:000808e0 00000783H .text$yc                CODE
 0001:00081070 000003a0H .text$yd                CODE
 0002:00000000 00000288H .idata$5                DATA
 0002:00000288 00000004H .CRT$XCA                DATA
 0002:0000028c 0000002cH .CRT$XCC                DATA
 0002:000002b8 00000058H .CRT$XCU                DATA
 0002:00000310 00000004H .CRT$XCZ                DATA
 0002:00000314 00000004H .CRT$XIA                DATA
 0002:00000318 00000014H .CRT$XIC                DATA
 0002:0000032c 00000004H .CRT$XID                DATA
 0002:00000330 00000004H .CRT$XIY                DATA
 0002:00000334 00000004H .CRT$XIZ                DATA
 0002:00000338 00000004H .CRT$XPA                DATA
 0002:0000033c 00000004H .CRT$XPX                DATA
 0002:00000340 00000004H .CRT$XPXA               DATA
 0002:00000344 00000004H .CRT$XPZ                DATA
 0002:00000348 00000004H .CRT$XTA                DATA
 0002:0000034c 00000004H .CRT$XTZ                DATA
 0002:00000350 00007190H .rdata                  DATA
 0002:000074e0 00000051H .rdata$debug            DATA
 0002:00007534 0000274cH .rdata$r                DATA
 0002:00009c80 00000be0H .rdata$sxdata           DATA
 0002:0000a860 00000004H .rtc$IAA                DATA
 0002:0000a864 00000004H .rtc$IZZ                DATA
 0002:0000a868 00000004H .rtc$TAA                DATA
 0002:0000a86c 00000004H .rtc$TZZ                DATA
 0002:0000a870 0000c3f4H .xdata$x                DATA
 0002:00016c64 00000064H .idata$2                DATA
 0002:00016cc8 00000014H .idata$3                DATA
 0002:00016cdc 00000288H .idata$4                DATA
 0002:00016f64 000009aaH .idata$6                DATA
 0002:00017910 000036d7H .edata                  DATA
 0003:00000000 000046dcH .data                   DATA
 0003:000046e0 00002704H .bss                    DATA

  Address         Publics by Value              Rva+Base       Lib:Object

 0000:00000000       __except_list              00000000     <absolute>
 0000:000002f8       ___safe_se_handler_count   000002f8     <absolute>
 0000:00000000       ___ImageBase               00400000     <linker-defined>
 0001:00000000       ??1bad_alloc@std@@UAE@XZ   00401000 f i DllBase.obj
 0001:00000010       ??_Gbad_alloc@std@@UAEPAXI@Z 00401010 f i DllBase.obj
 0001:00000010       ??_Ebad_alloc@std@@UAEPAXI@Z 00401010 f i DllBase.obj
 0001:00000040       ??0Exception@cacti@@QAE@ABV01@@Z 00401040 f i DllBase.obj
 0001:00000070       ??_GException@cacti@@UAEPAXI@Z 00401070 f i DllBase.obj
 0001:00000070       ??_EException@cacti@@UAEPAXI@Z 00401070 f i DllBase.obj
 0001:00000090       ??$_Allocate@D@std@@YAPADIPAD@Z 00401090 f i DllBase.obj
 0001:00000090       ??$_Allocate@E@std@@YAPAEIPAE@Z 00401090 f i TLV.obj
 0001:000000f0       ??0bad_alloc@std@@QAE@ABV01@@Z 004010f0 f i DllBase.obj
 0001:00000110       ?_Eos@?$basic_string@DU?$char_traits@D@std@@V?$allocator@D@2@@std@@IAEXI@Z 00401110 f i DllBase.obj
 0001:00000130       ??$move_s@U?$char_traits@D@std@@@_Traits_helper@std@@YAPADPADIPBDI@Z 00401130 f i DllBase.obj
 0001:00000160       ?_Tidy@?$basic_string@DU?$char_traits@D@std@@V?$allocator@D@2@@std@@IAEX_NI@Z 00401160 f i DllBase.obj
 0001:000001b0       ?erase@?$basic_string@DU?$char_traits@D@std@@V?$allocator@D@2@@std@@QAEAAV12@II@Z 004011b0 f i DllBase.obj
 0001:00000240       ?_Copy@?$basic_string@DU?$char_traits@D@std@@V?$allocator@D@2@@std@@IAEXII@Z 00401240 f i DllBase.obj
 0001:00000390       ?_Grow@?$basic_string@DU?$char_traits@D@std@@V?$allocator@D@2@@std@@IAE_NI_N@Z 00401390 f i DllBase.obj
 0001:00000450       ?assign@?$basic_string@DU?$char_traits@D@std@@V?$allocator@D@2@@std@@QAEAAV12@ABV12@II@Z 00401450 f i DllBase.obj
 0001:00000530       ??0?$basic_string@DU?$char_traits@D@std@@V?$allocator@D@2@@std@@QAE@ABV01@@Z 00401530 f i DllBase.obj
 0001:00000560       ??0SyscallException@cacti@@QAE@ABV01@@Z 00401560 f i DllBase.obj
 0001:000005f0       ??_GSyscallException@cacti@@UAEPAXI@Z 004015f0 f i DllBase.obj
 0001:000005f0       ??_ESyscallException@cacti@@UAEPAXI@Z 004015f0 f i DllBase.obj
 0001:00000610       ?what@SyscallException@cacti@@UBEPBDXZ 00401610 f   KernelException.obj
 0001:00000640       ??0?$basic_string@DU?$char_traits@D@std@@V?$allocator@D@2@@std@@QAE@XZ 00401640 f i KernelException.obj
 0001:00000660       ??0SyscallException@cacti@@QAE@PBDH@Z 00401660 f   KernelException.obj
 0001:000006e0       ??1SyscallException@cacti@@UAE@XZ 004016e0 f   KernelException.obj
 0001:00000720       ?lock@RecursiveMutex@cacti@@QAEXXZ 00401720 f   Mutex.obj
 0001:00000730       ?unlock@RecursiveMutex@cacti@@QAEXXZ 00401730 f   Mutex.obj
 0001:00000740       ??0Event@cacti@@QAE@XZ     00401740 f   Mutex.obj
 0001:00000790       ??1Event@cacti@@QAE@XZ     00401790 f   Mutex.obj
 0001:000007a0       ?signal@Event@cacti@@QAEXXZ 004017a0 f   Mutex.obj
 0001:000007b0       ?wait@Event@cacti@@QAEXXZ  004017b0 f   Mutex.obj
 0001:000007c0       ?wait@Event@cacti@@QAE_NABVTimestamp@2@@Z 004017c0 f   Mutex.obj
 0001:000007f0       ??1RecursiveMutex@cacti@@QAE@XZ 004017f0 f   Mutex.obj
 0001:00000820       ?assign@?$basic_string@DU?$char_traits@D@std@@V?$allocator@D@2@@std@@QAEAAV12@PBDI@Z 00401820 f i Mutex.obj
 0001:000008f0       ??4?$basic_string@DU?$char_traits@D@std@@V?$allocator@D@2@@std@@QAEAAV01@PBD@Z 004018f0 f i Mutex.obj
 0001:000008f0       ?assign@?$basic_string@DU?$char_traits@D@std@@V?$allocator@D@2@@std@@QAEAAV12@PBD@Z 004018f0 f i Mutex.obj
 0001:00000920       ??0RecursiveMutex@cacti@@QAE@PBD@Z 00401920 f   Mutex.obj
 0001:000009b0       ?lastError@SysError@cacti@@SAHXZ 004019b0 f   SysError.obj
 0001:000009c0       ??A?$basic_string@DU?$char_traits@D@std@@V?$allocator@D@2@@std@@QAEAADI@Z 004019c0 f i SysError.obj
 0001:000009f0       ?append@?$basic_string@DU?$char_traits@D@std@@V?$allocator@D@2@@std@@QAEAAV12@ABV12@II@Z 004019f0 f i SysError.obj
 0001:00000af0       ?append@?$basic_string@DU?$char_traits@D@std@@V?$allocator@D@2@@std@@QAEAAV12@PBDI@Z 00401af0 f i SysError.obj
 0001:00000be0       ??Y?$basic_string@DU?$char_traits@D@std@@V?$allocator@D@2@@std@@QAEAAV01@PBD@Z 00401be0 f i SysError.obj
 0001:00000c10       ?lastErrorMessage@SysError@cacti@@SAPBDHAAV?$basic_string@DU?$char_traits@D@std@@V?$allocator@D@2@@std@@@Z 00401c10 f   SysError.obj
 0001:00000d60       ?lastErrorMessage@SysError@cacti@@SAPBDAAV?$basic_string@DU?$char_traits@D@std@@V?$allocator@D@2@@std@@@Z 00401d60 f   SysError.obj
 0001:00000d80       ??1Runable@cacti@@UAE@XZ   00401d80 f i Thread.obj
 0001:00000d90       ??0ThreadParam@?A0x49dafa00@@QAE@PAVRunable@cacti@@_N@Z 00401d90 f i Thread.obj
 0001:00000e00       ??1ThreadParam@?A0x49dafa00@@QAE@XZ 00401e00 f i Thread.obj
 0001:00000e60       ?join@Thread@cacti@@QAEXXZ 00401e60 f   Thread.obj
 0001:00000e90       ?sleep@Thread@cacti@@SAXABVTimestamp@2@@Z 00401e90 f   Thread.obj
 0001:00000eb0       ?yield@Thread@cacti@@SAXXZ 00401eb0 f   Thread.obj
 0001:00000ec0       ?currentId@Thread@cacti@@SAKXZ 00401ec0 f   Thread.obj
 0001:00000ed0       ??1?$ScopedLock@VRecursiveMutex@cacti@@@cacti@@QAE@XZ 00401ed0 f i Thread.obj
 0001:00000ee0       ??1?$auto_ptr@VTLV@cacti@@@std@@QAE@XZ 00401ee0 f i TLV.obj
 0001:00000ee0       ??1?$auto_ptr@VRunable@cacti@@@std@@QAE@XZ 00401ee0 f i Thread.obj
 0001:00000ef0       ?wait@ThreadParam@?A0x49dafa00@@QAEXXZ 00401ef0 f i Thread.obj
 0001:00000f70       ?started@ThreadParam@?A0x49dafa00@@QAEXXZ 00401f70 f i Thread.obj
 0001:00000fe0       ?threadProxy@?A0x49dafa00@@YGIPAX@Z 00401fe0 f   Thread.obj
 0001:00001070       ??1Thread@cacti@@UAE@XZ    00402070 f   Thread.obj
 0001:000010c0       ??_EThread@cacti@@UAEPAXI@Z 004020c0 f i Thread.obj
 0001:000010c0       ??_GThread@cacti@@UAEPAXI@Z 004020c0 f i Thread.obj
 0001:00001120       ??0Thread@cacti@@QAE@PBD@Z 00402120 f   Thread.obj
 0001:000011b0       ?start@Thread@cacti@@QAEXPAVRunable@2@_N@Z 004021b0 f   Thread.obj
 0001:000012f0       ?compare@?$char_traits@D@std@@SAHPBD0I@Z 004022f0 f i ConfigureLoader.obj
 0001:00001380       ?destroy@sp_counted_base@detail@boost@@UAEXXZ 00402380 f i ConfigureLoader.obj
 0001:00001390       ?_Pnavail@?$basic_streambuf@DU?$char_traits@D@std@@@std@@IBEHXZ 00402390 f i ConfigureLoader.obj
 0001:000013b0       ?_Max@?$_Tree@V?$_Tmap_traits@V?$basic_string@DU?$char_traits@D@std@@V?$allocator@D@2@@std@@V12@U?$less@V?$basic_string@DU?$char_traits@D@std@@V?$allocator@D@2@@std@@@2@V?$allocator@U?$pair@$$CBV?$basic_string@DU?$char_traits@D@std@@V?$allocator@D@2@@std@@V12@@std@@@2@$0A@@std@@@std@@KAPAU_Node@?$_Tree_nod@V?$_Tmap_traits@V?$basic_string@DU?$char_traits@D@std@@V?$allocator@D@2@@std@@V12@U?$less@V?$basic_string@DU?$char_traits@D@std@@V?$allocator@D@2@@std@@@2@V?$allocator@U?$pair@$$CBV?$basic_string@DU?$char_traits@D@std@@V?$allocator@D@2@@std@@V12@@std@@@2@$0A@@std@@@2@PAU342@@Z 004023b0 f i ConfigureLoader.obj
 0001:000013d0       ?_Min@?$_Tree@V?$_Tmap_traits@V?$basic_string@DU?$char_traits@D@std@@V?$allocator@D@2@@std@@V12@U?$less@V?$basic_string@DU?$char_traits@D@std@@V?$allocator@D@2@@std@@@2@V?$allocator@U?$pair@$$CBV?$basic_string@DU?$char_traits@D@std@@V?$allocator@D@2@@std@@V12@@std@@@2@$0A@@std@@@std@@KAPAU_Node@?$_Tree_nod@V?$_Tmap_traits@V?$basic_string@DU?$char_traits@D@std@@V?$allocator@D@2@@std@@V12@U?$less@V?$basic_string@DU?$char_traits@D@std@@V?$allocator@D@2@@std@@@2@V?$allocator@U?$pair@$$CBV?$basic_string@DU?$char_traits@D@std@@V?$allocator@D@2@@std@@V12@@std@@@2@$0A@@std@@@2@PAU342@@Z 004023d0 f i ConfigureLoader.obj
 0001:000013f0       ?_Inc@const_iterator@?$_Tree@V?$_Tmap_traits@V?$basic_string@DU?$char_traits@D@std@@V?$allocator@D@2@@std@@V12@U?$less@V?$basic_string@DU?$char_traits@D@std@@V?$allocator@D@2@@std@@@2@V?$allocator@U?$pair@$$CBV?$basic_string@DU?$char_traits@D@std@@V?$allocator@D@2@@std@@V12@@std@@@2@$0A@@std@@@std@@QAEXXZ 004023f0 f i ConfigureLoader.obj
 0001:00001460       ??$checked_delete@VConsoleHandler@cacti@@@boost@@YAXPAVConsoleHandler@cacti@@@Z 00402460 f i ConfigureLoader.obj
 0001:00001460       ??$checked_delete@VStarFileHandler@cacti@@@boost@@YAXPAVStarFileHandler@cacti@@@Z 00402460 f i ConfigureLoader.obj
 0001:00001460       ??$checked_delete@VSimpleFormatter@cacti@@@boost@@YAXPAVSimpleFormatter@cacti@@@Z 00402460 f i ConfigureLoader.obj
 0001:00001460       ??$checked_delete@VLogger@cacti@@@boost@@YAXPAVLogger@cacti@@@Z 00402460 f i LogManager.obj
 0001:00001460       ??$checked_delete@VTLV@cacti@@@boost@@YAXPAVTLV@cacti@@@Z 00402460 f i TransferMessage.obj
 0001:00001460       ??$checked_delete@VStarFormatter@cacti@@@boost@@YAXPAVStarFormatter@cacti@@@Z 00402460 f i ConfigureLoader.obj
 0001:00001460       ??$checked_delete@VFileHandler@cacti@@@boost@@YAXPAVFileHandler@cacti@@@Z 00402460 f i ConfigureLoader.obj
 0001:00001460       ??$checked_delete@VTTICFormatter@cacti@@@boost@@YAXPAVTTICFormatter@cacti@@@Z 00402460 f i ConfigureLoader.obj
 0001:00001480       ?compare@?$basic_string@DU?$char_traits@D@std@@V?$allocator@D@2@@std@@QBEHIIPBDI@Z 00402480 f i ConfigureLoader.obj
 0001:000014f0       ?_Lrotate@?$_Tree@V?$_Tmap_traits@V?$basic_string@DU?$char_traits@D@std@@V?$allocator@D@2@@std@@V12@U?$less@V?$basic_string@DU?$char_traits@D@std@@V?$allocator@D@2@@std@@@2@V?$allocator@U?$pair@$$CBV?$basic_string@DU?$char_traits@D@std@@V?$allocator@D@2@@std@@V12@@std@@@2@$0A@@std@@@std@@IAEXPAU_Node@?$_Tree_nod@V?$_Tmap_traits@V?$basic_string@DU?$char_traits@D@std@@V?$allocator@D@2@@std@@V12@U?$less@V?$basic_string@DU?$char_traits@D@std@@V?$allocator@D@2@@std@@@2@V?$allocator@U?$pair@$$CBV?$basic_string@DU?$char_traits@D@std@@V?$allocator@D@2@@std@@V12@@std@@@2@$0A@@std@@@2@@Z 004024f0 f i ConfigureLoader.obj
 0001:00001540       ?_Rrotate@?$_Tree@V?$_Tmap_traits@V?$basic_string@DU?$char_traits@D@std@@V?$allocator@D@2@@std@@V12@U?$less@V?$basic_string@DU?$char_traits@D@std@@V?$allocator@D@2@@std@@@2@V?$allocator@U?$pair@$$CBV?$basic_string@DU?$char_traits@D@std@@V?$allocator@D@2@@std@@V12@@std@@@2@$0A@@std@@@std@@IAEXPAU_Node@?$_Tree_nod@V?$_Tmap_traits@V?$basic_string@DU?$char_traits@D@std@@V?$allocator@D@2@@std@@V12@U?$less@V?$basic_string@DU?$char_traits@D@std@@V?$allocator@D@2@@std@@@2@V?$allocator@U?$pair@$$CBV?$basic_string@DU?$char_traits@D@std@@V?$allocator@D@2@@std@@V12@@std@@@2@$0A@@std@@@2@@Z 00402540 f i ConfigureLoader.obj
 0001:000015a0       ?_Dec@const_iterator@?$_Tree@V?$_Tmap_traits@V?$basic_string@DU?$char_traits@D@std@@V?$allocator@D@2@@std@@V12@U?$less@V?$basic_string@DU?$char_traits@D@std@@V?$allocator@D@2@@std@@@2@V?$allocator@U?$pair@$$CBV?$basic_string@DU?$char_traits@D@std@@V?$allocator@D@2@@std@@V12@@std@@@2@$0A@@std@@@std@@QAEXXZ 004025a0 f i ConfigureLoader.obj
 0001:00001630       ??$?0VConsoleHandler@cacti@@@shared_count@detail@boost@@QAE@PAVConsoleHandler@cacti@@@Z 00402630 f i ConfigureLoader.obj
 0001:000016c0       ??$?0VFileHandler@cacti@@@shared_count@detail@boost@@QAE@PAVFileHandler@cacti@@@Z 004026c0 f i ConfigureLoader.obj
 0001:00001750       ??$?0VStarFileHandler@cacti@@@shared_count@detail@boost@@QAE@PAVStarFileHandler@cacti@@@Z 00402750 f i ConfigureLoader.obj
 0001:000017e0       ??$?0VSimpleFormatter@cacti@@@shared_count@detail@boost@@QAE@PAVSimpleFormatter@cacti@@@Z 004027e0 f i ConfigureLoader.obj
 0001:00001870       ??$?0VTTICFormatter@cacti@@@shared_count@detail@boost@@QAE@PAVTTICFormatter@cacti@@@Z 00402870 f i ConfigureLoader.obj
 0001:00001900       ??$?0VStarFormatter@cacti@@@shared_count@detail@boost@@QAE@PAVStarFormatter@cacti@@@Z 00402900 f i ConfigureLoader.obj
 0001:00001990       ?dispose@?$sp_counted_impl_p@VFileHandler@cacti@@@detail@boost@@UAEXXZ 00402990 f i ConfigureLoader.obj
 0001:00001990       ?dispose@?$sp_counted_impl_p@VTTICFormatter@cacti@@@detail@boost@@UAEXXZ 00402990 f i ConfigureLoader.obj
 0001:00001990       ?dispose@?$sp_counted_impl_p@VTLV@cacti@@@detail@boost@@UAEXXZ 00402990 f i TransferMessage.obj
 0001:00001990       ?dispose@?$sp_counted_impl_p@VStarFormatter@cacti@@@detail@boost@@UAEXXZ 00402990 f i ConfigureLoader.obj
 0001:00001990       ?dispose@?$sp_counted_impl_p@VStarFileHandler@cacti@@@detail@boost@@UAEXXZ 00402990 f i ConfigureLoader.obj
 0001:00001990       ?dispose@?$sp_counted_impl_p@VConsoleHandler@cacti@@@detail@boost@@UAEXXZ 00402990 f i ConfigureLoader.obj
 0001:00001990       ?dispose@?$sp_counted_impl_p@VLogger@cacti@@@detail@boost@@UAEXXZ 00402990 f i LogManager.obj
 0001:00001990       ?dispose@?$sp_counted_impl_p@VSimpleFormatter@cacti@@@detail@boost@@UAEXXZ 00402990 f i ConfigureLoader.obj
 0001:000019a0       ??_G?$sp_counted_impl_p@VLogger@cacti@@@detail@boost@@UAEPAXI@Z 004029a0 f i LogManager.obj
 0001:000019a0       ??_E?$sp_counted_impl_p@VSimpleFormatter@cacti@@@detail@boost@@UAEPAXI@Z 004029a0 f i ConfigureLoader.obj
 0001:000019a0       ??_E?$sp_counted_impl_p@VStarFormatter@cacti@@@detail@boost@@UAEPAXI@Z 004029a0 f i ConfigureLoader.obj
 0001:000019a0       ??_E?$sp_counted_impl_p@VStarFileHandler@cacti@@@detail@boost@@UAEPAXI@Z 004029a0 f i ConfigureLoader.obj
 0001:000019a0       ??_E?$sp_counted_impl_p@VTTICFormatter@cacti@@@detail@boost@@UAEPAXI@Z 004029a0 f i ConfigureLoader.obj
 0001:000019a0       ??_E?$sp_counted_impl_p@VKVNode@cacti@@@detail@boost@@UAEPAXI@Z 004029a0 f i TransferMessage.obj
 0001:000019a0       ??_E?$sp_counted_impl_p@VFileHandler@cacti@@@detail@boost@@UAEPAXI@Z 004029a0 f i ConfigureLoader.obj
 0001:000019a0       ??_G?$sp_counted_impl_p@VTTICFormatter@cacti@@@detail@boost@@UAEPAXI@Z 004029a0 f i ConfigureLoader.obj
 0001:000019a0       ??_E?$sp_counted_impl_p@V?$BoundedQueue@V?$shared_ptr@VNetworkPackage@cacti@@@boost@@@cacti@@@detail@boost@@UAEPAXI@Z 004029a0 f i ServiceManager.obj
 0001:000019a0       ??_G?$sp_counted_impl_p@VDAGW@@@detail@boost@@UAEPAXI@Z 004029a0 f i dagw.obj
 0001:000019a0       ??_G?$sp_counted_impl_p@VConsoleHandler@cacti@@@detail@boost@@UAEPAXI@Z 004029a0 f i ConfigureLoader.obj
 0001:000019a0       ??_E?$sp_counted_impl_p@VNetworkPackage@cacti@@@detail@boost@@UAEPAXI@Z 004029a0 f i MessageDispatcher.obj
 0001:000019a0       ??_G?$sp_counted_impl_p@V?$BoundedQueue@V?$shared_ptr@VNetworkPackage@cacti@@@boost@@@cacti@@@detail@boost@@UAEPAXI@Z 004029a0 f i ServiceManager.obj
 0001:000019a0       ??_G?$sp_counted_impl_p@VKVNode@cacti@@@detail@boost@@UAEPAXI@Z 004029a0 f i TransferMessage.obj
 0001:000019a0       ??_G?$sp_counted_impl_p@VNetworkPackage@cacti@@@detail@boost@@UAEPAXI@Z 004029a0 f i MessageDispatcher.obj
 0001:000019a0       ??_Gsp_counted_base@detail@boost@@UAEPAXI@Z 004029a0 f i ConfigureLoader.obj
 0001:000019a0       ??_G?$sp_counted_impl_p@VTLV@cacti@@@detail@boost@@UAEPAXI@Z 004029a0 f i TransferMessage.obj
 0001:000019a0       ??_E?$sp_counted_impl_p@VConsoleHandler@cacti@@@detail@boost@@UAEPAXI@Z 004029a0 f i ConfigureLoader.obj
 0001:000019a0       ??_G?$sp_counted_impl_p@VStarFormatter@cacti@@@detail@boost@@UAEPAXI@Z 004029a0 f i ConfigureLoader.obj
 0001:000019a0       ??_G?$sp_counted_impl_p@VUserTransferMessage@cacti@@@detail@boost@@UAEPAXI@Z 004029a0 f i TransferMessage.obj
 0001:000019a0       ??_G?$sp_counted_impl_p@VStarFileHandler@cacti@@@detail@boost@@UAEPAXI@Z 004029a0 f i ConfigureLoader.obj
 0001:000019a0       ??_E?$sp_counted_impl_p@VLogger@cacti@@@detail@boost@@UAEPAXI@Z 004029a0 f i LogManager.obj
 0001:000019a0       ??_E?$sp_counted_impl_p@VDAGW@@@detail@boost@@UAEPAXI@Z 004029a0 f i dagw.obj
 0001:000019a0       ??_Esp_counted_base@detail@boost@@UAEPAXI@Z 004029a0 f i ConfigureLoader.obj
 0001:000019a0       ??_G?$sp_counted_impl_p@VSimpleFormatter@cacti@@@detail@boost@@UAEPAXI@Z 004029a0 f i ConfigureLoader.obj
 0001:000019a0       ??_G?$sp_counted_impl_p@VFileHandler@cacti@@@detail@boost@@UAEPAXI@Z 004029a0 f i ConfigureLoader.obj
 0001:000019a0       ??_E?$sp_counted_impl_p@VTLV@cacti@@@detail@boost@@UAEPAXI@Z 004029a0 f i TransferMessage.obj
 0001:000019a0       ??_E?$sp_counted_impl_p@VUserTransferMessage@cacti@@@detail@boost@@UAEPAXI@Z 004029a0 f i TransferMessage.obj
 0001:000019c0       ?_Buynode@?$_Tree@V?$_Tmap_traits@V?$basic_string@DU?$char_traits@D@std@@V?$allocator@D@2@@std@@V12@U?$less@V?$basic_string@DU?$char_traits@D@std@@V?$allocator@D@2@@std@@@2@V?$allocator@U?$pair@$$CBV?$basic_string@DU?$char_traits@D@std@@V?$allocator@D@2@@std@@V12@@std@@@2@$0A@@std@@@std@@IAEPAU_Node@?$_Tree_nod@V?$_Tmap_traits@V?$basic_string@DU?$char_traits@D@std@@V?$allocator@D@2@@std@@V12@U?$less@V?$basic_string@DU?$char_traits@D@std@@V?$allocator@D@2@@std@@@2@V?$allocator@U?$pair@$$CBV?$basic_string@DU?$char_traits@D@std@@V?$allocator@D@2@@std@@V12@@std@@@2@$0A@@std@@@2@XZ 004029c0 f i ConfigureLoader.obj
 0001:00001a00       ??R?$less@V?$basic_string@DU?$char_traits@D@std@@V?$allocator@D@2@@std@@@std@@QBE_NABV?$basic_string@DU?$char_traits@D@std@@V?$allocator@D@2@@1@0@Z 00402a00 f i ConfigureLoader.obj
 0001:00001a40       ??1runtime_error@std@@UAE@XZ 00402a40 f i ConfigureLoader.obj
 0001:00001a40       ??1failure@ios_base@std@@UAE@XZ 00402a40 f i ConfigureLoader.obj
 0001:00001a80       ?what@runtime_error@std@@UBEPBDXZ 00402a80 f i ConfigureLoader.obj
 0001:00001a80       ?what@logic_error@std@@UBEPBDXZ 00402a80 f i ConfigureLoader.obj
 0001:00001a90       ??1LogControlID@cacti@@QAE@XZ 00402a90 f i ConfigureLoader.obj
 0001:00001ac0       ??0?$pair@$$CBV?$basic_string@DU?$char_traits@D@std@@V?$allocator@D@2@@std@@V12@@std@@QAE@ABU01@@Z 00402ac0 f i ConfigureLoader.obj
 0001:00001b40       ??0logic_error@std@@QAE@ABV?$basic_string@DU?$char_traits@D@std@@V?$allocator@D@2@@1@@Z 00402b40 f i ConfigureLoader.obj
 0001:00001bb0       ??0runtime_error@std@@QAE@ABV?$basic_string@DU?$char_traits@D@std@@V?$allocator@D@2@@1@@Z 00402bb0 f i ConfigureLoader.obj
 0001:00001c20       ??_Efailure@ios_base@std@@UAEPAXI@Z 00402c20 f i ConfigureLoader.obj
 0001:00001c20       ??_Eruntime_error@std@@UAEPAXI@Z 00402c20 f i ConfigureLoader.obj
 0001:00001c20       ??_Gruntime_error@std@@UAEPAXI@Z 00402c20 f i ConfigureLoader.obj
 0001:00001c20       ??_Gfailure@ios_base@std@@UAEPAXI@Z 00402c20 f i ConfigureLoader.obj
 0001:00001c70       ??0DlLoader@@QAE@ABV0@@Z   00402c70 f i dbconnect.obj
 0001:00001c70       ??0LogControlID@cacti@@QAE@ABV01@@Z 00402c70 f i ConfigureLoader.obj
 0001:00001ca0       ??0?$basic_string@DU?$char_traits@D@std@@V?$allocator@D@2@@std@@QAE@PBD@Z 00402ca0 f i ConfigureLoader.obj
 0001:00001ce0       ?clear@ios_base@std@@QAEXH_N@Z 00402ce0 f i ConfigureLoader.obj
 0001:00001e10       ??0runtime_error@std@@QAE@ABV01@@Z 00402e10 f i ConfigureLoader.obj
 0001:00001e90       ??0failure@ios_base@std@@QAE@ABV012@@Z 00402e90 f i ConfigureLoader.obj
 0001:00001eb0       ?_Buynode@?$_Tree@V?$_Tmap_traits@V?$basic_string@DU?$char_traits@D@std@@V?$allocator@D@2@@std@@V12@U?$less@V?$basic_string@DU?$char_traits@D@std@@V?$allocator@D@2@@std@@@2@V?$allocator@U?$pair@$$CBV?$basic_string@DU?$char_traits@D@std@@V?$allocator@D@2@@std@@V12@@std@@@2@$0A@@std@@@std@@IAEPAU_Node@?$_Tree_nod@V?$_Tmap_traits@V?$basic_string@DU?$char_traits@D@std@@V?$allocator@D@2@@std@@V12@U?$less@V?$basic_string@DU?$char_traits@D@std@@V?$allocator@D@2@@std@@@2@V?$allocator@U?$pair@$$CBV?$basic_string@DU?$char_traits@D@std@@V?$allocator@D@2@@std@@V12@@std@@@2@$0A@@std@@@2@PAU342@00ABU?$pair@$$CBV?$basic_string@DU?$char_traits@D@std@@V?$allocator@D@2@@std@@V12@@2@D@Z 00402eb0 f i ConfigureLoader.obj
 0001:00001f50       ??0logic_error@std@@QAE@ABV01@@Z 00402f50 f i ConfigureLoader.obj
 0001:00001fd0       ??0length_error@std@@QAE@ABV01@@Z 00402fd0 f i ConfigureLoader.obj
 0001:00001ff0       ?_Insert@?$_Tree@V?$_Tmap_traits@V?$basic_string@DU?$char_traits@D@std@@V?$allocator@D@2@@std@@V12@U?$less@V?$basic_string@DU?$char_traits@D@std@@V?$allocator@D@2@@std@@@2@V?$allocator@U?$pair@$$CBV?$basic_string@DU?$char_traits@D@std@@V?$allocator@D@2@@std@@V12@@std@@@2@$0A@@std@@@std@@IAE?AViterator@12@_NPAU_Node@?$_Tree_nod@V?$_Tmap_traits@V?$basic_string@DU?$char_traits@D@std@@V?$allocator@D@2@@std@@V12@U?$less@V?$basic_string@DU?$char_traits@D@std@@V?$allocator@D@2@@std@@@2@V?$allocator@U?$pair@$$CBV?$basic_string@DU?$char_traits@D@std@@V?$allocator@D@2@@std@@V12@@std@@@2@$0A@@std@@@2@ABU?$pair@$$CBV?$basic_string@DU?$char_traits@D@std@@V?$allocator@D@2@@std@@V12@@2@@Z 00402ff0 f i ConfigureLoader.obj
 0001:000021f0       ??0out_of_range@std@@QAE@ABV01@@Z 004031f0 f i ConfigureLoader.obj
 0001:00002210       ?erase@?$_Tree@V?$_Tmap_traits@V?$basic_string@DU?$char_traits@D@std@@V?$allocator@D@2@@std@@V12@U?$less@V?$basic_string@DU?$char_traits@D@std@@V?$allocator@D@2@@std@@@2@V?$allocator@U?$pair@$$CBV?$basic_string@DU?$char_traits@D@std@@V?$allocator@D@2@@std@@V12@@std@@@2@$0A@@std@@@std@@QAE?AViterator@12@V312@@Z 00403210 f i ConfigureLoader.obj
 0001:00002520       ?_Erase@?$_Tree@V?$_Tmap_traits@V?$basic_string@DU?$char_traits@D@std@@V?$allocator@D@2@@std@@V12@U?$less@V?$basic_string@DU?$char_traits@D@std@@V?$allocator@D@2@@std@@@2@V?$allocator@U?$pair@$$CBV?$basic_string@DU?$char_traits@D@std@@V?$allocator@D@2@@std@@V12@@std@@@2@$0A@@std@@@std@@IAEXPAU_Node@?$_Tree_nod@V?$_Tmap_traits@V?$basic_string@DU?$char_traits@D@std@@V?$allocator@D@2@@std@@V12@U?$less@V?$basic_string@DU?$char_traits@D@std@@V?$allocator@D@2@@std@@@2@V?$allocator@U?$pair@$$CBV?$basic_string@DU?$char_traits@D@std@@V?$allocator@D@2@@std@@V12@@std@@@2@$0A@@std@@@2@@Z 00403520 f i ConfigureLoader.obj
 0001:000025a0       ?flush@?$basic_ostream@DU?$char_traits@D@std@@@std@@QAEAAV12@XZ 004035a0 f i ConfigureLoader.obj
 0001:000025f0       ?insert@?$_Tree@V?$_Tmap_traits@V?$basic_string@DU?$char_traits@D@std@@V?$allocator@D@2@@std@@V12@U?$less@V?$basic_string@DU?$char_traits@D@std@@V?$allocator@D@2@@std@@@2@V?$allocator@U?$pair@$$CBV?$basic_string@DU?$char_traits@D@std@@V?$allocator@D@2@@std@@V12@@std@@@2@$0A@@std@@@std@@QAE?AU?$pair@Viterator@?$_Tree@V?$_Tmap_traits@V?$basic_string@DU?$char_traits@D@std@@V?$allocator@D@2@@std@@V12@U?$less@V?$basic_string@DU?$char_traits@D@std@@V?$allocator@D@2@@std@@@2@V?$allocator@U?$pair@$$CBV?$basic_string@DU?$char_traits@D@std@@V?$allocator@D@2@@std@@V12@@std@@@2@$0A@@std@@@std@@_N@2@ABU?$pair@$$CBV?$basic_string@DU?$char_traits@D@std@@V?$allocator@D@2@@std@@V12@@2@@Z 004035f0 f i ConfigureLoader.obj
 0001:00002720       ??0sentry@?$basic_ostream@DU?$char_traits@D@std@@@std@@QAE@AAV12@@Z 00403720 f i ConfigureLoader.obj
 0001:000027b0       ?_Osfx@?$basic_ostream@DU?$char_traits@D@std@@@std@@QAEXXZ 004037b0 f i ConfigureLoader.obj
 0001:00002810       ??1sentry@?$basic_ostream@DU?$char_traits@D@std@@@std@@QAE@XZ 00403810 f i ConfigureLoader.obj
 0001:00002880       ?erase@?$_Tree@V?$_Tmap_traits@V?$basic_string@DU?$char_traits@D@std@@V?$allocator@D@2@@std@@V12@U?$less@V?$basic_string@DU?$char_traits@D@std@@V?$allocator@D@2@@std@@@2@V?$allocator@U?$pair@$$CBV?$basic_string@DU?$char_traits@D@std@@V?$allocator@D@2@@std@@V12@@std@@@2@$0A@@std@@@std@@QAE?AViterator@12@V312@0@Z 00403880 f i ConfigureLoader.obj
 0001:00002950       ??$?6U?$char_traits@D@std@@@std@@YAAAV?$basic_ostream@DU?$char_traits@D@std@@@0@AAV10@PBD@Z 00403950 f i ConfigureLoader.obj
 0001:00002b60       ??$?6DU?$char_traits@D@std@@V?$allocator@D@1@@std@@YAAAV?$basic_ostream@DU?$char_traits@D@std@@@0@AAV10@ABV?$basic_string@DU?$char_traits@D@std@@V?$allocator@D@2@@0@@Z 00403b60 f i ConfigureLoader.obj
 0001:00002de0       ?put@?$basic_ostream@DU?$char_traits@D@std@@@std@@QAEAAV12@D@Z 00403de0 f i ConfigureLoader.obj
 0001:00002f10       ??1?$map@V?$basic_string@DU?$char_traits@D@std@@V?$allocator@D@2@@std@@V12@U?$less@V?$basic_string@DU?$char_traits@D@std@@V?$allocator@D@2@@std@@@2@V?$allocator@U?$pair@$$CBV?$basic_string@DU?$char_traits@D@std@@V?$allocator@D@2@@std@@V12@@std@@@2@@std@@QAE@XZ 00403f10 f i ConfigureLoader.obj
 0001:00002f50       ?doPublish@ConsoleHandler@cacti@@MAEXABULogRecord@2@@Z 00403f50 f   ConsoleHandler.obj
 0001:00002fd0       ?compare@?$basic_string@DU?$char_traits@D@std@@V?$allocator@D@2@@std@@QBEHPBD@Z 00403fd0 f i ConsoleHandler.obj
 0001:00003000       ??$?8DU?$char_traits@D@std@@V?$allocator@D@1@@std@@YA_NABV?$basic_string@DU?$char_traits@D@std@@V?$allocator@D@2@@0@PBD@Z 00404000 f i ConsoleHandler.obj
 0001:00003040       ?_Lbound@?$_Tree@V?$_Tmap_traits@V?$basic_string@DU?$char_traits@D@std@@V?$allocator@D@2@@std@@V12@U?$less@V?$basic_string@DU?$char_traits@D@std@@V?$allocator@D@2@@std@@@2@V?$allocator@U?$pair@$$CBV?$basic_string@DU?$char_traits@D@std@@V?$allocator@D@2@@std@@V12@@std@@@2@$0A@@std@@@std@@IBEPAU_Node@?$_Tree_nod@V?$_Tmap_traits@V?$basic_string@DU?$char_traits@D@std@@V?$allocator@D@2@@std@@V12@U?$less@V?$basic_string@DU?$char_traits@D@std@@V?$allocator@D@2@@std@@@2@V?$allocator@U?$pair@$$CBV?$basic_string@DU?$char_traits@D@std@@V?$allocator@D@2@@std@@V12@@std@@@2@$0A@@std@@@2@ABV?$basic_string@DU?$char_traits@D@std@@V?$allocator@D@2@@2@@Z 00404040 f i ConsoleHandler.obj
 0001:000030d0       ??1LogHandler@cacti@@UAE@XZ 004040d0 f i ConsoleHandler.obj
 0001:00003190       ??_ELogHandler@cacti@@UAEPAXI@Z 00404190 f i ConsoleHandler.obj
 0001:00003190       ??_GLogHandler@cacti@@UAEPAXI@Z 00404190 f i ConsoleHandler.obj
 0001:000031b0       ??0ConsoleHandler@cacti@@QAE@_N0@Z 004041b0 f   ConsoleHandler.obj
 0001:000031f0       ??_GConsoleHandler@cacti@@UAEPAXI@Z 004041f0 f i ConsoleHandler.obj
 0001:000031f0       ??_EConsoleHandler@cacti@@UAEPAXI@Z 004041f0 f i ConsoleHandler.obj
 0001:00003220       ?_Getctype@_Locinfo@std@@QBE?AU_Ctypevec@@XZ 00404220 f i FileHandler.obj
 0001:00003250       ??Bid@locale@std@@QAEIXZ   00404250 f i FileHandler.obj
 0001:00003290       ?_Incref@facet@locale@std@@QAEXXZ 00404290 f i FileHandler.obj
 0001:000032c0       ?_Decref@facet@locale@std@@QAEPAV123@XZ 004042c0 f i FileHandler.obj
 0001:00003300       ??1codecvt_base@std@@UAE@XZ 00404300 f i FileHandler.obj
 0001:00003300       ??1ctype_base@std@@UAE@XZ  00404300 f i FileHandler.obj
 0001:00003300       ??1facet@locale@std@@UAE@XZ 00404300 f i FileHandler.obj
 0001:00003310       ??0locale@std@@QAE@XZ      00404310 f i FileHandler.obj
 0001:00003350       ??1locale@std@@QAE@XZ      00404350 f i FileHandler.obj
 0001:000033a0       ?_Getfacet@locale@std@@QBEPBVfacet@12@I@Z 004043a0 f i FileHandler.obj
 0001:000033e0       ?do_always_noconv@codecvt_base@std@@MBE_NXZ 004043e0 f i FileHandler.obj
 0001:000033e0       ?init@ServiceSkeleton@cacti@@MAE_NXZ 004043e0 f i ServiceSkeleton.obj
 0001:000033f0       ?do_max_length@codecvt_base@std@@MBEHXZ 004043f0 f i FileHandler.obj
 0001:000033f0       ?do_encoding@codecvt_base@std@@MBEHXZ 004043f0 f i FileHandler.obj
 0001:00003400       ?_Init@?$ctype@D@std@@IAEXABV_Locinfo@2@@Z 00404400 f i FileHandler.obj
 0001:00003440       ?getloc@ios_base@std@@QBE?AVlocale@2@XZ 00404440 f i FileHandler.obj
 0001:00003480       ??1?$basic_ostream@DU?$char_traits@D@std@@@std@@UAE@XZ 00404480 f i FileHandler.obj
 0001:00003490       ??1?$basic_ios@DU?$char_traits@D@std@@@std@@UAE@XZ 00404490 f i FileHandler.obj
 0001:000034a0       ??_D?$basic_ostream@DU?$char_traits@D@std@@@std@@QAEXXZ 004044a0 f i FileHandler.obj
 0001:000034c0       ??_Eios_base@std@@UAEPAXI@Z 004044c0 f i FileHandler.obj
 0001:000034c0       ??_G?$basic_ios@DU?$char_traits@D@std@@@std@@UAEPAXI@Z 004044c0 f i FileHandler.obj
 0001:000034c0       ??_E?$basic_ios@DU?$char_traits@D@std@@@std@@UAEPAXI@Z 004044c0 f i FileHandler.obj
 0001:000034c0       ??_Gios_base@std@@UAEPAXI@Z 004044c0 f i FileHandler.obj
 0001:000034f0       ?_Tidy@?$basic_stringbuf@DU?$char_traits@D@std@@V?$allocator@D@2@@std@@IAEXXZ 004044f0 f i FileHandler.obj
 0001:00003550       ?getloc@?$basic_streambuf@DU?$char_traits@D@std@@@std@@QBE?AVlocale@2@XZ 00404550 f i FileHandler.obj
 0001:00003590       ?_Init@?$basic_streambuf@DU?$char_traits@D@std@@@std@@IAEXXZ 00404590 f i FileHandler.obj
 0001:000035f0       ??D?$_String_iterator@DU?$char_traits@D@std@@V?$allocator@D@2@@std@@QBEAADXZ 004045f0 f i FileHandler.obj
 0001:000035f0       ??D?$_String_const_iterator@DU?$char_traits@D@std@@V?$allocator@D@2@@std@@QBEABDXZ 004045f0 f i FileHandler.obj
 0001:00003630       ??1?$basic_streambuf@DU?$char_traits@D@std@@@std@@UAE@XZ 00404630 f i FileHandler.obj
 0001:000036b0       ?pbackfail@?$basic_streambuf@DU?$char_traits@D@std@@@std@@MAEHH@Z 004046b0 f i FileHandler.obj
 0001:000036b0       ?overflow@?$basic_streambuf@DU?$char_traits@D@std@@@std@@MAEHH@Z 004046b0 f i FileHandler.obj
 0001:000036c0       ?underflow@?$basic_streambuf@DU?$char_traits@D@std@@@std@@MAEHXZ 004046c0 f i FileHandler.obj
 0001:000036d0       ?xsgetn@?$basic_streambuf@DU?$char_traits@D@std@@@std@@MAEHPADH@Z 004046d0 f i FileHandler.obj
 0001:000036f0       ?setbuf@?$basic_streambuf@DU?$char_traits@D@std@@@std@@MAEPAV12@PADH@Z 004046f0 f i FileHandler.obj
 0001:00003700       ?showmanyc@?$basic_streambuf@DU?$char_traits@D@std@@@std@@MAEHXZ 00404700 f i FileHandler.obj
 0001:00003700       ?sync@?$basic_streambuf@DU?$char_traits@D@std@@@std@@MAEHXZ 00404700 f i FileHandler.obj
 0001:00003710       ?_Gnavail@?$basic_streambuf@DU?$char_traits@D@std@@@std@@IBEHXZ 00404710 f i FileHandler.obj
 0001:00003730       ?uflow@?$basic_streambuf@DU?$char_traits@D@std@@@std@@MAEHXZ 00404730 f i FileHandler.obj
 0001:00003760       ?seekoff@?$basic_streambuf@DU?$char_traits@D@std@@@std@@MAE?AV?$fpos@H@2@JHH@Z 00404760 f i FileHandler.obj
 0001:00003780       ?seekpos@?$basic_streambuf@DU?$char_traits@D@std@@@std@@MAE?AV?$fpos@H@2@V32@H@Z 00404780 f i FileHandler.obj
 0001:000037a0       ?pbackfail@?$basic_stringbuf@DU?$char_traits@D@std@@V?$allocator@D@2@@std@@MAEHH@Z 004047a0 f i FileHandler.obj
 0001:000037f0       ?underflow@?$basic_stringbuf@DU?$char_traits@D@std@@V?$allocator@D@2@@std@@MAEHXZ 004047f0 f i FileHandler.obj
 0001:00003860       ?seekoff@?$basic_stringbuf@DU?$char_traits@D@std@@V?$allocator@D@2@@std@@MAE?AV?$fpos@H@2@JHH@Z 00404860 f i FileHandler.obj
 0001:000039c0       ?seekpos@?$basic_stringbuf@DU?$char_traits@D@std@@V?$allocator@D@2@@std@@MAE?AV?$fpos@H@2@V32@H@Z 004049c0 f i FileHandler.obj
 0001:00003a90       ??_G?$basic_ostream@DU?$char_traits@D@std@@@std@@UAEPAXI@Z 00404a90 f i FileHandler.obj
 0001:00003a90       ??_E?$basic_ostream@DU?$char_traits@D@std@@@std@@UAEPAXI@Z 00404a90 f i FileHandler.obj
 0001:00003ad0       ??_G?$basic_streambuf@DU?$char_traits@D@std@@@std@@UAEPAXI@Z 00404ad0 f i FileHandler.obj
 0001:00003ad0       ??_E?$basic_streambuf@DU?$char_traits@D@std@@@std@@UAEPAXI@Z 00404ad0 f i FileHandler.obj
 0001:00003af0       ??_G?$basic_stringbuf@DU?$char_traits@D@std@@V?$allocator@D@2@@std@@UAEPAXI@Z 00404af0 f i FileHandler.obj
 0001:00003af0       ??_E?$basic_stringbuf@DU?$char_traits@D@std@@V?$allocator@D@2@@std@@UAEPAXI@Z 00404af0 f i FileHandler.obj
 0001:00003b20       ?_Chassign@?$basic_string@DU?$char_traits@D@std@@V?$allocator@D@2@@std@@IAEXIID@Z 00404b20 f i FileHandler.obj
 0001:00003b80       ??0?$basic_streambuf@DU?$char_traits@D@std@@@std@@IAE@XZ 00404b80 f i FileHandler.obj
 0001:00003c30       ??0?$_String_const_iterator@DU?$char_traits@D@std@@V?$allocator@D@2@@std@@QAE@PBDPBU_Container_base@1@@Z 00404c30 f i FileHandler.obj
 0001:00003c90       ?_Xsgetn_s@?$basic_streambuf@DU?$char_traits@D@std@@@std@@MAEHPADIH@Z 00404c90 f i FileHandler.obj
 0001:00003d30       ?xsputn@?$basic_streambuf@DU?$char_traits@D@std@@@std@@MAEHPBDH@Z 00404d30 f i FileHandler.obj
 0001:00003dd0       ??1?$basic_ostringstream@DU?$char_traits@D@std@@V?$allocator@D@2@@std@@UAE@XZ 00404dd0 f i FileHandler.obj
 0001:00003e50       ?overflow@?$basic_stringbuf@DU?$char_traits@D@std@@V?$allocator@D@2@@std@@MAEHH@Z 00404e50 f i FileHandler.obj
 0001:00004000       ??0?$basic_filebuf@DU?$char_traits@D@std@@@std@@QAE@PAU_iobuf@@@Z 00405000 f i FileHandler.obj
 0001:00004060       ??$_Fputc@D@std@@YA_NDPAU_iobuf@@@Z 00405060 f i FileHandler.obj
 0001:00004080       ?sync@?$basic_filebuf@DU?$char_traits@D@std@@@std@@MAEHXZ 00405080 f i FileHandler.obj
 0001:000040b0       ?pbackfail@?$basic_filebuf@DU?$char_traits@D@std@@@std@@MAEHH@Z 004050b0 f i FileHandler.obj
 0001:00004120       ?underflow@?$basic_filebuf@DU?$char_traits@D@std@@@std@@MAEHXZ 00405120 f i FileHandler.obj
 0001:00004170       ?setbuf@?$basic_filebuf@DU?$char_traits@D@std@@@std@@MAEPAV?$basic_streambuf@DU?$char_traits@D@std@@@2@PADH@Z 00405170 f i FileHandler.obj
 0001:000041f0       ??_D?$basic_ostringstream@DU?$char_traits@D@std@@V?$allocator@D@2@@std@@QAEXXZ 004051f0 f i FileHandler.obj
 0001:00004210       ??_G?$basic_ostringstream@DU?$char_traits@D@std@@V?$allocator@D@2@@std@@UAEPAXI@Z 00405210 f i FileHandler.obj
 0001:00004210       ??_E?$basic_ostringstream@DU?$char_traits@D@std@@V?$allocator@D@2@@std@@UAEPAXI@Z 00405210 f i FileHandler.obj
 0001:00004250       ?begin@?$basic_string@DU?$char_traits@D@std@@V?$allocator@D@2@@std@@QAE?AV?$_String_iterator@DU?$char_traits@D@std@@V?$allocator@D@2@@2@XZ 00405250 f i FileHandler.obj
 0001:00004290       ??0?$basic_stringbuf@DU?$char_traits@D@std@@V?$allocator@D@2@@std@@QAE@H@Z 00405290 f i FileHandler.obj
 0001:00004310       ??1_Locinfo@std@@QAE@XZ    00405310 f i FileHandler.obj
 0001:000043f0       ?append@?$basic_string@DU?$char_traits@D@std@@V?$allocator@D@2@@std@@QAEAAV12@ID@Z 004053f0 f i FileHandler.obj
 0001:000044a0       ?assign@?$basic_string@DU?$char_traits@D@std@@V?$allocator@D@2@@std@@QAEAAV12@ID@Z 004054a0 f i FileHandler.obj
 0001:00004530       ??Y?$basic_string@DU?$char_traits@D@std@@V?$allocator@D@2@@std@@QAEAAV01@ABV01@@Z 00405530 f i FileHandler.obj
 0001:00004550       ?uflow@?$basic_filebuf@DU?$char_traits@D@std@@@std@@MAEHXZ 00405550 f i FileHandler.obj
 0001:000048b0       ??0?$basic_string@DU?$char_traits@D@std@@V?$allocator@D@2@@std@@QAE@ID@Z 004058b0 f i FileHandler.obj
 0001:000048e0       ?_Endwrite@?$basic_filebuf@DU?$char_traits@D@std@@@std@@IAE_NXZ 004058e0 f i FileHandler.obj
 0001:00004c00       ??0?$basic_string@DU?$char_traits@D@std@@V?$allocator@D@2@@std@@QAE@PBDI@Z 00405c00 f i FileHandler.obj
 0001:00004c30       ??$?HDU?$char_traits@D@std@@V?$allocator@D@1@@std@@YA?AV?$basic_string@DU?$char_traits@D@std@@V?$allocator@D@2@@0@ABV10@0@Z 00405c30 f i FileHandler.obj
 0001:00004ce0       ??4?$basic_string@DU?$char_traits@D@std@@V?$allocator@D@2@@std@@QAEAAV01@ABV01@@Z 00405ce0 f i FileHandler.obj
 0001:00004d00       ?overflow@?$basic_filebuf@DU?$char_traits@D@std@@@std@@MAEHH@Z 00405d00 f i FileHandler.obj
 0001:000050d0       ?seekoff@?$basic_filebuf@DU?$char_traits@D@std@@@std@@MAE?AV?$fpos@H@2@JHH@Z 004060d0 f i FileHandler.obj
 0001:000051b0       ?seekpos@?$basic_filebuf@DU?$char_traits@D@std@@@std@@MAE?AV?$fpos@H@2@V32@H@Z 004061b0 f i FileHandler.obj
 0001:000052a0       ?close@?$basic_filebuf@DU?$char_traits@D@std@@@std@@QAEPAV12@XZ 004062a0 f i FileHandler.obj
 0001:000052f0       ?str@?$basic_stringbuf@DU?$char_traits@D@std@@V?$allocator@D@2@@std@@QBE?AV?$basic_string@DU?$char_traits@D@std@@V?$allocator@D@2@@2@XZ 004062f0 f i FileHandler.obj
 0001:00005440       ??$?HDU?$char_traits@D@std@@V?$allocator@D@1@@std@@YA?AV?$basic_string@DU?$char_traits@D@std@@V?$allocator@D@2@@0@ABV10@PBD@Z 00406440 f i FileHandler.obj
 0001:00005500       ??0_Locinfo@std@@QAE@PBD@Z 00406500 f i FileHandler.obj
 0001:000055d0       ??0?$ctype@D@std@@QAE@PBF_NI@Z 004065d0 f i FileHandler.obj
 0001:000056d0       ?do_tolower@?$ctype@D@std@@MBEDD@Z 004066d0 f i FileHandler.obj
 0001:000056f0       ?do_tolower@?$ctype@D@std@@MBEPBDPADPBD@Z 004066f0 f i FileHandler.obj
 0001:00005720       ?do_toupper@?$ctype@D@std@@MBEDD@Z 00406720 f i FileHandler.obj
 0001:00005740       ?do_toupper@?$ctype@D@std@@MBEPBDPADPBD@Z 00406740 f i FileHandler.obj
 0001:00005770       ?do_widen@?$ctype@D@std@@MBEDD@Z 00406770 f i FileHandler.obj
 0001:00005780       ?do_widen@?$ctype@D@std@@MBEPBDPBD0PAD@Z 00406780 f i FileHandler.obj
 0001:000057b0       ?_Do_widen_s@?$ctype@D@std@@MBEPBDPBD0PADI@Z 004067b0 f i FileHandler.obj
 0001:000057f0       ?do_narrow@?$ctype@D@std@@MBEDDD@Z 004067f0 f i FileHandler.obj
 0001:00005800       ?do_narrow@?$ctype@D@std@@MBEPBDPBD0DPAD@Z 00406800 f i FileHandler.obj
 0001:00005830       ?_Do_narrow_s@?$ctype@D@std@@MBEPBDPBD0DPADI@Z 00406830 f i FileHandler.obj
 0001:00005870       ??_G?$ctype@D@std@@MAEPAXI@Z 00406870 f i FileHandler.obj
 0001:00005870       ??_E?$ctype@D@std@@MAEPAXI@Z 00406870 f i FileHandler.obj
 0001:000058c0       ?_Getcat@?$ctype@D@std@@SAIPAPBVfacet@locale@2@@Z 004068c0 f i FileHandler.obj
 0001:00005940       ?_Init@ios_base@std@@IAEXXZ 00406940 f i FileHandler.obj
 0001:000059c0       ??1?$basic_filebuf@DU?$char_traits@D@std@@@std@@UAE@XZ 004069c0 f i FileHandler.obj
 0001:00005a30       ?str@?$basic_ostringstream@DU?$char_traits@D@std@@V?$allocator@D@2@@std@@QBE?AV?$basic_string@DU?$char_traits@D@std@@V?$allocator@D@2@@2@XZ 00406a30 f i FileHandler.obj
 0001:00005a50       ??_G?$basic_filebuf@DU?$char_traits@D@std@@@std@@UAEPAXI@Z 00406a50 f i FileHandler.obj
 0001:00005a50       ??_E?$basic_filebuf@DU?$char_traits@D@std@@@std@@UAEPAXI@Z 00406a50 f i FileHandler.obj
 0001:00005a70       ??$use_facet@V?$ctype@D@std@@@std@@YAABV?$ctype@D@0@ABVlocale@0@@Z 00406a70 f i FileHandler.obj
 0001:00005ba0       ??0?$num_put@DV?$ostreambuf_iterator@DU?$char_traits@D@std@@@std@@@std@@QAE@I@Z 00406ba0 f i FileHandler.obj
 0001:00005c40       ?_Ifmt@?$num_put@DV?$ostreambuf_iterator@DU?$char_traits@D@std@@@std@@@std@@ABAPADPADPBDH@Z 00406c40 f i FileHandler.obj
 0001:00005ce0       ?_Tidy@?$numpunct@D@std@@AAEXXZ 00406ce0 f i FileHandler.obj
 0001:00005d10       ??$_Maklocstr@D@std@@YAPADPBDPADABU_Cvtvec@@@Z 00406d10 f i FileHandler.obj
 0001:00005d60       ??4?$ostreambuf_iterator@DU?$char_traits@D@std@@@std@@QAEAAV01@D@Z 00406d60 f i FileHandler.obj
 0001:00005db0       ?_Init@?$numpunct@D@std@@IAEXABV_Locinfo@2@@Z 00406db0 f i FileHandler.obj
 0001:00005e90       ?_Put@?$num_put@DV?$ostreambuf_iterator@DU?$char_traits@D@std@@@std@@@std@@ABA?AV?$ostreambuf_iterator@DU?$char_traits@D@std@@@2@V32@PBDI@Z 00406e90 f i FileHandler.obj
 0001:00005e90       ?_Putc@?$num_put@DV?$ostreambuf_iterator@DU?$char_traits@D@std@@@std@@@std@@ABA?AV?$ostreambuf_iterator@DU?$char_traits@D@std@@@2@V32@PBDI@Z 00406e90 f i FileHandler.obj
 0001:00005f10       ?_Rep@?$num_put@DV?$ostreambuf_iterator@DU?$char_traits@D@std@@@std@@@std@@ABA?AV?$ostreambuf_iterator@DU?$char_traits@D@std@@@2@V32@DI@Z 00406f10 f i FileHandler.obj
 0001:00005f90       ?_Putgrouped@?$num_put@DV?$ostreambuf_iterator@DU?$char_traits@D@std@@@std@@@std@@ABA?AV?$ostreambuf_iterator@DU?$char_traits@D@std@@@2@V32@PBDID@Z 00406f90 f i FileHandler.obj
 0001:00006060       ?falsename@?$numpunct@D@std@@QBE?AV?$basic_string@DU?$char_traits@D@std@@V?$allocator@D@2@@2@XZ 00407060 f i FileHandler.obj
 0001:00006080       ?truename@?$numpunct@D@std@@QBE?AV?$basic_string@DU?$char_traits@D@std@@V?$allocator@D@2@@2@XZ 00407080 f i FileHandler.obj
 0001:000060a0       ?insert@?$basic_string@DU?$char_traits@D@std@@V?$allocator@D@2@@std@@QAEAAV12@IID@Z 004070a0 f i FileHandler.obj
 0001:000061a0       ?grouping@?$numpunct@D@std@@QBE?AV?$basic_string@DU?$char_traits@D@std@@V?$allocator@D@2@@2@XZ 004071a0 f i FileHandler.obj
 0001:000061c0       ??0?$codecvt@DDH@std@@QAE@I@Z 004071c0 f i FileHandler.obj
 0001:00006250       ?do_out@?$codecvt@DDH@std@@MBEHAAHPBD1AAPBDPAD3AAPAD@Z 00407250 f i FileHandler.obj
 0001:00006250       ?do_in@?$codecvt@DDH@std@@MBEHAAHPBD1AAPBDPAD3AAPAD@Z 00407250 f i FileHandler.obj
 0001:00006270       ?do_unshift@?$codecvt@DDH@std@@MBEHAAHPAD1AAPAD@Z 00407270 f i FileHandler.obj
 0001:00006290       ?do_length@?$codecvt@DDH@std@@MBEHABHPBD1I@Z 00407290 f i FileHandler.obj
 0001:000062b0       ??_G?$num_get@DV?$istreambuf_iterator@DU?$char_traits@D@std@@@std@@@std@@MAEPAXI@Z 004072b0 f i Main.obj
 0001:000062b0       ??_G?$num_put@DV?$ostreambuf_iterator@DU?$char_traits@D@std@@@std@@@std@@MAEPAXI@Z 004072b0 f i FileHandler.obj
 0001:000062b0       ??_E?$codecvt@DDH@std@@MAEPAXI@Z 004072b0 f i FileHandler.obj
 0001:000062b0       ??_Gfacet@locale@std@@UAEPAXI@Z 004072b0 f i FileHandler.obj
 0001:000062b0       ??_E?$num_put@DV?$ostreambuf_iterator@DU?$char_traits@D@std@@@std@@@std@@MAEPAXI@Z 004072b0 f i FileHandler.obj
 0001:000062b0       ??_G?$codecvt@DDH@std@@MAEPAXI@Z 004072b0 f i FileHandler.obj
 0001:000062b0       ??_Efacet@locale@std@@UAEPAXI@Z 004072b0 f i FileHandler.obj
 0001:000062b0       ??_E?$num_get@DV?$istreambuf_iterator@DU?$char_traits@D@std@@@std@@@std@@MAEPAXI@Z 004072b0 f i Main.obj
 0001:000062d0       ??0?$numpunct@D@std@@QAE@I@Z 004072d0 f i FileHandler.obj
 0001:00006390       ?do_decimal_point@?$numpunct@D@std@@MBEDXZ 00407390 f i FileHandler.obj
 0001:000063a0       ?do_thousands_sep@?$numpunct@D@std@@MBEDXZ 004073a0 f i FileHandler.obj
 0001:000063b0       ??_E?$numpunct@D@std@@MAEPAXI@Z 004073b0 f i FileHandler.obj
 0001:000063b0       ??_G?$numpunct@D@std@@MAEPAXI@Z 004073b0 f i FileHandler.obj
 0001:00006400       ?do_grouping@?$numpunct@D@std@@MBE?AV?$basic_string@DU?$char_traits@D@std@@V?$allocator@D@2@@2@XZ 00407400 f i FileHandler.obj
 0001:00006450       ?do_falsename@?$numpunct@D@std@@MBE?AV?$basic_string@DU?$char_traits@D@std@@V?$allocator@D@2@@2@XZ 00407450 f i FileHandler.obj
 0001:000064a0       ?do_truename@?$numpunct@D@std@@MBE?AV?$basic_string@DU?$char_traits@D@std@@V?$allocator@D@2@@2@XZ 004074a0 f i FileHandler.obj
 0001:000064f0       ??1?$basic_ofstream@DU?$char_traits@D@std@@@std@@UAE@XZ 004074f0 f i FileHandler.obj
 0001:00006560       ?widen@?$basic_ios@DU?$char_traits@D@std@@@std@@QBEDD@Z 00407560 f i FileHandler.obj
 0001:00006620       ?_Getcat@?$num_put@DV?$ostreambuf_iterator@DU?$char_traits@D@std@@@std@@@std@@SAIPAPBVfacet@locale@2@@Z 00407620 f i FileHandler.obj
 0001:00006690       ?_Getcat@?$codecvt@DDH@std@@SAIPAPBVfacet@locale@2@@Z 00407690 f i FileHandler.obj
 0001:00006700       ?_Getcat@?$numpunct@D@std@@SAIPAPBVfacet@locale@2@@Z 00407700 f i FileHandler.obj
 0001:00006770       ??_D?$basic_ofstream@DU?$char_traits@D@std@@@std@@QAEXXZ 00407770 f i FileHandler.obj
 0001:00006790       ??1FileHandler@cacti@@UAE@XZ 00407790 f   FileHandler.obj
 0001:00006890       ?doPublish@FileHandler@cacti@@MAEXABULogRecord@2@@Z 00407890 f   FileHandler.obj
 0001:00006930       ??_E?$basic_ofstream@DU?$char_traits@D@std@@@std@@UAEPAXI@Z 00407930 f i FileHandler.obj
 0001:00006930       ??_G?$basic_ofstream@DU?$char_traits@D@std@@@std@@UAEPAXI@Z 00407930 f i FileHandler.obj
 0001:00006970       ?init@?$basic_ios@DU?$char_traits@D@std@@@std@@IAEXPAV?$basic_streambuf@DU?$char_traits@D@std@@@2@_N@Z 00407970 f i FileHandler.obj
 0001:000069d0       ??$?6U?$char_traits@D@std@@@std@@YAAAV?$basic_ostream@DU?$char_traits@D@std@@@0@AAV10@D@Z 004079d0 f i FileHandler.obj
 0001:00006c20       ??$use_facet@V?$num_put@DV?$ostreambuf_iterator@DU?$char_traits@D@std@@@std@@@std@@@std@@YAABV?$num_put@DV?$ostreambuf_iterator@DU?$char_traits@D@std@@@std@@@0@ABVlocale@0@@Z 00407c20 f i FileHandler.obj
 0001:00006d50       ??$use_facet@V?$codecvt@DDH@std@@@std@@YAABV?$codecvt@DDH@0@ABVlocale@0@@Z 00407d50 f i FileHandler.obj
 0001:00006e80       ??$use_facet@V?$numpunct@D@std@@@std@@YAABV?$numpunct@D@0@ABVlocale@0@@Z 00407e80 f i FileHandler.obj
 0001:00006fb0       ??_GFileHandler@cacti@@UAEPAXI@Z 00407fb0 f i FileHandler.obj
 0001:00006fb0       ??_EFileHandler@cacti@@UAEPAXI@Z 00407fb0 f i FileHandler.obj
 0001:00006fd0       ??_EStarFileHandler@cacti@@UAEPAXI@Z 00407fd0 f i FileHandler.obj
 0001:00006fd0       ??_GStarFileHandler@cacti@@UAEPAXI@Z 00407fd0 f i FileHandler.obj
 0001:00007030       ??6?$basic_ostream@DU?$char_traits@D@std@@@std@@QAEAAV01@H@Z 00408030 f i FileHandler.obj
 0001:00007190       ??6?$basic_ostream@DU?$char_traits@D@std@@@std@@QAEAAV01@K@Z 00408190 f i FileHandler.obj
 0001:000072f0       ?imbue@?$basic_filebuf@DU?$char_traits@D@std@@@std@@MAEXABVlocale@2@@Z 004082f0 f i FileHandler.obj
 0001:00007330       ??0?$basic_ostream@DU?$char_traits@D@std@@@std@@QAE@PAV?$basic_streambuf@DU?$char_traits@D@std@@@1@_N@Z 00408330 f i FileHandler.obj
 0001:000073c0       ?open@?$basic_filebuf@DU?$char_traits@D@std@@@std@@QAEPAV12@PBDHH@Z 004083c0 f i FileHandler.obj
 0001:000074e0       ?do_put@?$num_put@DV?$ostreambuf_iterator@DU?$char_traits@D@std@@@std@@@std@@MBE?AV?$ostreambuf_iterator@DU?$char_traits@D@std@@@2@V32@AAVios_base@2@D_N@Z 004084e0 f i FileHandler.obj
 0001:00007730       ?_Fput@?$num_put@DV?$ostreambuf_iterator@DU?$char_traits@D@std@@@std@@@std@@ABA?AV?$ostreambuf_iterator@DU?$char_traits@D@std@@@2@V32@AAVios_base@2@DPBDIIII@Z 00408730 f i FileHandler.obj
 0001:00007e40       ?_Iput@?$num_put@DV?$ostreambuf_iterator@DU?$char_traits@D@std@@@std@@@std@@ABA?AV?$ostreambuf_iterator@DU?$char_traits@D@std@@@2@V32@AAVios_base@2@DPADI@Z 00408e40 f i FileHandler.obj
 0001:000081a0       ??0?$basic_ofstream@DU?$char_traits@D@std@@@std@@QAE@XZ 004091a0 f i FileHandler.obj
 0001:000082a0       ??0?$basic_ostringstream@DU?$char_traits@D@std@@V?$allocator@D@2@@std@@QAE@H@Z 004092a0 f i FileHandler.obj
 0001:00008380       ?do_put@?$num_put@DV?$ostreambuf_iterator@DU?$char_traits@D@std@@@std@@@std@@MBE?AV?$ostreambuf_iterator@DU?$char_traits@D@std@@@2@V32@AAVios_base@2@DJ@Z 00409380 f i FileHandler.obj
 0001:00008420       ?do_put@?$num_put@DV?$ostreambuf_iterator@DU?$char_traits@D@std@@@std@@@std@@MBE?AV?$ostreambuf_iterator@DU?$char_traits@D@std@@@2@V32@AAVios_base@2@DK@Z 00409420 f i FileHandler.obj
 0001:000084c0       ?do_put@?$num_put@DV?$ostreambuf_iterator@DU?$char_traits@D@std@@@std@@@std@@MBE?AV?$ostreambuf_iterator@DU?$char_traits@D@std@@@2@V32@AAVios_base@2@D_J@Z 004094c0 f i FileHandler.obj
 0001:00008560       ?do_put@?$num_put@DV?$ostreambuf_iterator@DU?$char_traits@D@std@@@std@@@std@@MBE?AV?$ostreambuf_iterator@DU?$char_traits@D@std@@@2@V32@AAVios_base@2@D_K@Z 00409560 f i FileHandler.obj
 0001:00008600       ?do_put@?$num_put@DV?$ostreambuf_iterator@DU?$char_traits@D@std@@@std@@@std@@MBE?AV?$ostreambuf_iterator@DU?$char_traits@D@std@@@2@V32@AAVios_base@2@DN@Z 00409600 f i FileHandler.obj
 0001:000087f0       ?do_put@?$num_put@DV?$ostreambuf_iterator@DU?$char_traits@D@std@@@std@@@std@@MBE?AV?$ostreambuf_iterator@DU?$char_traits@D@std@@@2@V32@AAVios_base@2@DO@Z 004097f0 f i FileHandler.obj
 0001:000089e0       ?do_put@?$num_put@DV?$ostreambuf_iterator@DU?$char_traits@D@std@@@std@@@std@@MBE?AV?$ostreambuf_iterator@DU?$char_traits@D@std@@@2@V32@AAVios_base@2@DPBX@Z 004099e0 f i FileHandler.obj
 0001:00008a60       ??0FileHandler@cacti@@QAE@ABV?$basic_string@DU?$char_traits@D@std@@V?$allocator@D@2@@std@@H_N@Z 00409a60 f   FileHandler.obj
 0001:00008b50       ?rolloverFiles@?A0x590bb7cc@cacti@@YAXABV?$basic_string@DU?$char_traits@D@std@@V?$allocator@D@2@@std@@H@Z 00409b50 f   FileHandler.obj
 0001:00008de0       ?rollover@StarFileHandler@cacti@@IAE?AV?$basic_string@DU?$char_traits@D@std@@V?$allocator@D@2@@std@@XZ 00409de0 f   FileHandler.obj
 0001:00009270       ?init@StarFileHandler@cacti@@QAEXXZ 0040a270 f   FileHandler.obj
 0001:000093a0       ?doPublish@StarFileHandler@cacti@@UAEXABULogRecord@2@@Z 0040a3a0 f   FileHandler.obj
 0001:000094d0       ??0StarFileHandler@cacti@@QAE@ABV?$basic_string@DU?$char_traits@D@std@@V?$allocator@D@2@@std@@JH_N@Z 0040a4d0 f   FileHandler.obj
 0001:00009580       ?format@SimpleFormatter@cacti@@UAEXAAV?$basic_ostream@DU?$char_traits@D@std@@@std@@ABULogRecord@2@@Z 0040a580 f   Formatter.obj
 0001:00009630       ?format@StarFormatter@cacti@@UAEXAAV?$basic_ostream@DU?$char_traits@D@std@@@std@@ABULogRecord@2@@Z 0040a630 f   Formatter.obj
 0001:00009830       ??6?$basic_ostream@DU?$char_traits@D@std@@@std@@QAEAAV01@I@Z 0040a830 f i Formatter.obj
 0001:00009990       ??_EStarFormatter@cacti@@UAEPAXI@Z 0040a990 f i Formatter.obj
 0001:00009990       ??_GStarFormatter@cacti@@UAEPAXI@Z 0040a990 f i Formatter.obj
 0001:00009990       ??_ETTICFormatter@cacti@@UAEPAXI@Z 0040a990 f i Formatter.obj
 0001:00009990       ??_GTTICFormatter@cacti@@UAEPAXI@Z 0040a990 f i Formatter.obj
 0001:00009990       ??_GSimpleFormatter@cacti@@UAEPAXI@Z 0040a990 f i ConfigureLoader.obj
 0001:00009990       ??_ESimpleFormatter@cacti@@UAEPAXI@Z 0040a990 f i ConfigureLoader.obj
 0001:00009990       ??_EFormatter@cacti@@UAEPAXI@Z 0040a990 f i ConfigureLoader.obj
 0001:00009990       ??_GFormatter@cacti@@UAEPAXI@Z 0040a990 f i ConfigureLoader.obj
 0001:000099b0       ?format@TTICFormatter@cacti@@UAEXAAV?$basic_ostream@DU?$char_traits@D@std@@@std@@ABULogRecord@2@@Z 0040a9b0 f   Formatter.obj
 0001:00009c00       ?formatTimestamp@TTICFormatter@cacti@@MAEXAAV?$basic_ostream@DU?$char_traits@D@std@@@std@@ABVTimestamp@2@@Z 0040ac00 f   Formatter.obj
 0001:00009d50       ?calculateNextRolloverTime@StarFileHandler@cacti@@IBE?AVTimestamp@2@ABV32@@Z 0040ad50 f   LazyLog.obj
 0001:00009d80       ?print@LazyLog@cacti@@QAAXPBDZZ 0040ad80 f   LazyLog.obj
 0001:00009db0       ??$reset@VStarFileHandler@cacti@@@?$shared_ptr@VLogHandler@cacti@@@boost@@QAEXPAVStarFileHandler@cacti@@@Z 0040adb0 f i LazyLog.obj
 0001:00009e30       ??1LazyLog@cacti@@UAE@XZ   0040ae30 f   LazyLog.obj
 0001:00009ef0       ??_ELazyLog@cacti@@UAEPAXI@Z 0040aef0 f i LazyLog.obj
 0001:00009ef0       ??_GLazyLog@cacti@@UAEPAXI@Z 0040aef0 f i LazyLog.obj
 0001:00009f10       ?getFilename@StarFileHandler@cacti@@IBE?AV?$basic_string@DU?$char_traits@D@std@@V?$allocator@D@2@@std@@ABVTimestamp@2@@Z 0040af10 f   LazyLog.obj
 0001:0000a050       ??0LazyLog@cacti@@QAE@PBD0@Z 0040b050 f   LazyLog.obj
 0001:0000a130       ?open@LazyLog@cacti@@QAEXXZ 0040b130 f   LazyLog.obj
 0001:0000a360       ?getInstance@Logger@cacti@@SAAAV12@ABV?$basic_string@DU?$char_traits@D@std@@V?$allocator@D@2@@std@@@Z 0040b360 f   Logger.obj
 0001:0000a380       ?setAdditivity@Logger@cacti@@QAEX_N@Z 0040b380 f   Logger.obj
 0001:0000a390       ?getParent@Logger@cacti@@QAE?AV?$shared_ptr@VLogger@cacti@@@boost@@XZ 0040b390 f   Logger.obj
 0001:0000a390       ?getParent@Logger@cacti@@QBE?BV?$shared_ptr@VLogger@cacti@@@boost@@XZ 0040b390 f   Logger.obj
 0001:0000a3c0       ?_Buynode@?$list@V?$shared_ptr@VFilter@cacti@@@boost@@V?$allocator@V?$shared_ptr@VFilter@cacti@@@boost@@@std@@@std@@IAEPAU_Node@?$_List_nod@V?$shared_ptr@VFilter@cacti@@@boost@@V?$allocator@V?$shared_ptr@VFilter@cacti@@@boost@@@std@@@2@XZ 0040b3c0 f i LogHandler.obj
 0001:0000a3c0       ?_Buynode@?$list@V?$shared_ptr@VKVNode@cacti@@@boost@@V?$allocator@V?$shared_ptr@VKVNode@cacti@@@boost@@@std@@@std@@IAEPAU_Node@?$_List_nod@V?$shared_ptr@VKVNode@cacti@@@boost@@V?$allocator@V?$shared_ptr@VKVNode@cacti@@@boost@@@std@@@2@XZ 0040b3c0 f i TransferMessage.obj
 0001:0000a3c0       ?_Buynode@?$list@V?$shared_ptr@VLogHandler@cacti@@@boost@@V?$allocator@V?$shared_ptr@VLogHandler@cacti@@@boost@@@std@@@std@@IAEPAU_Node@?$_List_nod@V?$shared_ptr@VLogHandler@cacti@@@boost@@V?$allocator@V?$shared_ptr@VLogHandler@cacti@@@boost@@@std@@@2@XZ 0040b3c0 f i Logger.obj
 0001:0000a3e0       ?reserve@?$basic_string@DU?$char_traits@D@std@@V?$allocator@D@2@@std@@QAEXI@Z 0040b3e0 f i Logger.obj
 0001:0000a430       ?callHandlers@Logger@cacti@@UAEXABULogRecord@2@@Z 0040b430 f   Logger.obj
 0001:0000a560       ??1LogRecord@cacti@@QAE@XZ 0040b560 f i Logger.obj
 0001:0000a5f0       ??$find@V?$_Iterator@$00@?$list@V?$shared_ptr@VLogHandler@cacti@@@boost@@V?$allocator@V?$shared_ptr@VLogHandler@cacti@@@boost@@@std@@@std@@V?$shared_ptr@VLogHandler@cacti@@@boost@@@std@@YA?AV?$_Iterator@$00@?$list@V?$shared_ptr@VLogHandler@cacti@@@boost@@V?$allocator@V?$shared_ptr@VLogHandler@cacti@@@boost@@@std@@@0@V120@0ABV?$shared_ptr@VLogHandler@cacti@@@boost@@@Z 0040b5f0 f i Logger.obj
 0001:0000a630       ??1length_error@std@@UAE@XZ 0040b630 f i ConfigureLoader.obj
 0001:0000a630       ??1invalid_argument@std@@UAE@XZ 0040b630 f i Logger.obj
 0001:0000a630       ??1out_of_range@std@@UAE@XZ 0040b630 f i ConfigureLoader.obj
 0001:0000a670       ??_Elogic_error@std@@UAEPAXI@Z 0040b670 f i ConfigureLoader.obj
 0001:0000a670       ??_Gout_of_range@std@@UAEPAXI@Z 0040b670 f i ConfigureLoader.obj
 0001:0000a670       ??_Glogic_error@std@@UAEPAXI@Z 0040b670 f i ConfigureLoader.obj
 0001:0000a670       ??_Ginvalid_argument@std@@UAEPAXI@Z 0040b670 f i Logger.obj
 0001:0000a670       ??_Glength_error@std@@UAEPAXI@Z 0040b670 f i ConfigureLoader.obj
 0001:0000a670       ??_Elength_error@std@@UAEPAXI@Z 0040b670 f i ConfigureLoader.obj
 0001:0000a670       ??_Einvalid_argument@std@@UAEPAXI@Z 0040b670 f i Logger.obj
 0001:0000a670       ??_Eout_of_range@std@@UAEPAXI@Z 0040b670 f i ConfigureLoader.obj
 0001:0000a6c0       ?getLevel@Logger@cacti@@QBE?AVLogControlID@2@XZ 0040b6c0 f   Logger.obj
 0001:0000a6f0       ?getChainedLevel@Logger@cacti@@QBE?AVLogControlID@2@XZ 0040b6f0 f   Logger.obj
 0001:0000a780       ?isLevelEnabled@Logger@cacti@@QBE_NABVLogControlID@2@@Z 0040b780 f   Logger.obj
 0001:0000a7c0       ?log@Logger@cacti@@QAAXABVLogControlID@2@PBDZZ 0040b7c0 f   Logger.obj
 0001:0000a820       ?log@Logger@cacti@@QAAXABVLogControlID@2@IPBDZZ 0040b820 f   Logger.obj
 0001:0000a880       ?logva@Logger@cacti@@QAEXABVLogControlID@2@PBDPAD@Z 0040b880 f   Logger.obj
 0001:0000a8e0       ?debug@Logger@cacti@@QAAXPBDZZ 0040b8e0 f   Logger.obj
 0001:0000a940       ?info@Logger@cacti@@QAAXPBDZZ 0040b940 f   Logger.obj
 0001:0000a9a0       ?warn@Logger@cacti@@QAAXPBDZZ 0040b9a0 f   Logger.obj
 0001:0000aa00       ?error@Logger@cacti@@QAAXPBDZZ 0040ba00 f   Logger.obj
 0001:0000aa60       ?alert@Logger@cacti@@QAAXPBDZZ 0040ba60 f   Logger.obj
 0001:0000aac0       ?fatal@Logger@cacti@@QAAXPBDZZ 0040bac0 f   Logger.obj
 0001:0000ab20       ?getStream@Logger@cacti@@UAE?AVLoggerStream@2@ABVLogControlID@2@@Z 0040bb20 f   Logger.obj
 0001:0000ab80       ??1?$list@V?$shared_ptr@VLogHandler@cacti@@@boost@@V?$allocator@V?$shared_ptr@VLogHandler@cacti@@@boost@@@std@@@std@@QAE@XZ 0040bb80 f i Logger.obj
 0001:0000ab80       ??1?$list@V?$shared_ptr@VKVNode@cacti@@@boost@@V?$allocator@V?$shared_ptr@VKVNode@cacti@@@boost@@@std@@@std@@QAE@XZ 0040bb80 f i TransferMessage.obj
 0001:0000ab80       ??1?$list@V?$shared_ptr@VFilter@cacti@@@boost@@V?$allocator@V?$shared_ptr@VFilter@cacti@@@boost@@@std@@@std@@QAE@XZ 0040bb80 f i ConsoleHandler.obj
 0001:0000aba0       ?_Incsize@?$list@V?$shared_ptr@VLogHandler@cacti@@@boost@@V?$allocator@V?$shared_ptr@VLogHandler@cacti@@@boost@@@std@@@std@@IAEXI@Z 0040bba0 f i Logger.obj
 0001:0000ac40       ??0Logger@cacti@@IAE@ABV?$basic_string@DU?$char_traits@D@std@@V?$allocator@D@2@@std@@V?$shared_ptr@VLogger@cacti@@@boost@@ABVLogControlID@1@@Z 0040bc40 f   Logger.obj
 0001:0000ad60       ??1Logger@cacti@@UAE@XZ    0040bd60 f   Logger.obj
 0001:0000ae50       ?logUnconditionally@Logger@cacti@@MAEXABVLogControlID@2@PBDPAD@Z 0040be50 f   Logger.obj
 0001:0000af80       ?logUnconditionally@Logger@cacti@@MAEXABVLogControlID@2@IPBDPAD@Z 0040bf80 f   Logger.obj
 0001:0000b0c0       ?logUnconditionallyNoTime@Logger@cacti@@MAEXABVLogControlID@2@PBDPAD@Z 0040c0c0 f   Logger.obj
 0001:0000b200       ??_GLogger@cacti@@UAEPAXI@Z 0040c200 f i Logger.obj
 0001:0000b200       ??_ELogger@cacti@@UAEPAXI@Z 0040c200 f i Logger.obj
 0001:0000b220       ?setLevel@Logger@cacti@@QAEXABVLogControlID@2@@Z 0040c220 f   Logger.obj
 0001:0000b330       ??0invalid_argument@std@@QAE@ABV01@@Z 0040c330 f i Logger.obj
 0001:0000b350       ?addHandler@Logger@cacti@@QAEXV?$shared_ptr@VLogHandler@cacti@@@boost@@@Z 0040c350 f   Logger.obj
 0001:0000b4b0       ??0LoggerStream@cacti@@QAE@AAVLogger@1@ABVLogControlID@1@@Z 0040c4b0 f   LoggerStream.obj
 0001:0000b4d0       ??4?$shared_ptr@VTLV@cacti@@@boost@@QAEAAV01@ABV01@@Z 0040c4d0 f i TransferMessage.obj
 0001:0000b4d0       ??4?$shared_ptr@VService@@@boost@@QAEAAV01@ABV01@@Z 0040c4d0 f i Commander.obj
 0001:0000b4d0       ??4?$shared_ptr@V?$BoundedQueue@V?$shared_ptr@VNetworkPackage@cacti@@@boost@@@cacti@@@boost@@QAEAAV01@ABV01@@Z 0040c4d0 f i ServiceManager.obj
 0001:0000b4d0       ??4?$shared_ptr@VUserTransferMessage@cacti@@@boost@@QAEAAV01@ABV01@@Z 0040c4d0 f i TransferMessage.obj
 0001:0000b4d0       ??4?$shared_ptr@VFormatter@cacti@@@boost@@QAEAAV01@ABV01@@Z 0040c4d0 f i LogHandler.obj
 0001:0000b4d0       ??4?$shared_ptr@VLogger@cacti@@@boost@@QAEAAV01@ABV01@@Z 0040c4d0 f i LogManager.obj
 0001:0000b4d0       ??4?$shared_ptr@VNetworkPackage@cacti@@@boost@@QAEAAV01@ABV01@@Z 0040c4d0 f i ServiceManager.obj
 0001:0000b530       ?setFormatter@LogHandler@cacti@@QAEXV?$shared_ptr@VFormatter@cacti@@@boost@@@Z 0040c530 f   LogHandler.obj
 0001:0000b5c0       ?checkFilter@LogHandler@cacti@@IAE?AW4FilterResult@2@ABULogRecord@2@@Z 0040c5c0 f   LogHandler.obj
 0001:0000b620       ?publish@LogHandler@cacti@@QAEXABULogRecord@2@@Z 0040c620 f   LogHandler.obj
 0001:0000b650       ??0LogHandler@cacti@@QAE@XZ 0040c650 f   LogHandler.obj
 0001:0000b710       ?_Rrotate@?$_Tree@V?$_Tmap_traits@V?$basic_string@DU?$char_traits@D@std@@V?$allocator@D@2@@std@@V?$shared_ptr@VLogger@cacti@@@boost@@U?$less@V?$basic_string@DU?$char_traits@D@std@@V?$allocator@D@2@@std@@@2@V?$allocator@U?$pair@$$CBV?$basic_string@DU?$char_traits@D@std@@V?$allocator@D@2@@std@@V?$shared_ptr@VLogger@cacti@@@boost@@@std@@@2@$0A@@std@@@std@@IAEXPAU_Node@?$_Tree_nod@V?$_Tmap_traits@V?$basic_string@DU?$char_traits@D@std@@V?$allocator@D@2@@std@@V?$shared_ptr@VLogger@cacti@@@boost@@U?$less@V?$basic_string@DU?$char_traits@D@std@@V?$allocator@D@2@@std@@@2@V?$allocator@U?$pair@$$CBV?$basic_string@DU?$char_traits@D@std@@V?$allocator@D@2@@std@@V?$shared_ptr@VLogger@cacti@@@boost@@@std@@@2@$0A@@std@@@2@@Z 0040c710 f i LogManager.obj
 0001:0000b770       ?_Max@?$_Tree@V?$_Tmap_traits@V?$basic_string@DU?$char_traits@D@std@@V?$allocator@D@2@@std@@V?$shared_ptr@VLogger@cacti@@@boost@@U?$less@V?$basic_string@DU?$char_traits@D@std@@V?$allocator@D@2@@std@@@2@V?$allocator@U?$pair@$$CBV?$basic_string@DU?$char_traits@D@std@@V?$allocator@D@2@@std@@V?$shared_ptr@VLogger@cacti@@@boost@@@std@@@2@$0A@@std@@@std@@KAPAU_Node@?$_Tree_nod@V?$_Tmap_traits@V?$basic_string@DU?$char_traits@D@std@@V?$allocator@D@2@@std@@V?$shared_ptr@VLogger@cacti@@@boost@@U?$less@V?$basic_string@DU?$char_traits@D@std@@V?$allocator@D@2@@std@@@2@V?$allocator@U?$pair@$$CBV?$basic_string@DU?$char_traits@D@std@@V?$allocator@D@2@@std@@V?$shared_ptr@VLogger@cacti@@@boost@@@std@@@2@$0A@@std@@@2@PAU342@@Z 0040c770 f i LogManager.obj
 0001:0000b790       ?_Min@?$_Tree@V?$_Tmap_traits@V?$basic_string@DU?$char_traits@D@std@@V?$allocator@D@2@@std@@V?$shared_ptr@VLogger@cacti@@@boost@@U?$less@V?$basic_string@DU?$char_traits@D@std@@V?$allocator@D@2@@std@@@2@V?$allocator@U?$pair@$$CBV?$basic_string@DU?$char_traits@D@std@@V?$allocator@D@2@@std@@V?$shared_ptr@VLogger@cacti@@@boost@@@std@@@2@$0A@@std@@@std@@KAPAU_Node@?$_Tree_nod@V?$_Tmap_traits@V?$basic_string@DU?$char_traits@D@std@@V?$allocator@D@2@@std@@V?$shared_ptr@VLogger@cacti@@@boost@@U?$less@V?$basic_string@DU?$char_traits@D@std@@V?$allocator@D@2@@std@@@2@V?$allocator@U?$pair@$$CBV?$basic_string@DU?$char_traits@D@std@@V?$allocator@D@2@@std@@V?$shared_ptr@VLogger@cacti@@@boost@@@std@@@2@$0A@@std@@@2@PAU342@@Z 0040c790 f i LogManager.obj
 0001:0000b7b0       ?_Dec@const_iterator@?$_Tree@V?$_Tmap_traits@V?$basic_string@DU?$char_traits@D@std@@V?$allocator@D@2@@std@@V?$shared_ptr@VLogger@cacti@@@boost@@U?$less@V?$basic_string@DU?$char_traits@D@std@@V?$allocator@D@2@@std@@@2@V?$allocator@U?$pair@$$CBV?$basic_string@DU?$char_traits@D@std@@V?$allocator@D@2@@std@@V?$shared_ptr@VLogger@cacti@@@boost@@@std@@@2@$0A@@std@@@std@@QAEXXZ 0040c7b0 f i LogManager.obj
 0001:0000b840       ?_Inc@const_iterator@?$_Tree@V?$_Tmap_traits@V?$basic_string@DU?$char_traits@D@std@@V?$allocator@D@2@@std@@V?$shared_ptr@VLogger@cacti@@@boost@@U?$less@V?$basic_string@DU?$char_traits@D@std@@V?$allocator@D@2@@std@@@2@V?$allocator@U?$pair@$$CBV?$basic_string@DU?$char_traits@D@std@@V?$allocator@D@2@@std@@V?$shared_ptr@VLogger@cacti@@@boost@@@std@@@2@$0A@@std@@@std@@QAEXXZ 0040c840 f i LogManager.obj
 0001:0000b8b0       ?rfind@?$basic_string@DU?$char_traits@D@std@@V?$allocator@D@2@@std@@QBEIPBDII@Z 0040c8b0 f i LogManager.obj
 0001:0000b960       ?_Lrotate@?$_Tree@V?$_Tmap_traits@V?$basic_string@DU?$char_traits@D@std@@V?$allocator@D@2@@std@@V?$shared_ptr@VLogger@cacti@@@boost@@U?$less@V?$basic_string@DU?$char_traits@D@std@@V?$allocator@D@2@@std@@@2@V?$allocator@U?$pair@$$CBV?$basic_string@DU?$char_traits@D@std@@V?$allocator@D@2@@std@@V?$shared_ptr@VLogger@cacti@@@boost@@@std@@@2@$0A@@std@@@std@@IAEXPAU_Node@?$_Tree_nod@V?$_Tmap_traits@V?$basic_string@DU?$char_traits@D@std@@V?$allocator@D@2@@std@@V?$shared_ptr@VLogger@cacti@@@boost@@U?$less@V?$basic_string@DU?$char_traits@D@std@@V?$allocator@D@2@@std@@@2@V?$allocator@U?$pair@$$CBV?$basic_string@DU?$char_traits@D@std@@V?$allocator@D@2@@std@@V?$shared_ptr@VLogger@cacti@@@boost@@@std@@@2@$0A@@std@@@2@@Z 0040c960 f i LogManager.obj
 0001:0000b9b0       ??$?0VLogger@cacti@@@shared_count@detail@boost@@QAE@PAVLogger@cacti@@@Z 0040c9b0 f i LogManager.obj
 0001:0000ba40       ?getInstance@LogManager@cacti@@UAEAAVLogger@2@ABV?$basic_string@DU?$char_traits@D@std@@V?$allocator@D@2@@std@@@Z 0040ca40 f   LogManager.obj
 0001:0000baf0       ?_Buynode@?$_Tree@V?$_Tmap_traits@V?$basic_string@DU?$char_traits@D@std@@V?$allocator@D@2@@std@@V?$shared_ptr@VLogger@cacti@@@boost@@U?$less@V?$basic_string@DU?$char_traits@D@std@@V?$allocator@D@2@@std@@@2@V?$allocator@U?$pair@$$CBV?$basic_string@DU?$char_traits@D@std@@V?$allocator@D@2@@std@@V?$shared_ptr@VLogger@cacti@@@boost@@@std@@@2@$0A@@std@@@std@@IAEPAU_Node@?$_Tree_nod@V?$_Tmap_traits@V?$basic_string@DU?$char_traits@D@std@@V?$allocator@D@2@@std@@V?$shared_ptr@VLogger@cacti@@@boost@@U?$less@V?$basic_string@DU?$char_traits@D@std@@V?$allocator@D@2@@std@@@2@V?$allocator@U?$pair@$$CBV?$basic_string@DU?$char_traits@D@std@@V?$allocator@D@2@@std@@V?$shared_ptr@VLogger@cacti@@@boost@@@std@@@2@$0A@@std@@@2@XZ 0040caf0 f i LogManager.obj
 0001:0000bb30       ??1?$pair@$$CBV?$basic_string@DU?$char_traits@D@std@@V?$allocator@D@2@@std@@V?$shared_ptr@VLogger@cacti@@@boost@@@std@@QAE@XZ 0040cb30 f i LogManager.obj
 0001:0000bbd0       ?_Lbound@?$_Tree@V?$_Tmap_traits@V?$basic_string@DU?$char_traits@D@std@@V?$allocator@D@2@@std@@V?$shared_ptr@VLogger@cacti@@@boost@@U?$less@V?$basic_string@DU?$char_traits@D@std@@V?$allocator@D@2@@std@@@2@V?$allocator@U?$pair@$$CBV?$basic_string@DU?$char_traits@D@std@@V?$allocator@D@2@@std@@V?$shared_ptr@VLogger@cacti@@@boost@@@std@@@2@$0A@@std@@@std@@IBEPAU_Node@?$_Tree_nod@V?$_Tmap_traits@V?$basic_string@DU?$char_traits@D@std@@V?$allocator@D@2@@std@@V?$shared_ptr@VLogger@cacti@@@boost@@U?$less@V?$basic_string@DU?$char_traits@D@std@@V?$allocator@D@2@@std@@@2@V?$allocator@U?$pair@$$CBV?$basic_string@DU?$char_traits@D@std@@V?$allocator@D@2@@std@@V?$shared_ptr@VLogger@cacti@@@boost@@@std@@@2@$0A@@std@@@2@ABV?$basic_string@DU?$char_traits@D@std@@V?$allocator@D@2@@2@@Z 0040cbd0 f i LogManager.obj
 0001:0000bc60       ??$reset@VLogger@cacti@@@?$shared_ptr@VLogger@cacti@@@boost@@QAEXPAVLogger@cacti@@@Z 0040cc60 f i LogManager.obj
 0001:0000bce0       ?find@?$_Tree@V?$_Tmap_traits@V?$basic_string@DU?$char_traits@D@std@@V?$allocator@D@2@@std@@V?$shared_ptr@VLogger@cacti@@@boost@@U?$less@V?$basic_string@DU?$char_traits@D@std@@V?$allocator@D@2@@std@@@2@V?$allocator@U?$pair@$$CBV?$basic_string@DU?$char_traits@D@std@@V?$allocator@D@2@@std@@V?$shared_ptr@VLogger@cacti@@@boost@@@std@@@2@$0A@@std@@@std@@QAE?AViterator@12@ABV?$basic_string@DU?$char_traits@D@std@@V?$allocator@D@2@@2@@Z 0040cce0 f i LogManager.obj
 0001:0000bd60       ?innerGetExistingInstance@LogManager@cacti@@MAE?AV?$shared_ptr@VLogger@cacti@@@boost@@ABV?$basic_string@DU?$char_traits@D@std@@V?$allocator@D@2@@std@@@Z 0040cd60 f   LogManager.obj
 0001:0000be10       ?substr@?$basic_string@DU?$char_traits@D@std@@V?$allocator@D@2@@std@@QBE?AV12@II@Z 0040ce10 f i LogManager.obj
 0001:0000be50       ??0_Node@?$_Tree_nod@V?$_Tmap_traits@V?$basic_string@DU?$char_traits@D@std@@V?$allocator@D@2@@std@@V?$shared_ptr@VLogger@cacti@@@boost@@U?$less@V?$basic_string@DU?$char_traits@D@std@@V?$allocator@D@2@@std@@@2@V?$allocator@U?$pair@$$CBV?$basic_string@DU?$char_traits@D@std@@V?$allocator@D@2@@std@@V?$shared_ptr@VLogger@cacti@@@boost@@@std@@@2@$0A@@std@@@std@@QAE@PAU012@00ABU?$pair@$$CBV?$basic_string@DU?$char_traits@D@std@@V?$allocator@D@2@@std@@V?$shared_ptr@VLogger@cacti@@@boost@@@2@D@Z 0040ce50 f i LogManager.obj
 0001:0000bec0       ?erase@?$_Tree@V?$_Tmap_traits@V?$basic_string@DU?$char_traits@D@std@@V?$allocator@D@2@@std@@V?$shared_ptr@VLogger@cacti@@@boost@@U?$less@V?$basic_string@DU?$char_traits@D@std@@V?$allocator@D@2@@std@@@2@V?$allocator@U?$pair@$$CBV?$basic_string@DU?$char_traits@D@std@@V?$allocator@D@2@@std@@V?$shared_ptr@VLogger@cacti@@@boost@@@std@@@2@$0A@@std@@@std@@QAE?AViterator@12@V312@@Z 0040cec0 f i LogManager.obj
 0001:0000c190       ?_Buynode@?$_Tree@V?$_Tmap_traits@V?$basic_string@DU?$char_traits@D@std@@V?$allocator@D@2@@std@@V?$shared_ptr@VLogger@cacti@@@boost@@U?$less@V?$basic_string@DU?$char_traits@D@std@@V?$allocator@D@2@@std@@@2@V?$allocator@U?$pair@$$CBV?$basic_string@DU?$char_traits@D@std@@V?$allocator@D@2@@std@@V?$shared_ptr@VLogger@cacti@@@boost@@@std@@@2@$0A@@std@@@std@@IAEPAU_Node@?$_Tree_nod@V?$_Tmap_traits@V?$basic_string@DU?$char_traits@D@std@@V?$allocator@D@2@@std@@V?$shared_ptr@VLogger@cacti@@@boost@@U?$less@V?$basic_string@DU?$char_traits@D@std@@V?$allocator@D@2@@std@@@2@V?$allocator@U?$pair@$$CBV?$basic_string@DU?$char_traits@D@std@@V?$allocator@D@2@@std@@V?$shared_ptr@VLogger@cacti@@@boost@@@std@@@2@$0A@@std@@@2@PAU342@00ABU?$pair@$$CBV?$basic_string@DU?$char_traits@D@std@@V?$allocator@D@2@@std@@V?$shared_ptr@VLogger@cacti@@@boost@@@2@D@Z 0040d190 f i LogManager.obj
 0001:0000c230       ?_Erase@?$_Tree@V?$_Tmap_traits@V?$basic_string@DU?$char_traits@D@std@@V?$allocator@D@2@@std@@V?$shared_ptr@VLogger@cacti@@@boost@@U?$less@V?$basic_string@DU?$char_traits@D@std@@V?$allocator@D@2@@std@@@2@V?$allocator@U?$pair@$$CBV?$basic_string@DU?$char_traits@D@std@@V?$allocator@D@2@@std@@V?$shared_ptr@VLogger@cacti@@@boost@@@std@@@2@$0A@@std@@@std@@IAEXPAU_Node@?$_Tree_nod@V?$_Tmap_traits@V?$basic_string@DU?$char_traits@D@std@@V?$allocator@D@2@@std@@V?$shared_ptr@VLogger@cacti@@@boost@@U?$less@V?$basic_string@DU?$char_traits@D@std@@V?$allocator@D@2@@std@@@2@V?$allocator@U?$pair@$$CBV?$basic_string@DU?$char_traits@D@std@@V?$allocator@D@2@@std@@V?$shared_ptr@VLogger@cacti@@@boost@@@std@@@2@$0A@@std@@@2@@Z 0040d230 f i LogManager.obj
 0001:0000c270       ?_Insert@?$_Tree@V?$_Tmap_traits@V?$basic_string@DU?$char_traits@D@std@@V?$allocator@D@2@@std@@V?$shared_ptr@VLogger@cacti@@@boost@@U?$less@V?$basic_string@DU?$char_traits@D@std@@V?$allocator@D@2@@std@@@2@V?$allocator@U?$pair@$$CBV?$basic_string@DU?$char_traits@D@std@@V?$allocator@D@2@@std@@V?$shared_ptr@VLogger@cacti@@@boost@@@std@@@2@$0A@@std@@@std@@IAE?AViterator@12@_NPAU_Node@?$_Tree_nod@V?$_Tmap_traits@V?$basic_string@DU?$char_traits@D@std@@V?$allocator@D@2@@std@@V?$shared_ptr@VLogger@cacti@@@boost@@U?$less@V?$basic_string@DU?$char_traits@D@std@@V?$allocator@D@2@@std@@@2@V?$allocator@U?$pair@$$CBV?$basic_string@DU?$char_traits@D@std@@V?$allocator@D@2@@std@@V?$shared_ptr@VLogger@cacti@@@boost@@@std@@@2@$0A@@std@@@2@ABU?$pair@$$CBV?$basic_string@DU?$char_traits@D@std@@V?$allocator@D@2@@std@@V?$shared_ptr@VLogger@cacti@@@boost@@@2@@Z 0040d270 f i LogManager.obj
 0001:0000c470       ?insert@?$_Tree@V?$_Tmap_traits@V?$basic_string@DU?$char_traits@D@std@@V?$allocator@D@2@@std@@V?$shared_ptr@VLogger@cacti@@@boost@@U?$less@V?$basic_string@DU?$char_traits@D@std@@V?$allocator@D@2@@std@@@2@V?$allocator@U?$pair@$$CBV?$basic_string@DU?$char_traits@D@std@@V?$allocator@D@2@@std@@V?$shared_ptr@VLogger@cacti@@@boost@@@std@@@2@$0A@@std@@@std@@QAE?AU?$pair@Viterator@?$_Tree@V?$_Tmap_traits@V?$basic_string@DU?$char_traits@D@std@@V?$allocator@D@2@@std@@V?$shared_ptr@VLogger@cacti@@@boost@@U?$less@V?$basic_string@DU?$char_traits@D@std@@V?$allocator@D@2@@std@@@2@V?$allocator@U?$pair@$$CBV?$basic_string@DU?$char_traits@D@std@@V?$allocator@D@2@@std@@V?$shared_ptr@VLogger@cacti@@@boost@@@std@@@2@$0A@@std@@@std@@_N@2@ABU?$pair@$$CBV?$basic_string@DU?$char_traits@D@std@@V?$allocator@D@2@@std@@V?$shared_ptr@VLogger@cacti@@@boost@@@2@@Z 0040d470 f i LogManager.obj
 0001:0000c5a0       ?erase@?$_Tree@V?$_Tmap_traits@V?$basic_string@DU?$char_traits@D@std@@V?$allocator@D@2@@std@@V?$shared_ptr@VLogger@cacti@@@boost@@U?$less@V?$basic_string@DU?$char_traits@D@std@@V?$allocator@D@2@@std@@@2@V?$allocator@U?$pair@$$CBV?$basic_string@DU?$char_traits@D@std@@V?$allocator@D@2@@std@@V?$shared_ptr@VLogger@cacti@@@boost@@@std@@@2@$0A@@std@@@std@@QAE?AViterator@12@V312@0@Z 0040d5a0 f i LogManager.obj
 0001:0000c670       ?insert@?$_Tree@V?$_Tmap_traits@V?$basic_string@DU?$char_traits@D@std@@V?$allocator@D@2@@std@@V?$shared_ptr@VLogger@cacti@@@boost@@U?$less@V?$basic_string@DU?$char_traits@D@std@@V?$allocator@D@2@@std@@@2@V?$allocator@U?$pair@$$CBV?$basic_string@DU?$char_traits@D@std@@V?$allocator@D@2@@std@@V?$shared_ptr@VLogger@cacti@@@boost@@@std@@@2@$0A@@std@@@std@@QAE?AViterator@12@V312@ABU?$pair@$$CBV?$basic_string@DU?$char_traits@D@std@@V?$allocator@D@2@@std@@V?$shared_ptr@VLogger@cacti@@@boost@@@2@@Z 0040d670 f i LogManager.obj
 0001:0000c870       ??A?$map@V?$basic_string@DU?$char_traits@D@std@@V?$allocator@D@2@@std@@V?$shared_ptr@VLogger@cacti@@@boost@@U?$less@V?$basic_string@DU?$char_traits@D@std@@V?$allocator@D@2@@std@@@2@V?$allocator@U?$pair@$$CBV?$basic_string@DU?$char_traits@D@std@@V?$allocator@D@2@@std@@V?$shared_ptr@VLogger@cacti@@@boost@@@std@@@2@@std@@QAEAAV?$shared_ptr@VLogger@cacti@@@boost@@ABV?$basic_string@DU?$char_traits@D@std@@V?$allocator@D@2@@1@@Z 0040d870 f i LogManager.obj
 0001:0000c960       ??1?$map@V?$basic_string@DU?$char_traits@D@std@@V?$allocator@D@2@@std@@V?$shared_ptr@VLogger@cacti@@@boost@@U?$less@V?$basic_string@DU?$char_traits@D@std@@V?$allocator@D@2@@std@@@2@V?$allocator@U?$pair@$$CBV?$basic_string@DU?$char_traits@D@std@@V?$allocator@D@2@@std@@V?$shared_ptr@VLogger@cacti@@@boost@@@std@@@2@@std@@QAE@XZ 0040d960 f i LogManager.obj
 0001:0000c9a0       ??1LogManager@cacti@@EAE@XZ 0040d9a0 f   LogManager.obj
 0001:0000ca30       ?innerGetInstance@LogManager@cacti@@MAE?AV?$shared_ptr@VLogger@cacti@@@boost@@ABV?$basic_string@DU?$char_traits@D@std@@V?$allocator@D@2@@std@@@Z 0040da30 f   LogManager.obj
 0001:0000ccf0       ??0LogManager@cacti@@AAE@XZ 0040dcf0 f   LogManager.obj
 0001:0000cd70       ??_ELogManager@cacti@@EAEPAXI@Z 0040dd70 f i LogManager.obj
 0001:0000cd70       ??_GLogManager@cacti@@EAEPAXI@Z 0040dd70 f i LogManager.obj
 0001:0000cd90       ?getDefaultManager@LogManager@cacti@@SAAAV12@XZ 0040dd90 f   LogManager.obj
 0001:0000ce30       ?makeThreadName@?A0xdc42e1c0@@YA?AV?$basic_string@DU?$char_traits@D@std@@V?$allocator@D@2@@std@@XZ 0040de30 f   LogRecord.obj
 0001:0000ceb0       ??0LogRecord@cacti@@QAE@ABV?$basic_string@DU?$char_traits@D@std@@V?$allocator@D@2@@std@@PBDPADABVLogControlID@1@_NIABVTimestamp@1@@Z 0040deb0 f   LogRecord.obj
 0001:0000cf90       ??0LogRecord@cacti@@QAE@ABV?$basic_string@DU?$char_traits@D@std@@V?$allocator@D@2@@std@@0ABVLogControlID@1@_NIABVTimestamp@1@@Z 0040df90 f   LogRecord.obj
 0001:0000d070       ?reset@Stream@cacti@@QAEXH@Z 0040e070 f   Stream.obj
 0001:0000d0b0       ?getWriteBuffer@Stream@cacti@@QAEPADI@Z 0040e0b0 f   Stream.obj
 0001:0000d0e0       ??G?$_Vector_iterator@DV?$allocator@D@std@@@std@@QBEHABV?$_Vector_const_iterator@DV?$allocator@D@std@@@1@@Z 0040e0e0 f i Stream.obj
 0001:0000d110       ?get32@Stream@cacti@@QAE_NAAK@Z 0040e110 f   Stream.obj
 0001:0000d1e0       ?get16@Stream@cacti@@QAE_NAAG@Z 0040e1e0 f   Stream.obj
 0001:0000d260       ?getStream@Stream@cacti@@QAE_NPAEI@Z 0040e260 f   Stream.obj
 0001:0000d2c0       ??$unchecked_copy@PBEPAD@stdext@@YAPADPBE0PAD@Z 0040e2c0 f i Stream.obj
 0001:0000d2f0       ??$_Uninit_copy@PBEPADV?$allocator@D@std@@@std@@YAPADPBE0PADAAV?$allocator@D@0@U_Nonscalar_ptr_iterator_tag@0@U_Range_checked_iterator_tag@0@@Z 0040e2f0 f i Stream.obj
 0001:0000d320       ?end@?$vector@DV?$allocator@D@std@@@std@@QAE?AV?$_Vector_iterator@DV?$allocator@D@std@@@2@XZ 0040e320 f i Stream.obj
 0001:0000d350       ??$_Ucopy@PBE@?$vector@DV?$allocator@D@std@@@std@@IAEPADPBE0PAD@Z 0040e350 f i Stream.obj
 0001:0000d380       ?_Xlen@?$vector@DV?$allocator@D@std@@@std@@KAXXZ 0040e380 f i Stream.obj
 0001:0000d400       ?_Insert_n@?$vector@DV?$allocator@D@std@@@std@@IAEXV?$_Vector_iterator@DV?$allocator@D@std@@@2@IABD@Z 0040e400 f i Stream.obj
 0001:0000d5b0       ??$_Insert@PBE@?$vector@DV?$allocator@D@std@@@std@@QAEXV?$_Vector_iterator@DV?$allocator@D@std@@@1@PBE1Uforward_iterator_tag@1@@Z 0040e5b0 f i Stream.obj
 0001:0000d810       ?insert@?$vector@DV?$allocator@D@std@@@std@@QAE?AV?$_Vector_iterator@DV?$allocator@D@std@@@2@V32@ABD@Z 0040e810 f i Stream.obj
 0001:0000d8a0       ?putStream@Stream@cacti@@QAEXPBEH@Z 0040e8a0 f   Stream.obj
 0001:0000d8e0       ?push_back@?$vector@DV?$allocator@D@std@@@std@@QAEXABD@Z 0040e8e0 f i Stream.obj
 0001:0000d950       ??0Stream@cacti@@QAE@XZ    0040e950 f   Stream.obj
 0001:0000d970       ?put32@Stream@cacti@@QAEXK@Z 0040e970 f   Stream.obj
 0001:0000d9d0       ?put16@Stream@cacti@@QAEXG@Z 0040e9d0 f   Stream.obj
 0001:0000da00       ??0TLV@cacti@@QAE@XZ       0040ea00 f   TLV.obj
 0001:0000da20       ??1TLV@cacti@@UAE@XZ       0040ea20 f   TLV.obj
 0001:0000da40       ?getType@TLV@cacti@@QBEKXZ 0040ea40 f   TLV.obj
 0001:0000da40       ?getReturn@UserTransferMessage@cacti@@QBEKXZ 0040ea40 f   TransferMessage.obj
 0001:0000da50       ?encode@TLV@cacti@@QAEXAAVStream@2@@Z 0040ea50 f   TLV.obj
 0001:0000da90       ??BTLV@cacti@@QBEKXZ       0040ea90 f   TLV.obj
 0001:0000dac0       ??4TLV@cacti@@QAEAAV01@K@Z 0040eac0 f   TLV.obj
 0001:0000db10       ??4TLV@cacti@@QAEAAV01@PBD@Z 0040eb10 f   TLV.obj
 0001:0000db70       ?size@?$vector@UServiceIdentifier@cacti@@V?$allocator@UServiceIdentifier@cacti@@@std@@@std@@QBEIXZ 0040eb70 f i TLV.obj
 0001:0000db90       ?size@?$vector@V?$basic_string@DU?$char_traits@D@std@@V?$allocator@D@2@@std@@V?$allocator@V?$basic_string@DU?$char_traits@D@std@@V?$allocator@D@2@@std@@@2@@std@@QBEIXZ 0040eb90 f i TLV.obj
 0001:0000dbc0       ??A?$vector@V?$basic_string@DU?$char_traits@D@std@@V?$allocator@D@2@@std@@V?$allocator@V?$basic_string@DU?$char_traits@D@std@@V?$allocator@D@2@@std@@@2@@std@@QAEAAV?$basic_string@DU?$char_traits@D@std@@V?$allocator@D@2@@1@I@Z 0040ebc0 f i TLV.obj
 0001:0000dc10       ?size@?$vector@KV?$allocator@K@std@@@std@@QBEIXZ 0040ec10 f i TLV.obj
 0001:0000dc30       ??$_Allocate@UServiceIdentifier@cacti@@@std@@YAPAUServiceIdentifier@cacti@@IPAU12@@Z 0040ec30 f i TLV.obj
 0001:0000dc90       ??$_Allocate@V?$basic_string@DU?$char_traits@D@std@@V?$allocator@D@2@@std@@@std@@YAPAV?$basic_string@DU?$char_traits@D@std@@V?$allocator@D@2@@0@IPAV10@@Z 0040ec90 f i TLV.obj
 0001:0000dd00       ??$_Allocate@PAUTimerList@cacti@@@std@@YAPAPAUTimerList@cacti@@IPAPAU12@@Z 0040ed00 f i Timer.obj
 0001:0000dd00       ??$_Allocate@PAVTDBProcess@@@std@@YAPAPAVTDBProcess@@IPAPAV1@@Z 0040ed00 f i dagwservice.obj
 0001:0000dd00       ??$_Allocate@K@std@@YAPAKIPAK@Z 0040ed00 f i TLV.obj
 0001:0000dd60       ??_ETLV@cacti@@UAEPAXI@Z   0040ed60 f i TLV.obj
 0001:0000dd60       ??_GTLV@cacti@@UAEPAXI@Z   0040ed60 f i TLV.obj
 0001:0000dd90       ??4TLV@cacti@@QAEAAV01@ABV01@@Z 0040ed90 f   TLV.obj
 0001:0000ddf0       ??4TLV@cacti@@QAEAAV01@ABV?$vector@EV?$allocator@E@std@@@std@@@Z 0040edf0 f   TLV.obj
 0001:0000de80       ??4TLV@cacti@@QAEAAV01@ABV?$vector@KV?$allocator@K@std@@@std@@@Z 0040ee80 f   TLV.obj
 0001:0000df50       ??$_Copy_backward_opt@PAUServiceIdentifier@cacti@@PAU12@@std@@YAPAUServiceIdentifier@cacti@@PAU12@00Urandom_access_iterator_tag@0@U_Nonscalar_ptr_iterator_tag@0@U_Range_checked_iterator_tag@0@@Z 0040ef50 f i TLV.obj
 0001:0000dfb0       ??$_Uninit_copy@PAUServiceIdentifier@cacti@@PAU12@V?$allocator@UServiceIdentifier@cacti@@@std@@@std@@YAPAUServiceIdentifier@cacti@@PAU12@00AAV?$allocator@UServiceIdentifier@cacti@@@0@U_Nonscalar_ptr_iterator_tag@0@U_Range_checked_iterator_tag@0@@Z 0040efb0 f i TLV.obj
 0001:0000dff0       ??0TLV@cacti@@QAE@ABV01@@Z 0040eff0 f   TLV.obj
 0001:0000e010       ?decode@TLV@cacti@@SAPAV12@AAVStream@2@@Z 0040f010 f   TLV.obj
 0001:0000e110       ??4TLV@cacti@@QAEAAV01@ABV?$basic_string@DU?$char_traits@D@std@@V?$allocator@D@2@@std@@@Z 0040f110 f   TLV.obj
 0001:0000e170       ??4TLV@cacti@@QAEAAV01@ABV?$vector@V?$basic_string@DU?$char_traits@D@std@@V?$allocator@D@2@@std@@V?$allocator@V?$basic_string@DU?$char_traits@D@std@@V?$allocator@D@2@@std@@@2@@std@@@Z 0040f170 f   TLV.obj
 0001:0000e3e0       ??$fill@PAUServiceIdentifier@cacti@@U12@@std@@YAXPAUServiceIdentifier@cacti@@0ABU12@@Z 0040f3e0 f i TLV.obj
 0001:0000e410       ??$unchecked_copy@PAKPAK@stdext@@YAPAKPAK00@Z 0040f410 f i TLV.obj
 0001:0000e450       ??$fill@PADD@std@@YAXPAD0ABD@Z 0040f450 f i Stream.obj
 0001:0000e450       ??$fill@PAEE@std@@YAXPAE0ABE@Z 0040f450 f i TLV.obj
 0001:0000e470       ??$_Unchecked_move_backward@PADPAD@stdext@@YAPADPAD00@Z 0040f470 f i Stream.obj
 0001:0000e470       ??$_Unchecked_move_backward@PAEPAE@stdext@@YAPAEPAE00@Z 0040f470 f i TLV.obj
 0001:0000e4a0       ??$_Copy_opt@PAEV?$_Vector_iterator@EV?$allocator@E@std@@@std@@Urandom_access_iterator_tag@2@@std@@YA?AV?$_Vector_iterator@EV?$allocator@E@std@@@0@PAE0V10@Urandom_access_iterator_tag@0@U_Scalar_ptr_iterator_tag@0@U_Range_checked_iterator_tag@0@@Z 0040f4a0 f i TLV.obj
 0001:0000e510       ??$_Uninit_fill_n@PAUServiceIdentifier@cacti@@IU12@V?$allocator@UServiceIdentifier@cacti@@@std@@@std@@YAXPAUServiceIdentifier@cacti@@IABU12@AAV?$allocator@UServiceIdentifier@cacti@@@0@U_Nonscalar_ptr_iterator_tag@0@U_Range_checked_iterator_tag@0@@Z 0040f510 f i TLV.obj
 0001:0000e550       ?erase@?$vector@PAUTimerList@cacti@@V?$allocator@PAUTimerList@cacti@@@std@@@std@@QAE?AV?$_Vector_iterator@PAUTimerList@cacti@@V?$allocator@PAUTimerList@cacti@@@std@@@2@V32@0@Z 0040f550 f i Timer.obj
 0001:0000e550       ?erase@?$vector@KV?$allocator@K@std@@@std@@QAE?AV?$_Vector_iterator@KV?$allocator@K@std@@@2@V32@0@Z 0040f550 f i TLV.obj
 0001:0000e5b0       ?erase@?$vector@EV?$allocator@E@std@@@std@@QAE?AV?$_Vector_iterator@EV?$allocator@E@std@@@2@V32@0@Z 0040f5b0 f i TLV.obj
 0001:0000e5b0       ?erase@?$vector@DV?$allocator@D@std@@@std@@QAE?AV?$_Vector_iterator@DV?$allocator@D@std@@@2@V32@0@Z 0040f5b0 f i Stream.obj
 0001:0000e600       ??$_Unchecked_move_backward@PAUServiceIdentifier@cacti@@PAU12@@stdext@@YAPAUServiceIdentifier@cacti@@PAU12@00@Z 0040f600 f i TLV.obj
 0001:0000e630       ?end@?$basic_string@DU?$char_traits@D@std@@V?$allocator@D@2@@std@@QAE?AV?$_String_iterator@DU?$char_traits@D@std@@V?$allocator@D@2@@2@XZ 0040f630 f i TLV.obj
 0001:0000e660       ?replace@?$basic_string@DU?$char_traits@D@std@@V?$allocator@D@2@@std@@QAEAAV12@IIABV12@II@Z 0040f660 f i TLV.obj
 0001:0000ea10       ??1?$vector@EV?$allocator@E@std@@@std@@QAE@XZ 0040fa10 f i TLV.obj
 0001:0000ea10       ??1?$vector@UServiceIdentifier@cacti@@V?$allocator@UServiceIdentifier@cacti@@@std@@@std@@QAE@XZ 0040fa10 f i TLV.obj
 0001:0000ea10       ??1?$vector@DV?$allocator@D@std@@@std@@QAE@XZ 0040fa10 f i Stream.obj
 0001:0000ea10       ??1?$vector@PAVOracleBindParam@@V?$allocator@PAVOracleBindParam@@@std@@@std@@QAE@XZ 0040fa10 f i oraclequery.obj
 0001:0000ea10       ??1?$vector@PAUTimerList@cacti@@V?$allocator@PAUTimerList@cacti@@@std@@@std@@QAE@XZ 0040fa10 f i Timer.obj
 0001:0000ea10       ??1Stream@cacti@@QAE@XZ    0040fa10 f i TransferClient.obj
 0001:0000ea10       ??1?$vector@KV?$allocator@K@std@@@std@@QAE@XZ 0040fa10 f i TLV.obj
 0001:0000ea40       ?_Ufill@?$vector@UServiceIdentifier@cacti@@V?$allocator@UServiceIdentifier@cacti@@@std@@@std@@IAEPAUServiceIdentifier@cacti@@PAU34@IABU34@@Z 0040fa40 f i TLV.obj
 0001:0000ea80       ??$_Umove@PAPAUTimerList@cacti@@@?$vector@PAUTimerList@cacti@@V?$allocator@PAUTimerList@cacti@@@std@@@std@@IAEPAPAUTimerList@cacti@@PAPAU23@00@Z 0040fa80 f i Timer.obj
 0001:0000ea80       ??$_Ucopy@PAK@?$vector@KV?$allocator@K@std@@@std@@IAEPAKPAK00@Z 0040fa80 f i PeersManager.obj
 0001:0000ea80       ??$_Umove@PAK@?$vector@KV?$allocator@K@std@@@std@@IAEPAKPAK00@Z 0040fa80 f i TLV.obj
 0001:0000ea80       ??$_Umove@PAPAVTDBProcess@@@?$vector@PAVTDBProcess@@V?$allocator@PAVTDBProcess@@@std@@@std@@IAEPAPAVTDBProcess@@PAPAV2@00@Z 0040fa80 f i dagwservice.obj
 0001:0000eab0       ??$_Umove@PAD@?$vector@DV?$allocator@D@std@@@std@@IAEPADPAD00@Z 0040fab0 f i Stream.obj
 0001:0000eab0       ??$_Umove@PAE@?$vector@EV?$allocator@E@std@@@std@@IAEPAEPAE00@Z 0040fab0 f i TLV.obj
 0001:0000eae0       ??$_Construct@PAE@?$basic_string@DU?$char_traits@D@std@@V?$allocator@D@2@@std@@QAEXPAE0Uforward_iterator_tag@1@@Z 0040fae0 f i TLV.obj
 0001:0000ebb0       ?_Ufill@?$vector@DV?$allocator@D@std@@@std@@IAEPADPADIABD@Z 0040fbb0 f i Stream.obj
 0001:0000ebb0       ?_Ufill@?$vector@EV?$allocator@E@std@@@std@@IAEPAEPAEIABE@Z 0040fbb0 f i TLV.obj
 0001:0000ebe0       ??$_Umove@PAUServiceIdentifier@cacti@@@?$vector@UServiceIdentifier@cacti@@V?$allocator@UServiceIdentifier@cacti@@@std@@@std@@IAEPAUServiceIdentifier@cacti@@PAU23@00@Z 0040fbe0 f i TLV.obj
 0001:0000ec10       ?destroy@?$allocator@V?$basic_string@DU?$char_traits@D@std@@V?$allocator@D@2@@std@@@std@@QAEXPAV?$basic_string@DU?$char_traits@D@std@@V?$allocator@D@2@@2@@Z 0040fc10 f i TLV.obj
 0001:0000ec40       ??$_Copy_opt@PAV?$basic_string@DU?$char_traits@D@std@@V?$allocator@D@2@@std@@PAV12@Uforward_iterator_tag@2@@std@@YAPAV?$basic_string@DU?$char_traits@D@std@@V?$allocator@D@2@@0@PAV10@00Uforward_iterator_tag@0@U_Nonscalar_ptr_iterator_tag@0@U_Range_checked_iterator_tag@0@@Z 0040fc40 f i TLV.obj
 0001:0000ec80       ?replace@?$basic_string@DU?$char_traits@D@std@@V?$allocator@D@2@@std@@QAEAAV12@V?$_String_iterator@DU?$char_traits@D@std@@V?$allocator@D@2@@2@0ABV12@@Z 0040fc80 f i TLV.obj
 0001:0000ed30       ?_Xlen@?$vector@UServiceIdentifier@cacti@@V?$allocator@UServiceIdentifier@cacti@@@std@@@std@@KAXXZ 0040fd30 f i TLV.obj
 0001:0000edb0       ?_Xlen@?$vector@V?$basic_string@DU?$char_traits@D@std@@V?$allocator@D@2@@std@@V?$allocator@V?$basic_string@DU?$char_traits@D@std@@V?$allocator@D@2@@std@@@2@@std@@KAXXZ 0040fdb0 f i TLV.obj
 0001:0000ee30       ?_Xlen@?$vector@KV?$allocator@K@std@@@std@@KAXXZ 0040fe30 f i TLV.obj
 0001:0000eeb0       ?_Xlen@?$vector@EV?$allocator@E@std@@@std@@KAXXZ 0040feb0 f i TLV.obj
 0001:0000ef30       ??$_Copy_opt@PAV?$basic_string@DU?$char_traits@D@std@@V?$allocator@D@2@@std@@PAV12@@std@@YAPAV?$basic_string@DU?$char_traits@D@std@@V?$allocator@D@2@@0@PAV10@00Urandom_access_iterator_tag@0@U_Nonscalar_ptr_iterator_tag@0@U_Range_checked_iterator_tag@0@@Z 0040ff30 f i TLV.obj
 0001:0000ef90       ??$_Destroy_range@V?$basic_string@DU?$char_traits@D@std@@V?$allocator@D@2@@std@@V?$allocator@V?$basic_string@DU?$char_traits@D@std@@V?$allocator@D@2@@std@@@2@@std@@YAXPAV?$basic_string@DU?$char_traits@D@std@@V?$allocator@D@2@@0@0AAV?$allocator@V?$basic_string@DU?$char_traits@D@std@@V?$allocator@D@2@@std@@@0@U_Nonscalar_ptr_iterator_tag@0@@Z 0040ff90 f i TLV.obj
 0001:0000efd0       ??$_Uninit_copy@PBV?$basic_string@DU?$char_traits@D@std@@V?$allocator@D@2@@std@@PAV12@V?$allocator@V?$basic_string@DU?$char_traits@D@std@@V?$allocator@D@2@@std@@@2@@std@@YAPAV?$basic_string@DU?$char_traits@D@std@@V?$allocator@D@2@@0@PBV10@0PAV10@AAV?$allocator@V?$basic_string@DU?$char_traits@D@std@@V?$allocator@D@2@@std@@@0@U_Nonscalar_ptr_iterator_tag@0@U_Range_checked_iterator_tag@0@@Z 0040ffd0 f i TLV.obj
 0001:0000f090       ??$_Replace@PAE@?$basic_string@DU?$char_traits@D@std@@V?$allocator@D@2@@std@@QAEAAV01@V?$_String_iterator@DU?$char_traits@D@std@@V?$allocator@D@2@@1@0PAE1Uinput_iterator_tag@1@@Z 00410090 f i TLV.obj
 0001:0000f150       ?_Buy@?$vector@V?$basic_string@DU?$char_traits@D@std@@V?$allocator@D@2@@std@@V?$allocator@V?$basic_string@DU?$char_traits@D@std@@V?$allocator@D@2@@std@@@2@@std@@IAE_NI@Z 00410150 f i TLV.obj
 0001:0000f1b0       ?_Buy@?$vector@KV?$allocator@K@std@@@std@@IAE_NI@Z 004101b0 f i TLV.obj
 0001:0000f200       ?_Insert_n@?$vector@UServiceIdentifier@cacti@@V?$allocator@UServiceIdentifier@cacti@@@std@@@std@@IAEXV?$_Vector_iterator@UServiceIdentifier@cacti@@V?$allocator@UServiceIdentifier@cacti@@@std@@@2@IABUServiceIdentifier@cacti@@@Z 00410200 f i TLV.obj
 0001:0000f4b0       ?_Insert_n@?$vector@KV?$allocator@K@std@@@std@@IAEXV?$_Vector_iterator@KV?$allocator@K@std@@@2@IABK@Z 004104b0 f i TLV.obj
 0001:0000f670       ?_Insert_n@?$vector@EV?$allocator@E@std@@@std@@IAEXV?$_Vector_iterator@EV?$allocator@E@std@@@2@IABE@Z 00410670 f i TLV.obj
 0001:0000f820       ??$unchecked_copy@PAV?$basic_string@DU?$char_traits@D@std@@V?$allocator@D@2@@std@@PAV12@@stdext@@YAPAV?$basic_string@DU?$char_traits@D@std@@V?$allocator@D@2@@std@@PAV12@00@Z 00410820 f i TLV.obj
 0001:0000f850       ??$fill@PAV?$basic_string@DU?$char_traits@D@std@@V?$allocator@D@2@@std@@V12@@std@@YAXPAV?$basic_string@DU?$char_traits@D@std@@V?$allocator@D@2@@0@0ABV10@@Z 00410850 f i TLV.obj
 0001:0000f880       ??$_Uninit_fill_n@PAV?$basic_string@DU?$char_traits@D@std@@V?$allocator@D@2@@std@@IV12@V?$allocator@V?$basic_string@DU?$char_traits@D@std@@V?$allocator@D@2@@std@@@2@@std@@YAXPAV?$basic_string@DU?$char_traits@D@std@@V?$allocator@D@2@@0@IABV10@AAV?$allocator@V?$basic_string@DU?$char_traits@D@std@@V?$allocator@D@2@@std@@@0@U_Nonscalar_ptr_iterator_tag@0@U_Range_checked_iterator_tag@0@@Z 00410880 f i TLV.obj
 0001:0000f940       ??$_Uninit_move@PAV?$basic_string@DU?$char_traits@D@std@@V?$allocator@D@2@@std@@PAV12@V?$allocator@V?$basic_string@DU?$char_traits@D@std@@V?$allocator@D@2@@std@@@2@@std@@YAPAV?$basic_string@DU?$char_traits@D@std@@V?$allocator@D@2@@0@PAV10@00AAV?$allocator@V?$basic_string@DU?$char_traits@D@std@@V?$allocator@D@2@@std@@@0@U_Swap_move_tag@0@U_Range_checked_iterator_tag@0@@Z 00410940 f i TLV.obj
 0001:0000fa80       ??$_Move_backward_opt@PAV?$basic_string@DU?$char_traits@D@std@@V?$allocator@D@2@@std@@PAV12@Uforward_iterator_tag@2@@std@@YAPAV?$basic_string@DU?$char_traits@D@std@@V?$allocator@D@2@@0@PAV10@00Uforward_iterator_tag@0@U_Swap_move_tag@0@U_Range_checked_iterator_tag@0@@Z 00410a80 f i TLV.obj
 0001:0000fb10       ??0?$vector@KV?$allocator@K@std@@@std@@QAE@ABV01@@Z 00410b10 f i TLV.obj
 0001:0000fbb0       ??0?$vector@EV?$allocator@E@std@@@std@@QAE@ABV01@@Z 00410bb0 f i TLV.obj
 0001:0000fc40       ?resize@?$vector@KV?$allocator@K@std@@@std@@QAEXIK@Z 00410c40 f i TLV.obj
 0001:0000fd00       ?resize@?$vector@EV?$allocator@E@std@@@std@@QAEXIE@Z 00410d00 f i TLV.obj
 0001:0000fdb0       ?_Destroy@?$vector@V?$basic_string@DU?$char_traits@D@std@@V?$allocator@D@2@@std@@V?$allocator@V?$basic_string@DU?$char_traits@D@std@@V?$allocator@D@2@@std@@@2@@std@@IAEXPAV?$basic_string@DU?$char_traits@D@std@@V?$allocator@D@2@@2@0@Z 00410db0 f i TLV.obj
 0001:0000fdd0       ??$_Assign@PAE@?$basic_string@DU?$char_traits@D@std@@V?$allocator@D@2@@std@@QAEAAV01@PAE0Uinput_iterator_tag@1@@Z 00410dd0 f i TLV.obj
 0001:0000fe70       ??$_Move_backward_opt@PAV?$basic_string@DU?$char_traits@D@std@@V?$allocator@D@2@@std@@PAV12@@std@@YAPAV?$basic_string@DU?$char_traits@D@std@@V?$allocator@D@2@@0@PAV10@00Urandom_access_iterator_tag@0@U_Swap_move_tag@0@U_Range_checked_iterator_tag@0@@Z 00410e70 f i TLV.obj
 0001:0000fed0       ?_Tidy@?$vector@V?$basic_string@DU?$char_traits@D@std@@V?$allocator@D@2@@std@@V?$allocator@V?$basic_string@DU?$char_traits@D@std@@V?$allocator@D@2@@std@@@2@@std@@IAEXXZ 00410ed0 f i TLV.obj
 0001:0000fed0       ??1?$vector@V?$basic_string@DU?$char_traits@D@std@@V?$allocator@D@2@@std@@V?$allocator@V?$basic_string@DU?$char_traits@D@std@@V?$allocator@D@2@@std@@@2@@std@@QAE@XZ 00410ed0 f i TLV.obj
 0001:0000ff10       ?erase@?$vector@V?$basic_string@DU?$char_traits@D@std@@V?$allocator@D@2@@std@@V?$allocator@V?$basic_string@DU?$char_traits@D@std@@V?$allocator@D@2@@std@@@2@@std@@QAE?AV?$_Vector_iterator@V?$basic_string@DU?$char_traits@D@std@@V?$allocator@D@2@@std@@V?$allocator@V?$basic_string@DU?$char_traits@D@std@@V?$allocator@D@2@@std@@@2@@2@V32@0@Z 00410f10 f i TLV.obj
 0001:0000ff80       ?_Ufill@?$vector@V?$basic_string@DU?$char_traits@D@std@@V?$allocator@D@2@@std@@V?$allocator@V?$basic_string@DU?$char_traits@D@std@@V?$allocator@D@2@@std@@@2@@std@@IAEPAV?$basic_string@DU?$char_traits@D@std@@V?$allocator@D@2@@2@PAV32@IABV32@@Z 00410f80 f i TLV.obj
 0001:0000ffc0       ??$_Umove@PAV?$basic_string@DU?$char_traits@D@std@@V?$allocator@D@2@@std@@@?$vector@V?$basic_string@DU?$char_traits@D@std@@V?$allocator@D@2@@std@@V?$allocator@V?$basic_string@DU?$char_traits@D@std@@V?$allocator@D@2@@std@@@2@@std@@IAEPAV?$basic_string@DU?$char_traits@D@std@@V?$allocator@D@2@@1@PAV21@00@Z 00410fc0 f i TLV.obj
 0001:0000fff0       ??$_Unchecked_move_backward@PAV?$basic_string@DU?$char_traits@D@std@@V?$allocator@D@2@@std@@PAV12@@stdext@@YAPAV?$basic_string@DU?$char_traits@D@std@@V?$allocator@D@2@@std@@PAV12@00@Z 00410ff0 f i TLV.obj
 0001:00010020       ??BTLV@cacti@@QBE?AV?$basic_string@DU?$char_traits@D@std@@V?$allocator@D@2@@std@@XZ 00411020 f   TLV.obj
 0001:000100b0       ??BTLV@cacti@@QBE?AV?$vector@EV?$allocator@E@std@@@std@@XZ 004110b0 f   TLV.obj
 0001:00010160       ??BTLV@cacti@@QBE?AV?$vector@KV?$allocator@K@std@@@std@@XZ 00411160 f   TLV.obj
 0001:00010240       ??0?$vector@V?$basic_string@DU?$char_traits@D@std@@V?$allocator@D@2@@std@@V?$allocator@V?$basic_string@DU?$char_traits@D@std@@V?$allocator@D@2@@std@@@2@@std@@QAE@ABV01@@Z 00411240 f i TLV.obj
 0001:00010310       ?_Insert_n@?$vector@V?$basic_string@DU?$char_traits@D@std@@V?$allocator@D@2@@std@@V?$allocator@V?$basic_string@DU?$char_traits@D@std@@V?$allocator@D@2@@std@@@2@@std@@IAEXV?$_Vector_iterator@V?$basic_string@DU?$char_traits@D@std@@V?$allocator@D@2@@std@@V?$allocator@V?$basic_string@DU?$char_traits@D@std@@V?$allocator@D@2@@std@@@2@@2@IABV?$basic_string@DU?$char_traits@D@std@@V?$allocator@D@2@@2@@Z 00411310 f i TLV.obj
 0001:00010670       ?resize@?$vector@V?$basic_string@DU?$char_traits@D@std@@V?$allocator@D@2@@std@@V?$allocator@V?$basic_string@DU?$char_traits@D@std@@V?$allocator@D@2@@std@@@2@@std@@QAEXIV?$basic_string@DU?$char_traits@D@std@@V?$allocator@D@2@@2@@Z 00411670 f i TLV.obj
 0001:000107a0       ??BTLV@cacti@@QBE?AV?$vector@V?$basic_string@DU?$char_traits@D@std@@V?$allocator@D@2@@std@@V?$allocator@V?$basic_string@DU?$char_traits@D@std@@V?$allocator@D@2@@std@@@2@@std@@XZ 004117a0 f   TLV.obj
 0001:000108e0       ?decode@ServiceIdentifier@cacti@@QAE_NAAVStream@2@@Z 004118e0 f i TransferMessage.obj
 0001:00010920       ?setMessageId@UserTransferMessage@cacti@@QAEXK@Z 00411920 f   TransferMessage.obj
 0001:00010930       ?getMessageId@UserTransferMessage@cacti@@QBEKXZ 00411930 f   TransferMessage.obj
 0001:00010930       ??BAbstractSocket@cacti@@QBEIXZ 00411930 f   SocketWrapper.obj
 0001:00010940       ?setReturn@UserTransferMessage@cacti@@QAEXK@Z 00411940 f   TransferMessage.obj
 0001:00010950       ?getReq@UserTransferMessage@cacti@@QBEABUServiceIdentifier@2@XZ 00411950 f   TransferMessage.obj
 0001:00010960       ?setRes@UserTransferMessage@cacti@@QAEXABUServiceIdentifier@2@@Z 00411960 f   TransferMessage.obj
 0001:00010980       ?getRes@UserTransferMessage@cacti@@QBEABUServiceIdentifier@2@XZ 00411980 f   TransferMessage.obj
 0001:00010990       ?swapSid@UserTransferMessage@cacti@@QAEXXZ 00411990 f   TransferMessage.obj
 0001:000109c0       ?get_deleter@?$sp_counted_impl_p@VUserTransferMessage@cacti@@@detail@boost@@UAEPAXABVtype_info@@@Z 004119c0 f i TransferMessage.obj
 0001:000109c0       ?get_deleter@?$sp_counted_impl_p@VKVNode@cacti@@@detail@boost@@UAEPAXABVtype_info@@@Z 004119c0 f i TransferMessage.obj
 0001:000109c0       ?get_deleter@?$sp_counted_impl_p@VLogger@cacti@@@detail@boost@@UAEPAXABVtype_info@@@Z 004119c0 f i LogManager.obj
 0001:000109c0       ?get_deleter@?$sp_counted_impl_p@VDAGW@@@detail@boost@@UAEPAXABVtype_info@@@Z 004119c0 f i dagw.obj
 0001:000109c0       ?get_deleter@?$sp_counted_impl_p@VTLV@cacti@@@detail@boost@@UAEPAXABVtype_info@@@Z 004119c0 f i TransferMessage.obj
 0001:000109c0       ?get_deleter@?$sp_counted_impl_p@VSimpleFormatter@cacti@@@detail@boost@@UAEPAXABVtype_info@@@Z 004119c0 f i ConfigureLoader.obj
 0001:000109c0       ?get_deleter@?$sp_counted_impl_p@VConsoleHandler@cacti@@@detail@boost@@UAEPAXABVtype_info@@@Z 004119c0 f i ConfigureLoader.obj
 0001:000109c0       ?get_deleter@?$sp_counted_impl_p@VNetworkPackage@cacti@@@detail@boost@@UAEPAXABVtype_info@@@Z 004119c0 f i MessageDispatcher.obj
 0001:000109c0       ?get_deleter@?$sp_counted_impl_p@VStarFileHandler@cacti@@@detail@boost@@UAEPAXABVtype_info@@@Z 004119c0 f i ConfigureLoader.obj
 0001:000109c0       ?get_deleter@?$sp_counted_impl_p@VStarFormatter@cacti@@@detail@boost@@UAEPAXABVtype_info@@@Z 004119c0 f i ConfigureLoader.obj
 0001:000109c0       ?get_deleter@?$sp_counted_impl_p@V?$BoundedQueue@V?$shared_ptr@VNetworkPackage@cacti@@@boost@@@cacti@@@detail@boost@@UAEPAXABVtype_info@@@Z 004119c0 f i ServiceManager.obj
 0001:000109c0       ?getOutParamByIndex@BaseQuery@@UAEPAVBaseValue@@H@Z 004119c0 f i dbconnect.obj
 0001:000109c0       ?get_deleter@?$sp_counted_impl_p@VTTICFormatter@cacti@@@detail@boost@@UAEPAXABVtype_info@@@Z 004119c0 f i ConfigureLoader.obj
 0001:000109c0       ?get_deleter@?$sp_counted_impl_p@VFileHandler@cacti@@@detail@boost@@UAEPAXABVtype_info@@@Z 004119c0 f i ConfigureLoader.obj
 0001:000109d0       ??1?$shared_ptr@VService@@@boost@@QAE@XZ 004119d0 f i Commander.obj
 0001:000109d0       ??1?$shared_ptr@VTLV@cacti@@@boost@@QAE@XZ 004119d0 f i TransferMessage.obj
 0001:000109d0       ??1?$shared_ptr@VLogHandler@cacti@@@boost@@QAE@XZ 004119d0 f i ConfigureLoader.obj
 0001:000109d0       ??1?$shared_ptr@VNetworkPackage@cacti@@@boost@@QAE@XZ 004119d0 f i MessageDispatcher.obj
 0001:000109d0       ??1?$shared_ptr@VKVNode@cacti@@@boost@@QAE@XZ 004119d0 f i TransferMessage.obj
 0001:000109d0       ??1?$shared_ptr@VUserTransferMessage@cacti@@@boost@@QAE@XZ 004119d0 f i TransferMessage.obj
 0001:000109d0       ??1?$shared_ptr@V?$BoundedQueue@V?$shared_ptr@VNetworkPackage@cacti@@@boost@@@cacti@@@boost@@QAE@XZ 004119d0 f i MessageDispatcher.obj
 0001:000109d0       ??1Commander@@QAE@XZ       004119d0 f i Commander.obj
 0001:000109d0       ??1?$shared_ptr@VLogger@cacti@@@boost@@QAE@XZ 004119d0 f i Logger.obj
 0001:000109d0       ??1?$shared_ptr@VFormatter@cacti@@@boost@@QAE@XZ 004119d0 f i ConfigureLoader.obj
 0001:00010a10       ??0?$shared_ptr@VUserTransferMessage@cacti@@@boost@@QAE@ABV01@@Z 00411a10 f i TransferMessage.obj
 0001:00010a40       ??$?0VTLV@cacti@@@shared_count@detail@boost@@QAE@PAVTLV@cacti@@@Z 00411a40 f i TransferMessage.obj
 0001:00010ad0       ?decode@KVNode@cacti@@QAE_NAAVStream@2@@Z 00411ad0 f   TransferMessage.obj
 0001:00010bb0       ??4KVNode@cacti@@QAEAAV01@ABV01@@Z 00411bb0 f   TransferMessage.obj
 0001:00010ca0       ?findKey@UserTransferMessage@cacti@@ABE?AV?$_Const_iterator@$00@?$list@V?$shared_ptr@VKVNode@cacti@@@boost@@V?$allocator@V?$shared_ptr@VKVNode@cacti@@@boost@@@std@@@std@@K@Z 00411ca0 f   TransferMessage.obj
 0001:00010d30       ?encode@UserTransferMessage@cacti@@QAEXAAVStream@2@@Z 00411d30 f   TransferMessage.obj
 0001:00010e50       ?encode@NetworkPackage@cacti@@QAEXAAVStream@2@@Z 00411e50 f   TransferMessage.obj
 0001:00010ec0       ??$reset@VTLV@cacti@@@?$shared_ptr@VTLV@cacti@@@boost@@QAEXPAVTLV@cacti@@@Z 00411ec0 f i TransferMessage.obj
 0001:00010f40       ??$checked_delete@VKVNode@cacti@@@boost@@YAXPAVKVNode@cacti@@@Z 00411f40 f i TransferMessage.obj
 0001:00010f90       ??0KVNode@cacti@@QAE@K@Z   00411f90 f   TransferMessage.obj
 0001:00011020       ?_Buynode@?$list@V?$shared_ptr@VLogHandler@cacti@@@boost@@V?$allocator@V?$shared_ptr@VLogHandler@cacti@@@boost@@@std@@@std@@IAEPAU_Node@?$_List_nod@V?$shared_ptr@VLogHandler@cacti@@@boost@@V?$allocator@V?$shared_ptr@VLogHandler@cacti@@@boost@@@std@@@2@PAU342@0ABV?$shared_ptr@VLogHandler@cacti@@@boost@@@Z 00412020 f i Logger.obj
 0001:00011020       ?_Buynode@?$list@V?$shared_ptr@VKVNode@cacti@@@boost@@V?$allocator@V?$shared_ptr@VKVNode@cacti@@@boost@@@std@@@std@@IAEPAU_Node@?$_List_nod@V?$shared_ptr@VKVNode@cacti@@@boost@@V?$allocator@V?$shared_ptr@VKVNode@cacti@@@boost@@@std@@@2@PAU342@0ABV?$shared_ptr@VKVNode@cacti@@@boost@@@Z 00412020 f i TransferMessage.obj
 0001:00011070       ??$?0VKVNode@cacti@@@shared_count@detail@boost@@QAE@PAVKVNode@cacti@@@Z 00412070 f i TransferMessage.obj
 0001:00011100       ?dispose@?$sp_counted_impl_p@VKVNode@cacti@@@detail@boost@@UAEXXZ 00412100 f i TransferMessage.obj
 0001:00011150       ?clear@?$list@V?$shared_ptr@VFilter@cacti@@@boost@@V?$allocator@V?$shared_ptr@VFilter@cacti@@@boost@@@std@@@std@@QAEXXZ 00412150 f i ConsoleHandler.obj
 0001:00011150       ?clear@?$list@V?$shared_ptr@VKVNode@cacti@@@boost@@V?$allocator@V?$shared_ptr@VKVNode@cacti@@@boost@@@std@@@std@@QAEXXZ 00412150 f i TransferMessage.obj
 0001:00011150       ?clear@?$list@V?$shared_ptr@VLogHandler@cacti@@@boost@@V?$allocator@V?$shared_ptr@VLogHandler@cacti@@@boost@@@std@@@std@@QAEXXZ 00412150 f i Logger.obj
 0001:000111c0       ?_Incsize@?$list@V?$shared_ptr@VKVNode@cacti@@@boost@@V?$allocator@V?$shared_ptr@VKVNode@cacti@@@boost@@@std@@@std@@IAEXI@Z 004121c0 f i TransferMessage.obj
 0001:00011260       ??1UserTransferMessage@cacti@@QAE@XZ 00412260 f i TransferMessage.obj
 0001:00011280       ??0UserTransferMessage@cacti@@QAE@XZ 00412280 f   TransferMessage.obj
 0001:000112c0       ??0UserTransferMessage@cacti@@QAE@ABUServiceIdentifier@1@0KK@Z 004122c0 f   TransferMessage.obj
 0001:00011320       ?push_back@?$list@V?$shared_ptr@VKVNode@cacti@@@boost@@V?$allocator@V?$shared_ptr@VKVNode@cacti@@@boost@@@std@@@std@@QAEXABV?$shared_ptr@VKVNode@cacti@@@boost@@@Z 00412320 f i TransferMessage.obj
 0001:00011360       ??$checked_delete@VUserTransferMessage@cacti@@@boost@@YAXPAVUserTransferMessage@cacti@@@Z 00412360 f i TransferMessage.obj
 0001:00011390       ??AUserTransferMessage@cacti@@QAEAAVTLV@1@K@Z 00412390 f   TransferMessage.obj
 0001:000114e0       ??4UserTransferMessage@cacti@@QAEAAV01@ABV01@@Z 004124e0 f   TransferMessage.obj
 0001:00011690       ?decode@UserTransferMessage@cacti@@QAE_NAAVStream@2@@Z 00412690 f   TransferMessage.obj
 0001:000117e0       ??$?0VUserTransferMessage@cacti@@@shared_count@detail@boost@@QAE@PAVUserTransferMessage@cacti@@@Z 004127e0 f i TransferMessage.obj
 0001:00011870       ?dispose@?$sp_counted_impl_p@VUserTransferMessage@cacti@@@detail@boost@@UAEXXZ 00412870 f i TransferMessage.obj
 0001:000118a0       ??0UserTransferMessage@cacti@@QAE@ABV01@@Z 004128a0 f   TransferMessage.obj
 0001:00011920       ??$?0VUserTransferMessage@cacti@@@?$shared_ptr@VUserTransferMessage@cacti@@@boost@@QAE@PAVUserTransferMessage@cacti@@@Z 00412920 f i TransferMessage.obj
 0001:00011950       ?decode@NetworkPackage@cacti@@QAE_NAAVStream@2@@Z 00412950 f   TransferMessage.obj
 0001:00011a50       ?bootupSocket@@YA_NXZ      00412a50 f i MessageDispatcher.obj
 0001:00011a90       ??1MessageTimer@cacti@@QAE@XZ 00412a90 f i MessageDispatcher.obj
 0001:00011aa0       ??1TransferServer@cacti@@UAE@XZ 00412aa0 f i MessageDispatcher.obj
 0001:00011ab0       ??1ConfigureDispatcher@cacti@@QAE@XZ 00412ab0 f i MessageDispatcher.obj
 0001:00011ac0       ??1TransferClient@cacti@@UAE@XZ 00412ac0 f i MessageDispatcher.obj
 0001:00011ad0       ?hook@MessageDispatcher@cacti@@QAE_NK@Z 00412ad0 f   MessageDispatcher.obj
 0001:00011b10       ?unhook@MessageDispatcher@cacti@@QAEXK@Z 00412b10 f   MessageDispatcher.obj
 0001:00011b40       ??8const_iterator@?$_Tree@V?$_Tmap_traits@HPAVOracleBindParam@@U?$less@H@std@@V?$allocator@U?$pair@$$CBHPAVOracleBindParam@@@std@@@3@$0A@@std@@@std@@QBE_NABV012@@Z 00412b40 f i oraclequery.obj
 0001:00011b40       ??8const_iterator@?$_Tree@V?$_Tmap_traits@JNU?$less@J@std@@V?$allocator@U?$pair@$$CBJN@std@@@2@$0A@@std@@@std@@QBE_NABV012@@Z 00412b40 f i dbconnect.obj
 0001:00011b40       ??8const_iterator@?$_Tree@V?$_Tmap_traits@V?$basic_string@DU?$char_traits@D@std@@V?$allocator@D@2@@std@@V?$shared_ptr@VLogger@cacti@@@boost@@U?$less@V?$basic_string@DU?$char_traits@D@std@@V?$allocator@D@2@@std@@@2@V?$allocator@U?$pair@$$CBV?$basic_string@DU?$char_traits@D@std@@V?$allocator@D@2@@std@@V?$shared_ptr@VLogger@cacti@@@boost@@@std@@@2@$0A@@std@@@std@@QBE_NABV012@@Z 00412b40 f i LogManager.obj
 0001:00011b40       ??8const_iterator@?$_Tree@V?$_Tmap_traits@V?$basic_string@DU?$char_traits@D@std@@V?$allocator@D@2@@std@@PAUCDBProcInfo@@U?$less@V?$basic_string@DU?$char_traits@D@std@@V?$allocator@D@2@@std@@@2@V?$allocator@U?$pair@$$CBV?$basic_string@DU?$char_traits@D@std@@V?$allocator@D@2@@std@@PAUCDBProcInfo@@@std@@@2@$0A@@std@@@std@@QBE_NABV012@@Z 00412b40 f i dagwservice.obj
 0001:00011b40       ??8const_iterator@?$_Tree@V?$_Tmap_traits@HHU?$less@H@std@@V?$allocator@U?$pair@$$CBHH@std@@@2@$0A@@std@@@std@@QBE_NABV012@@Z 00412b40 f i dbconnect.obj
 0001:00011b40       ??8const_iterator@?$_Tree@V?$_Tmap_traits@V?$basic_string@DU?$char_traits@D@std@@V?$allocator@D@2@@std@@PAVLineFrame@cacti@@Uicaseless@4@V?$allocator@U?$pair@$$CBV?$basic_string@DU?$char_traits@D@std@@V?$allocator@D@2@@std@@PAVLineFrame@cacti@@@std@@@2@$0A@@std@@@std@@QBE_NABV012@@Z 00412b40 f i IniFile.obj
 0001:00011b40       ??8const_iterator@?$_Tree@V?$_Tmap_traits@V?$basic_string@DU?$char_traits@D@std@@V?$allocator@D@2@@std@@V?$vector@V?$basic_string@DU?$char_traits@D@std@@V?$allocator@D@2@@std@@V?$allocator@V?$basic_string@DU?$char_traits@D@std@@V?$allocator@D@2@@std@@@2@@2@U?$less@V?$basic_string@DU?$char_traits@D@std@@V?$allocator@D@2@@std@@@2@V?$allocator@U?$pair@$$CBV?$basic_string@DU?$char_traits@D@std@@V?$allocator@D@2@@std@@V?$vector@V?$basic_string@DU?$char_traits@D@std@@V?$allocator@D@2@@std@@V?$allocator@V?$basic_string@DU?$char_traits@D@std@@V?$allocator@D@2@@std@@@2@@2@@std@@@2@$0A@@std@@@std@@QBE_NABV012@@Z 00412b40 f i dbconnect.obj
 0001:00011b40       ??8const_iterator@?$_Tree@V?$_Tmap_traits@KUServiceData@cacti@@U?$less@K@std@@V?$allocator@U?$pair@$$CBKUServiceData@cacti@@@std@@@4@$0A@@std@@@std@@QBE_NABV012@@Z 00412b40 f i MessageDispatcher.obj
 0001:00011b40       ??8const_iterator@?$_Tree@V?$_Tmap_traits@KKU?$less@K@std@@V?$allocator@U?$pair@$$CBKK@std@@@2@$0A@@std@@@std@@QBE_NABV012@@Z 00412b40 f i MessageDispatcher.obj
 0001:00011b70       ?_Max@?$_Tree@V?$_Tmap_traits@KUServiceData@cacti@@U?$less@K@std@@V?$allocator@U?$pair@$$CBKUServiceData@cacti@@@std@@@4@$0A@@std@@@std@@KAPAU_Node@?$_Tree_nod@V?$_Tmap_traits@KUServiceData@cacti@@U?$less@K@std@@V?$allocator@U?$pair@$$CBKUServiceData@cacti@@@std@@@4@$0A@@std@@@2@PAU342@@Z 00412b70 f i MessageDispatcher.obj
 0001:00011b70       ?_Max@?$_Tree@V?$_Tmap_traits@JNU?$less@J@std@@V?$allocator@U?$pair@$$CBJN@std@@@2@$0A@@std@@@std@@KAPAU_Node@?$_Tree_nod@V?$_Tmap_traits@JNU?$less@J@std@@V?$allocator@U?$pair@$$CBJN@std@@@2@$0A@@std@@@2@PAU342@@Z 00412b70 f i dbconnect.obj
 0001:00011b90       ?_Min@?$_Tree@V?$_Tmap_traits@JNU?$less@J@std@@V?$allocator@U?$pair@$$CBJN@std@@@2@$0A@@std@@@std@@KAPAU_Node@?$_Tree_nod@V?$_Tmap_traits@JNU?$less@J@std@@V?$allocator@U?$pair@$$CBJN@std@@@2@$0A@@std@@@2@PAU342@@Z 00412b90 f i dbconnect.obj
 0001:00011b90       ?_Min@?$_Tree@V?$_Tmap_traits@KUServiceData@cacti@@U?$less@K@std@@V?$allocator@U?$pair@$$CBKUServiceData@cacti@@@std@@@4@$0A@@std@@@std@@KAPAU_Node@?$_Tree_nod@V?$_Tmap_traits@KUServiceData@cacti@@U?$less@K@std@@V?$allocator@U?$pair@$$CBKUServiceData@cacti@@@std@@@4@$0A@@std@@@2@PAU342@@Z 00412b90 f i MessageDispatcher.obj
 0001:00011bb0       ?postMessage@ClientDispatcher@cacti@@EAE_NABUServiceIdentifier@2@V?$shared_ptr@VUserTransferMessage@cacti@@@boost@@@Z 00412bb0 f i MessageDispatcher.obj
 0001:00011c60       ?postMessage@ClientDispatcher@cacti@@EAE_NABUServiceIdentifier@2@0V?$shared_ptr@VUserTransferMessage@cacti@@@boost@@_N@Z 00412c60 f i MessageDispatcher.obj
 0001:00011d10       ??1NetworkPackage@cacti@@QAE@XZ 00412d10 f i MessageDispatcher.obj
 0001:00011d50       ?postMessage@MessageDispatcher@cacti@@UAE_NABUServiceIdentifier@2@V?$shared_ptr@VUserTransferMessage@cacti@@@boost@@@Z 00412d50 f   MessageDispatcher.obj
 0001:00011e40       ?setTimer@MessageDispatcher@cacti@@QAEIKABUServiceIdentifier@2@V?$shared_ptr@VUserTransferMessage@cacti@@@boost@@@Z 00412e40 f   MessageDispatcher.obj
 0001:00011f00       ?find_first_of@?$basic_string@DU?$char_traits@D@std@@V?$allocator@D@2@@std@@QBEIPBDII@Z 00412f00 f i MessageDispatcher.obj
 0001:00011f90       ??1ServiceData@cacti@@QAE@XZ 00412f90 f i MessageDispatcher.obj
 0001:00011fd0       ?getUTM@NetworkPackage@cacti@@QAE?AV?$shared_ptr@VUserTransferMessage@cacti@@@boost@@XZ 00412fd0 f i MessageDispatcher.obj
 0001:00012000       ?_Erase@?$_Tree@V?$_Tmap_traits@HPAVOracleBindParam@@U?$less@H@std@@V?$allocator@U?$pair@$$CBHPAVOracleBindParam@@@std@@@3@$0A@@std@@@std@@IAEXPAU_Node@?$_Tree_nod@V?$_Tmap_traits@HPAVOracleBindParam@@U?$less@H@std@@V?$allocator@U?$pair@$$CBHPAVOracleBindParam@@@std@@@3@$0A@@std@@@2@@Z 00413000 f i oraclequery.obj
 0001:00012000       ?_Erase@?$_Tree@V?$_Tmap_traits@KKU?$less@K@std@@V?$allocator@U?$pair@$$CBKK@std@@@2@$0A@@std@@@std@@IAEXPAU_Node@?$_Tree_nod@V?$_Tmap_traits@KKU?$less@K@std@@V?$allocator@U?$pair@$$CBKK@std@@@2@$0A@@std@@@2@@Z 00413000 f i MessageDispatcher.obj
 0001:00012000       ?_Erase@?$_Tree@V?$_Tmap_traits@HHU?$less@H@std@@V?$allocator@U?$pair@$$CBHH@std@@@2@$0A@@std@@@std@@IAEXPAU_Node@?$_Tree_nod@V?$_Tmap_traits@HHU?$less@H@std@@V?$allocator@U?$pair@$$CBHH@std@@@2@$0A@@std@@@2@@Z 00413000 f i dbconnect.obj
 0001:00012040       ??1?$pair@$$CBKUServiceData@cacti@@@std@@QAE@XZ 00413040 f i MessageDispatcher.obj
 0001:00012080       ??$checked_delete@VNetworkPackage@cacti@@@boost@@YAXPAVNetworkPackage@cacti@@@Z 00413080 f i MessageDispatcher.obj
 0001:000120d0       ?setUTM@NetworkPackage@cacti@@QAEXV?$shared_ptr@VUserTransferMessage@cacti@@@boost@@@Z 004130d0 f i MessageDispatcher.obj
 0001:00012160       ??$?9DU?$char_traits@D@std@@V?$allocator@D@1@@std@@YA_NABV?$basic_string@DU?$char_traits@D@std@@V?$allocator@D@2@@0@0@Z 00413160 f i MessageDispatcher.obj
 0001:00012190       ??$?0VNetworkPackage@cacti@@@shared_count@detail@boost@@QAE@PAVNetworkPackage@cacti@@@Z 00413190 f i MessageDispatcher.obj
 0001:00012220       ?dispose@?$sp_counted_impl_p@VNetworkPackage@cacti@@@detail@boost@@UAEXXZ 00413220 f i MessageDispatcher.obj
 0001:00012270       ?erase@?$_Tree@V?$_Tmap_traits@KKU?$less@K@std@@V?$allocator@U?$pair@$$CBKK@std@@@2@$0A@@std@@@std@@QAE?AViterator@12@V312@@Z 00413270 f i MessageDispatcher.obj
 0001:00012530       ?toString@ServiceIdentifier@cacti@@QBE?AV?$basic_string@DU?$char_traits@D@std@@V?$allocator@D@2@@std@@XZ 00413530 f i MessageDispatcher.obj
 0001:000125c0       ?parseURL@MessageDispatcher@cacti@@AAEXABV?$basic_string@DU?$char_traits@D@std@@V?$allocator@D@2@@std@@@Z 004135c0 f   MessageDispatcher.obj
 0001:000127a0       ?parseAddress@cacti@@YAXABV?$basic_string@DU?$char_traits@D@std@@V?$allocator@D@2@@std@@AAV23@1AAK@Z 004137a0 f   MessageDispatcher.obj
 0001:00012950       ?parseServiceName@cacti@@YAXABV?$basic_string@DU?$char_traits@D@std@@V?$allocator@D@2@@std@@AAV23@AAK@Z 00413950 f   MessageDispatcher.obj
 0001:00012a80       ?loadLocalConfigure@MessageDispatcher@cacti@@AAE_NPBD@Z 00413a80 f   MessageDispatcher.obj
 0001:00012c60       ?getMessage@MessageDispatcher@cacti@@UAE_NKAAUServiceIdentifier@2@AAV?$shared_ptr@VUserTransferMessage@cacti@@@boost@@@Z 00413c60 f   MessageDispatcher.obj
 0001:00012ee0       ?postMessageToPeer@MessageDispatcher@cacti@@AAE_NABUServiceIdentifier@2@0V?$shared_ptr@VUserTransferMessage@cacti@@@boost@@@Z 00413ee0 f   MessageDispatcher.obj
 0001:00013300       ?broadcastMessage@MessageDispatcher@cacti@@AAEXV?$shared_ptr@VUserTransferMessage@cacti@@@boost@@@Z 00414300 f   MessageDispatcher.obj
 0001:00013460       ?insert@?$vector@KV?$allocator@K@std@@@std@@QAE?AV?$_Vector_iterator@KV?$allocator@K@std@@@2@V32@ABK@Z 00414460 f i MessageDispatcher.obj
 0001:000134f0       ?erase@?$_Tree@V?$_Tmap_traits@KKU?$less@K@std@@V?$allocator@U?$pair@$$CBKK@std@@@2@$0A@@std@@@std@@QAE?AViterator@12@V312@0@Z 004144f0 f i MessageDispatcher.obj
 0001:000135c0       ?erase@?$_Tree@V?$_Tmap_traits@KUServiceData@cacti@@U?$less@K@std@@V?$allocator@U?$pair@$$CBKUServiceData@cacti@@@std@@@4@$0A@@std@@@std@@QAE?AViterator@12@V312@@Z 004145c0 f i MessageDispatcher.obj
 0001:000138b0       ?_Erase@?$_Tree@V?$_Tmap_traits@KUServiceData@cacti@@U?$less@K@std@@V?$allocator@U?$pair@$$CBKUServiceData@cacti@@@std@@@4@$0A@@std@@@std@@IAEXPAU_Node@?$_Tree_nod@V?$_Tmap_traits@KUServiceData@cacti@@U?$less@K@std@@V?$allocator@U?$pair@$$CBKUServiceData@cacti@@@std@@@4@$0A@@std@@@2@@Z 004148b0 f i MessageDispatcher.obj
 0001:00013920       ?push_back@?$vector@KV?$allocator@K@std@@@std@@QAEXABK@Z 00414920 f i MessageDispatcher.obj
 0001:00013990       ?erase@?$_Tree@V?$_Tmap_traits@KUServiceData@cacti@@U?$less@K@std@@V?$allocator@U?$pair@$$CBKUServiceData@cacti@@@std@@@4@$0A@@std@@@std@@QAE?AViterator@12@V312@0@Z 00414990 f i MessageDispatcher.obj
 0001:00013a60       ?_Tidy@?$_Tree@V?$_Tmap_traits@KKU?$less@K@std@@V?$allocator@U?$pair@$$CBKK@std@@@2@$0A@@std@@@std@@IAEXXZ 00414a60 f i MessageDispatcher.obj
 0001:00013a60       ??1?$map@KKU?$less@K@std@@V?$allocator@U?$pair@$$CBKK@std@@@2@@std@@QAE@XZ 00414a60 f i MessageDispatcher.obj
 0001:00013aa0       ??1ApplicationData@cacti@@QAE@XZ 00414aa0 f i MessageDispatcher.obj
 0001:00013b90       ?setRemoteConfigureData@MessageDispatcher@cacti@@QAEXV?$shared_ptr@VUserTransferMessage@cacti@@@boost@@@Z 00414b90 f   MessageDispatcher.obj
 0001:00014110       ??1?$map@KUServiceData@cacti@@U?$less@K@std@@V?$allocator@U?$pair@$$CBKUServiceData@cacti@@@std@@@4@@std@@QAE@XZ 00415110 f i MessageDispatcher.obj
 0001:00014150       ?handleMessage@ConfigureDispatcher@cacti@@EAE_NKV?$shared_ptr@VUserTransferMessage@cacti@@@boost@@@Z 00415150 f i MessageDispatcher.obj
 0001:00014230       ?create@UTM@cacti@@SA?AV?$shared_ptr@VUserTransferMessage@cacti@@@boost@@ABUServiceIdentifier@2@0KK@Z 00415230 f i MessageDispatcher.obj
 0001:000142d0       ?create@UTM@cacti@@SA?AV?$shared_ptr@VUserTransferMessage@cacti@@@boost@@ABVUserTransferMessage@2@@Z 004152d0 f i MessageDispatcher.obj
 0001:00014360       ?create@UTM@cacti@@SA?AV?$shared_ptr@VUserTransferMessage@cacti@@@boost@@K@Z 00415360 f i MessageDispatcher.obj
 0001:00014410       ??1ServiceManager@cacti@@QAE@XZ 00415410 f i MessageDispatcher.obj
 0001:000144a0       ?stop@MessageDispatcher@cacti@@QAEXXZ 004154a0 f   MessageDispatcher.obj
 0001:000145e0       ?loadRemoteConfigure@MessageDispatcher@cacti@@AAE_NXZ 004155e0 f   MessageDispatcher.obj
 0001:00014990       ?inited@MessageDispatcher@cacti@@QAEXK@Z 00415990 f   MessageDispatcher.obj
 0001:00014a20       ?onConnectedToPeer@MessageDispatcher@cacti@@AAEXABUServiceIdentifier@2@V?$shared_ptr@VUserTransferMessage@cacti@@@boost@@@Z 00415a20 f   MessageDispatcher.obj
 0001:00014c20       ?onAppDead@MessageDispatcher@cacti@@AAEXK@Z 00415c20 f   MessageDispatcher.obj
 0001:00014e50       ?onServiceActive@MessageDispatcher@cacti@@AAEXABUServiceIdentifier@2@V?$shared_ptr@VUserTransferMessage@cacti@@@boost@@_N@Z 00415e50 f   MessageDispatcher.obj
 0001:000156e0       ?setPingTimer@MessageDispatcher@cacti@@AAEXXZ 004166e0 f   MessageDispatcher.obj
 0001:000157c0       ?broadcastServiceActive@MessageDispatcher@cacti@@AAEXK@Z 004167c0 f   MessageDispatcher.obj
 0001:000158c0       ?notifyMissedActive@MessageDispatcher@cacti@@AAEXK@Z 004168c0 f   MessageDispatcher.obj
 0001:00015a50       ??0MessageDispatcher@cacti@@QAE@XZ 00416a50 f   MessageDispatcher.obj
 0001:00015dd0       ?start@MessageDispatcher@cacti@@QAE_NPBD@Z 00416dd0 f   MessageDispatcher.obj
 0001:00016340       ?onPeerDisconnected@MessageDispatcher@cacti@@AAEXABUServiceIdentifier@2@V?$shared_ptr@VUserTransferMessage@cacti@@@boost@@@Z 00417340 f   MessageDispatcher.obj
 0001:00016400       ?onClientClosed@MessageDispatcher@cacti@@AAEXABUServiceIdentifier@2@V?$shared_ptr@VUserTransferMessage@cacti@@@boost@@@Z 00417400 f   MessageDispatcher.obj
 0001:000164f0       ?onCheckPingServer@MessageDispatcher@cacti@@AAEXABUServiceIdentifier@2@V?$shared_ptr@VUserTransferMessage@cacti@@@boost@@@Z 004174f0 f   MessageDispatcher.obj
 0001:000165c0       ?onSystemMessage@MessageDispatcher@cacti@@AAEXABUServiceIdentifier@2@V?$shared_ptr@VUserTransferMessage@cacti@@@boost@@@Z 004175c0 f   MessageDispatcher.obj
 0001:00016780       ?postMessage@MessageDispatcher@cacti@@UAE_NABUServiceIdentifier@2@0V?$shared_ptr@VUserTransferMessage@cacti@@@boost@@_N@Z 00417780 f   MessageDispatcher.obj
 0001:00016d80       ??1TimerTask@cacti@@UAE@XZ 00417d80 f i MessageTimer.obj
 0001:00016d90       ??_ETimerTask@cacti@@UAEPAXI@Z 00417d90 f i MessageTimer.obj
 0001:00016d90       ??_GTimerTask@cacti@@UAEPAXI@Z 00417d90 f i MessageTimer.obj
 0001:00016db0       ??0MessageTimer@cacti@@QAE@PAVDispatcherInterface@1@@Z 00417db0 f   MessageTimer.obj
 0001:00016dd0       ??0MessageTimerTask@cacti@@QAE@PAVDispatcherInterface@1@ABUServiceIdentifier@1@V?$shared_ptr@VUserTransferMessage@cacti@@@boost@@@Z 00417dd0 f i MessageTimer.obj
 0001:00016e50       ?onTimer@MessageTimerTask@cacti@@UAEXXZ 00417e50 f i MessageTimer.obj
 0001:00016ea0       ??1MessageTimerTask@cacti@@UAE@XZ 00417ea0 f i MessageTimer.obj
 0001:00016f20       ?set@MessageTimer@cacti@@QAEIKABUServiceIdentifier@2@V?$shared_ptr@VUserTransferMessage@cacti@@@boost@@@Z 00417f20 f   MessageTimer.obj
 0001:00017010       ??_GMessageTimerTask@cacti@@UAEPAXI@Z 00418010 f i MessageTimer.obj
 0001:00017010       ??_EMessageTimerTask@cacti@@UAEPAXI@Z 00418010 f i MessageTimer.obj
 0001:00017030       ?toString@TimerTask@cacti@@UAE?AV?$basic_string@DU?$char_traits@D@std@@V?$allocator@D@2@@std@@XZ 00418030 f i MessageTimer.obj
 0001:00017060       ?toString@MessageTimerTask@cacti@@UAE?AV?$basic_string@DU?$char_traits@D@std@@V?$allocator@D@2@@std@@XZ 00418060 f i MessageTimer.obj
 0001:00017080       ?_Min@?$_Tree@V?$_Tmap_traits@KUApplicationData@cacti@@U?$less@K@std@@V?$allocator@U?$pair@$$CBKUApplicationData@cacti@@@std@@@4@$0A@@std@@@std@@KAPAU_Node@?$_Tree_nod@V?$_Tmap_traits@KUApplicationData@cacti@@U?$less@K@std@@V?$allocator@U?$pair@$$CBKUApplicationData@cacti@@@std@@@4@$0A@@std@@@2@PAU342@@Z 00418080 f i PeersManager.obj
 0001:000170a0       ?_Max@?$_Tree@V?$_Tmap_traits@KUApplicationData@cacti@@U?$less@K@std@@V?$allocator@U?$pair@$$CBKUApplicationData@cacti@@@std@@@4@$0A@@std@@@std@@KAPAU_Node@?$_Tree_nod@V?$_Tmap_traits@KUApplicationData@cacti@@U?$less@K@std@@V?$allocator@U?$pair@$$CBKUApplicationData@cacti@@@std@@@4@$0A@@std@@@2@PAU342@@Z 004180a0 f i PeersManager.obj
 0001:000170c0       ??$_Allocate@UApplicationData@cacti@@@std@@YAPAUApplicationData@cacti@@IPAU12@@Z 004180c0 f i PeersManager.obj
 0001:00017120       ?findanonymousApps@PeersManager@cacti@@AAEHK@Z 00418120 f   PeersManager.obj
 0001:00017190       ?_Lrotate@?$_Tree@V?$_Tmap_traits@KUApplicationData@cacti@@U?$less@K@std@@V?$allocator@U?$pair@$$CBKUApplicationData@cacti@@@std@@@4@$0A@@std@@@std@@IAEXPAU_Node@?$_Tree_nod@V?$_Tmap_traits@KUApplicationData@cacti@@U?$less@K@std@@V?$allocator@U?$pair@$$CBKUApplicationData@cacti@@@std@@@4@$0A@@std@@@2@@Z 00418190 f i PeersManager.obj
 0001:000171f0       ?_Rrotate@?$_Tree@V?$_Tmap_traits@KUApplicationData@cacti@@U?$less@K@std@@V?$allocator@U?$pair@$$CBKUApplicationData@cacti@@@std@@@4@$0A@@std@@@std@@IAEXPAU_Node@?$_Tree_nod@V?$_Tmap_traits@KUApplicationData@cacti@@U?$less@K@std@@V?$allocator@U?$pair@$$CBKUApplicationData@cacti@@@std@@@4@$0A@@std@@@2@@Z 004181f0 f i PeersManager.obj
 0001:00017250       ?_Inc@const_iterator@?$_Tree@V?$_Tmap_traits@KUApplicationData@cacti@@U?$less@K@std@@V?$allocator@U?$pair@$$CBKUApplicationData@cacti@@@std@@@4@$0A@@std@@@std@@QAEXXZ 00418250 f i PeersManager.obj
 0001:000172d0       ?_Dec@const_iterator@?$_Tree@V?$_Tmap_traits@KUApplicationData@cacti@@U?$less@K@std@@V?$allocator@U?$pair@$$CBKUApplicationData@cacti@@@std@@@4@$0A@@std@@@std@@QAEXXZ 004182d0 f i PeersManager.obj
 0001:00017370       ?_Buynode@?$_Tree@V?$_Tmap_traits@HPAVOracleBindParam@@U?$less@H@std@@V?$allocator@U?$pair@$$CBHPAVOracleBindParam@@@std@@@3@$0A@@std@@@std@@IAEPAU_Node@?$_Tree_nod@V?$_Tmap_traits@HPAVOracleBindParam@@U?$less@H@std@@V?$allocator@U?$pair@$$CBHPAVOracleBindParam@@@std@@@3@$0A@@std@@@2@PAU342@00ABU?$pair@$$CBHPAVOracleBindParam@@@2@D@Z 00418370 f i oraclequery.obj
 0001:00017370       ?_Buynode@?$_Tree@V?$_Tmap_traits@KKU?$less@K@std@@V?$allocator@U?$pair@$$CBKK@std@@@2@$0A@@std@@@std@@IAEPAU_Node@?$_Tree_nod@V?$_Tmap_traits@KKU?$less@K@std@@V?$allocator@U?$pair@$$CBKK@std@@@2@$0A@@std@@@2@PAU342@00ABU?$pair@$$CBKK@2@D@Z 00418370 f i PeersManager.obj
 0001:00017370       ?_Buynode@?$_Tree@V?$_Tmap_traits@HHU?$less@H@std@@V?$allocator@U?$pair@$$CBHH@std@@@2@$0A@@std@@@std@@IAEPAU_Node@?$_Tree_nod@V?$_Tmap_traits@HHU?$less@H@std@@V?$allocator@U?$pair@$$CBHH@std@@@2@$0A@@std@@@2@PAU342@00ABU?$pair@$$CBHH@2@D@Z 00418370 f i dbconnect.obj
 0001:000173b0       ?_Buynode@?$_Tree@V?$_Tmap_traits@KUApplicationData@cacti@@U?$less@K@std@@V?$allocator@U?$pair@$$CBKUApplicationData@cacti@@@std@@@4@$0A@@std@@@std@@IAEPAU_Node@?$_Tree_nod@V?$_Tmap_traits@KUApplicationData@cacti@@U?$less@K@std@@V?$allocator@U?$pair@$$CBKUApplicationData@cacti@@@std@@@4@$0A@@std@@@2@XZ 004183b0 f i PeersManager.obj
 0001:000173f0       ?lower_bound@?$_Tree@V?$_Tmap_traits@KUApplicationData@cacti@@U?$less@K@std@@V?$allocator@U?$pair@$$CBKUApplicationData@cacti@@@std@@@4@$0A@@std@@@std@@QAE?AViterator@12@ABK@Z 004183f0 f i PeersManager.obj
 0001:00017430       ?_Copy@?$_Tree@V?$_Tmap_traits@KKU?$less@K@std@@V?$allocator@U?$pair@$$CBKK@std@@@2@$0A@@std@@@std@@IAEPAU_Node@?$_Tree_nod@V?$_Tmap_traits@KKU?$less@K@std@@V?$allocator@U?$pair@$$CBKK@std@@@2@$0A@@std@@@2@PAU342@0@Z 00418430 f i PeersManager.obj
 0001:000174f0       ?clear@?$vector@KV?$allocator@K@std@@@std@@QAEXXZ 004184f0 f i PeersManager.obj
 0001:00017530       ?isActiveService@ApplicationData@cacti@@QAE_NK@Z 00418530 f i PeersManager.obj
 0001:000175a0       ?connectAll@PeersManager@cacti@@QAEXXZ 004185a0 f   PeersManager.obj
 0001:00017650       ?closeAll@PeersManager@cacti@@QAEXXZ 00418650 f   PeersManager.obj
 0001:00017720       ?clearPasvConnection@PeersManager@cacti@@QAEKI@Z 00418720 f   PeersManager.obj
 0001:000178a0       ?find@?$_Tree@V?$_Tmap_traits@KUApplicationData@cacti@@U?$less@K@std@@V?$allocator@U?$pair@$$CBKUApplicationData@cacti@@@std@@@4@$0A@@std@@@std@@QAE?AViterator@12@ABK@Z 004188a0 f i PeersManager.obj
 0001:00017910       ?_Copy@?$_Tree@V?$_Tmap_traits@KKU?$less@K@std@@V?$allocator@U?$pair@$$CBKK@std@@@2@$0A@@std@@@std@@IAEXABV12@@Z 00418910 f i PeersManager.obj
 0001:00017990       ?isServiceActive@PeersManager@cacti@@QAE_NKK@Z 00418990 f   PeersManager.obj
 0001:00017a90       ?sendPackage@PeersManager@cacti@@QAE_NKAAVNetworkPackage@2@@Z 00418a90 f   PeersManager.obj
 0001:00017b00       ?updatePasvConnection@PeersManager@cacti@@QAEXABUServiceIdentifier@2@I@Z 00418b00 f   PeersManager.obj
 0001:00017c20       ?getPasvConnection@PeersManager@cacti@@QAEIABUServiceIdentifier@2@@Z 00418c20 f   PeersManager.obj
 0001:00017d40       ?isPeerDead@PeersManager@cacti@@QAE_NK@Z 00418d40 f   PeersManager.obj
 0001:00017e70       ?_Insert@?$_Tree@V?$_Tmap_traits@KKU?$less@K@std@@V?$allocator@U?$pair@$$CBKK@std@@@2@$0A@@std@@@std@@IAE?AViterator@12@_NPAU_Node@?$_Tree_nod@V?$_Tmap_traits@KKU?$less@K@std@@V?$allocator@U?$pair@$$CBKK@std@@@2@$0A@@std@@@2@ABU?$pair@$$CBKK@2@@Z 00418e70 f i PeersManager.obj
 0001:00018070       ?_Xlen@?$vector@UApplicationData@cacti@@V?$allocator@UApplicationData@cacti@@@std@@@std@@KAXXZ 00419070 f i PeersManager.obj
 0001:000180f0       ?reserve@?$vector@KV?$allocator@K@std@@@std@@QAEXI@Z 004190f0 f i PeersManager.obj
 0001:000181a0       ?insert@?$_Tree@V?$_Tmap_traits@KKU?$less@K@std@@V?$allocator@U?$pair@$$CBKK@std@@@2@$0A@@std@@@std@@QAE?AU?$pair@Viterator@?$_Tree@V?$_Tmap_traits@KKU?$less@K@std@@V?$allocator@U?$pair@$$CBKK@std@@@2@$0A@@std@@@std@@_N@2@ABU?$pair@$$CBKK@2@@Z 004191a0 f i PeersManager.obj
 0001:00018260       ??4?$vector@KV?$allocator@K@std@@@std@@QAEAAV01@ABV01@@Z 00419260 f i PeersManager.obj
 0001:00018390       ?insert@?$_Tree@V?$_Tmap_traits@KKU?$less@K@std@@V?$allocator@U?$pair@$$CBKK@std@@@2@$0A@@std@@@std@@QAE?AViterator@12@V312@ABU?$pair@$$CBKK@2@@Z 00419390 f i PeersManager.obj
 0001:00018550       ?insert@?$vector@UServiceIdentifier@cacti@@V?$allocator@UServiceIdentifier@cacti@@@std@@@std@@QAE?AV?$_Vector_iterator@UServiceIdentifier@cacti@@V?$allocator@UServiceIdentifier@cacti@@@std@@@2@V32@ABUServiceIdentifier@cacti@@@Z 00419550 f i PeersManager.obj
 0001:00018600       ?getAllPeerApplication@PeersManager@cacti@@QAE?AV?$vector@KV?$allocator@K@std@@@std@@XZ 00419600 f   PeersManager.obj
 0001:000187f0       ??A?$map@KKU?$less@K@std@@V?$allocator@U?$pair@$$CBKK@std@@@2@@std@@QAEAAKABK@Z 004197f0 f i PeersManager.obj
 0001:00018870       ??0?$_Tree@V?$_Tmap_traits@KKU?$less@K@std@@V?$allocator@U?$pair@$$CBKK@std@@@2@$0A@@std@@@std@@QAE@ABV01@@Z 00419870 f i PeersManager.obj
 0001:00018900       ?push_back@?$vector@UServiceIdentifier@cacti@@V?$allocator@UServiceIdentifier@cacti@@@std@@@std@@QAEXABUServiceIdentifier@cacti@@@Z 00419900 f i PeersManager.obj
 0001:000189a0       ??4ApplicationData@cacti@@QAEAAU01@ABU01@@Z 004199a0 f i PeersManager.obj
 0001:00018a40       ??$_Copy_backward_opt@PAUApplicationData@cacti@@PAU12@Uforward_iterator_tag@std@@@std@@YAPAUApplicationData@cacti@@PAU12@00Uforward_iterator_tag@0@U_Nonscalar_ptr_iterator_tag@0@U_Range_checked_iterator_tag@0@@Z 00419a40 f i PeersManager.obj
 0001:00018a80       ??1?$pair@$$CBKUApplicationData@cacti@@@std@@QAE@XZ 00419a80 f i PeersManager.obj
 0001:00018a80       ??1?$pair@KUApplicationData@cacti@@@std@@QAE@XZ 00419a80 f i PeersManager.obj
 0001:00018a90       ?dumpConnectionMap@PeersManager@cacti@@QAEXXZ 00419a90 f   PeersManager.obj
 0001:00018ec0       ?getAllActiveServices@PeersManager@cacti@@QAE?AV?$vector@UServiceIdentifier@cacti@@V?$allocator@UServiceIdentifier@cacti@@@std@@@std@@K@Z 00419ec0 f   PeersManager.obj
 0001:000190e0       ?getAllActiveServices@PeersManager@cacti@@QAE?AV?$vector@UServiceIdentifier@cacti@@V?$allocator@UServiceIdentifier@cacti@@@std@@@std@@XZ 0041a0e0 f   PeersManager.obj
 0001:000192e0       ??0ApplicationData@cacti@@QAE@XZ 0041a2e0 f i PeersManager.obj
 0001:000193a0       ??0ApplicationData@cacti@@QAE@ABU01@@Z 0041a3a0 f i PeersManager.obj
 0001:00019480       ??$fill@PAUApplicationData@cacti@@U12@@std@@YAXPAUApplicationData@cacti@@0ABU12@@Z 0041a480 f i PeersManager.obj
 0001:000194b0       ??$make_pair@KUApplicationData@cacti@@@std@@YA?AU?$pair@KUApplicationData@cacti@@@0@KUApplicationData@cacti@@@Z 0041a4b0 f i PeersManager.obj
 0001:00019530       ??$_Unchecked_move_backward@PAUApplicationData@cacti@@PAU12@@stdext@@YAPAUApplicationData@cacti@@PAU12@00@Z 0041a530 f i PeersManager.obj
 0001:00019580       ??$_Uninit_copy@PAUApplicationData@cacti@@PAU12@V?$allocator@UApplicationData@cacti@@@std@@@std@@YAPAUApplicationData@cacti@@PAU12@00AAV?$allocator@UApplicationData@cacti@@@0@U_Nonscalar_ptr_iterator_tag@0@U_Range_checked_iterator_tag@0@@Z 0041a580 f i PeersManager.obj
 0001:00019630       ?_Buynode@?$_Tree@V?$_Tmap_traits@KUApplicationData@cacti@@U?$less@K@std@@V?$allocator@U?$pair@$$CBKUApplicationData@cacti@@@std@@@4@$0A@@std@@@std@@IAEPAU_Node@?$_Tree_nod@V?$_Tmap_traits@KUApplicationData@cacti@@U?$less@K@std@@V?$allocator@U?$pair@$$CBKUApplicationData@cacti@@@std@@@4@$0A@@std@@@2@PAU342@00ABU?$pair@$$CBKUApplicationData@cacti@@@2@D@Z 0041a630 f i PeersManager.obj
 0001:000196e0       ??$_Uninit_fill_n@PAUApplicationData@cacti@@IU12@V?$allocator@UApplicationData@cacti@@@std@@@std@@YAXPAUApplicationData@cacti@@IABU12@AAV?$allocator@UApplicationData@cacti@@@0@U_Nonscalar_ptr_iterator_tag@0@U_Range_checked_iterator_tag@0@@Z 0041a6e0 f i PeersManager.obj
 0001:00019790       ?_Insert@?$_Tree@V?$_Tmap_traits@KUApplicationData@cacti@@U?$less@K@std@@V?$allocator@U?$pair@$$CBKUApplicationData@cacti@@@std@@@4@$0A@@std@@@std@@IAE?AViterator@12@_NPAU_Node@?$_Tree_nod@V?$_Tmap_traits@KUApplicationData@cacti@@U?$less@K@std@@V?$allocator@U?$pair@$$CBKUApplicationData@cacti@@@std@@@4@$0A@@std@@@2@ABU?$pair@$$CBKUApplicationData@cacti@@@2@@Z 0041a790 f i PeersManager.obj
 0001:000199a0       ?erase@?$_Tree@V?$_Tmap_traits@KUApplicationData@cacti@@U?$less@K@std@@V?$allocator@U?$pair@$$CBKUApplicationData@cacti@@@std@@@4@$0A@@std@@@std@@QAE?AViterator@12@V312@@Z 0041a9a0 f i PeersManager.obj
 0001:00019d00       ?_Erase@?$_Tree@V?$_Tmap_traits@KUApplicationData@cacti@@U?$less@K@std@@V?$allocator@U?$pair@$$CBKUApplicationData@cacti@@@std@@@4@$0A@@std@@@std@@IAEXPAU_Node@?$_Tree_nod@V?$_Tmap_traits@KUApplicationData@cacti@@U?$less@K@std@@V?$allocator@U?$pair@$$CBKUApplicationData@cacti@@@std@@@4@$0A@@std@@@2@@Z 0041ad00 f i PeersManager.obj
 0001:00019d50       ?insert@?$_Tree@V?$_Tmap_traits@KUApplicationData@cacti@@U?$less@K@std@@V?$allocator@U?$pair@$$CBKUApplicationData@cacti@@@std@@@4@$0A@@std@@@std@@QAE?AU?$pair@Viterator@?$_Tree@V?$_Tmap_traits@KUApplicationData@cacti@@U?$less@K@std@@V?$allocator@U?$pair@$$CBKUApplicationData@cacti@@@std@@@4@$0A@@std@@@std@@_N@2@ABU?$pair@$$CBKUApplicationData@cacti@@@2@@Z 0041ad50 f i PeersManager.obj
 0001:00019e10       ?_Ufill@?$vector@UApplicationData@cacti@@V?$allocator@UApplicationData@cacti@@@std@@@std@@IAEPAUApplicationData@cacti@@PAU34@IABU34@@Z 0041ae10 f i PeersManager.obj
 0001:00019e50       ?_Destroy@?$vector@UApplicationData@cacti@@V?$allocator@UApplicationData@cacti@@@std@@@std@@IAEXPAUApplicationData@cacti@@0@Z 0041ae50 f i PeersManager.obj
 0001:00019e80       ?loadFromFile@PeersManager@cacti@@QAEXPBD@Z 0041ae80 f   PeersManager.obj
 0001:0001a6a0       ?_Tidy@?$vector@UApplicationData@cacti@@V?$allocator@UApplicationData@cacti@@@std@@@std@@IAEXXZ 0041b6a0 f i PeersManager.obj
 0001:0001a6f0       ?erase@?$_Tree@V?$_Tmap_traits@KUApplicationData@cacti@@U?$less@K@std@@V?$allocator@U?$pair@$$CBKUApplicationData@cacti@@@std@@@4@$0A@@std@@@std@@QAE?AViterator@12@V312@0@Z 0041b6f0 f i PeersManager.obj
 0001:0001a7c0       ??$_Umove@PAUApplicationData@cacti@@@?$vector@UApplicationData@cacti@@V?$allocator@UApplicationData@cacti@@@std@@@std@@IAEPAUApplicationData@cacti@@PAU23@00@Z 0041b7c0 f i PeersManager.obj
 0001:0001a7f0       ??1?$vector@UApplicationData@cacti@@V?$allocator@UApplicationData@cacti@@@std@@@std@@QAE@XZ 0041b7f0 f i PeersManager.obj
 0001:0001a800       ?_Insert_n@?$vector@UApplicationData@cacti@@V?$allocator@UApplicationData@cacti@@@std@@@std@@IAEXV?$_Vector_iterator@UApplicationData@cacti@@V?$allocator@UApplicationData@cacti@@@std@@@2@IABUApplicationData@cacti@@@Z 0041b800 f i PeersManager.obj
 0001:0001aad0       ?insert@?$vector@UApplicationData@cacti@@V?$allocator@UApplicationData@cacti@@@std@@@std@@QAE?AV?$_Vector_iterator@UApplicationData@cacti@@V?$allocator@UApplicationData@cacti@@@std@@@2@V32@ABUApplicationData@cacti@@@Z 0041bad0 f i PeersManager.obj
 0001:0001ab60       ??1?$map@KUApplicationData@cacti@@U?$less@K@std@@V?$allocator@U?$pair@$$CBKUApplicationData@cacti@@@std@@@4@@std@@QAE@XZ 0041bb60 f i PeersManager.obj
 0001:0001aba0       ??1PeersManager@cacti@@QAE@XZ 0041bba0 f   PeersManager.obj
 0001:0001ac90       ?push_back@?$vector@UApplicationData@cacti@@V?$allocator@UApplicationData@cacti@@@std@@@std@@QAEXABUApplicationData@cacti@@@Z 0041bc90 f i PeersManager.obj
 0001:0001ad20       ??0PeersManager@cacti@@QAE@PAVDispatcherInterface@1@@Z 0041bd20 f   PeersManager.obj
 0001:0001af70       ?onServiceActive@PeersManager@cacti@@QAEKKKK@Z 0041bf70 f   PeersManager.obj
 0001:0001b390       ?_Dec@const_iterator@?$_Tree@V?$_Tmap_traits@JNU?$less@J@std@@V?$allocator@U?$pair@$$CBJN@std@@@2@$0A@@std@@@std@@QAEXXZ 0041c390 f i jDate.obj
 0001:0001b390       ?_Dec@const_iterator@?$_Tree@V?$_Tmap_traits@KUServiceData@cacti@@U?$less@K@std@@V?$allocator@U?$pair@$$CBKUServiceData@cacti@@@std@@@4@$0A@@std@@@std@@QAEXXZ 0041c390 f i ServiceManager.obj
 0001:0001b420       ??$_Allocate@V?$shared_ptr@VNetworkPackage@cacti@@@boost@@@std@@YAPAV?$shared_ptr@VNetworkPackage@cacti@@@boost@@IPAV12@@Z 0041c420 f i ServiceManager.obj
 0001:0001b480       ?_Buynode@?$_Tree@V?$_Tmap_traits@KUServiceData@cacti@@U?$less@K@std@@V?$allocator@U?$pair@$$CBKUServiceData@cacti@@@std@@@4@$0A@@std@@@std@@IAEPAU_Node@?$_Tree_nod@V?$_Tmap_traits@KUServiceData@cacti@@U?$less@K@std@@V?$allocator@U?$pair@$$CBKUServiceData@cacti@@@std@@@4@$0A@@std@@@2@XZ 0041c480 f i ServiceManager.obj
 0001:0001b4c0       ??0_Node@?$_Tree_nod@V?$_Tmap_traits@KUServiceData@cacti@@U?$less@K@std@@V?$allocator@U?$pair@$$CBKUServiceData@cacti@@@std@@@4@$0A@@std@@@std@@QAE@PAU012@00ABU?$pair@$$CBKUServiceData@cacti@@@2@D@Z 0041c4c0 f i ServiceManager.obj
 0001:0001b520       ?equal_range@?$_Tree@V?$_Tmap_traits@KUServiceData@cacti@@U?$less@K@std@@V?$allocator@U?$pair@$$CBKUServiceData@cacti@@@std@@@4@$0A@@std@@@std@@QAE?AU?$pair@Viterator@?$_Tree@V?$_Tmap_traits@KUServiceData@cacti@@U?$less@K@std@@V?$allocator@U?$pair@$$CBKUServiceData@cacti@@@std@@@4@$0A@@std@@@std@@V123@@2@ABK@Z 0041c520 f i ServiceManager.obj
 0001:0001b580       ?purePut@?$BoundedQueue@V?$shared_ptr@VNetworkPackage@cacti@@@boost@@@cacti@@AAEXABV?$shared_ptr@VNetworkPackage@cacti@@@boost@@@Z 0041c580 f i ServiceManager.obj
 0001:0001b5e0       ?purePutHead@?$BoundedQueue@V?$shared_ptr@VNetworkPackage@cacti@@@boost@@@cacti@@AAEXABV?$shared_ptr@VNetworkPackage@cacti@@@boost@@@Z 0041c5e0 f i ServiceManager.obj
 0001:0001b640       ?pureGet@?$BoundedQueue@V?$shared_ptr@VNetworkPackage@cacti@@@boost@@@cacti@@AAEXAAV?$shared_ptr@VNetworkPackage@cacti@@@boost@@@Z 0041c640 f i ServiceManager.obj
 0001:0001b700       ?_Buynode@?$_Tree@V?$_Tmap_traits@KUServiceData@cacti@@U?$less@K@std@@V?$allocator@U?$pair@$$CBKUServiceData@cacti@@@std@@@4@$0A@@std@@@std@@IAEPAU_Node@?$_Tree_nod@V?$_Tmap_traits@KUServiceData@cacti@@U?$less@K@std@@V?$allocator@U?$pair@$$CBKUServiceData@cacti@@@std@@@4@$0A@@std@@@2@PAU342@00ABU?$pair@$$CBKUServiceData@cacti@@@2@D@Z 0041c700 f i ServiceManager.obj
 0001:0001b740       ??$_Distance2@Viterator@?$_Tree@V?$_Tmap_traits@KUServiceData@cacti@@U?$less@K@std@@V?$allocator@U?$pair@$$CBKUServiceData@cacti@@@std@@@4@$0A@@std@@@std@@I@std@@YAXViterator@?$_Tree@V?$_Tmap_traits@KUServiceData@cacti@@U?$less@K@std@@V?$allocator@U?$pair@$$CBKUServiceData@cacti@@@std@@@4@$0A@@std@@@0@0AAIUbidirectional_iterator_tag@0@@Z 0041c740 f i ServiceManager.obj
 0001:0001b780       ?find@?$_Tree@V?$_Tmap_traits@KUServiceData@cacti@@U?$less@K@std@@V?$allocator@U?$pair@$$CBKUServiceData@cacti@@@std@@@4@$0A@@std@@@std@@QAE?AViterator@12@ABK@Z 0041c780 f i ServiceManager.obj
 0001:0001b7f0       ?tryPut@?$BoundedQueue@V?$shared_ptr@VNetworkPackage@cacti@@@boost@@@cacti@@QAE_NABV?$shared_ptr@VNetworkPackage@cacti@@@boost@@@Z 0041c7f0 f i ServiceManager.obj
 0001:0001b8a0       ?tryPutHead@?$BoundedQueue@V?$shared_ptr@VNetworkPackage@cacti@@@boost@@@cacti@@QAE_NABV?$shared_ptr@VNetworkPackage@cacti@@@boost@@@Z 0041c8a0 f i ServiceManager.obj
 0001:0001b950       ?get@?$BoundedQueue@V?$shared_ptr@VNetworkPackage@cacti@@@boost@@@cacti@@QAEXAAV?$shared_ptr@VNetworkPackage@cacti@@@boost@@@Z 0041c950 f i ServiceManager.obj
 0001:0001b9f0       ??$_Destroy_range@V?$shared_ptr@VNetworkPackage@cacti@@@boost@@V?$allocator@V?$shared_ptr@VNetworkPackage@cacti@@@boost@@@std@@@std@@YAXPAV?$shared_ptr@VNetworkPackage@cacti@@@boost@@0AAV?$allocator@V?$shared_ptr@VNetworkPackage@cacti@@@boost@@@0@U_Nonscalar_ptr_iterator_tag@0@@Z 0041c9f0 f i ServiceManager.obj
 0001:0001ba40       ??$_Uninit_fill_n@PAV?$shared_ptr@VNetworkPackage@cacti@@@boost@@IV12@V?$allocator@V?$shared_ptr@VNetworkPackage@cacti@@@boost@@@std@@@std@@YAXPAV?$shared_ptr@VNetworkPackage@cacti@@@boost@@IABV12@AAV?$allocator@V?$shared_ptr@VNetworkPackage@cacti@@@boost@@@0@U_Nonscalar_ptr_iterator_tag@0@U_Range_checked_iterator_tag@0@@Z 0041ca40 f i ServiceManager.obj
 0001:0001ba80       ?findQueue@ServiceManager@cacti@@AAE?AV?$shared_ptr@V?$BoundedQueue@V?$shared_ptr@VNetworkPackage@cacti@@@boost@@@cacti@@@boost@@K@Z 0041ca80 f   ServiceManager.obj
 0001:0001bb70       ?tryPutPackage@ServiceManager@cacti@@QAE_NKV?$shared_ptr@VNetworkPackage@cacti@@@boost@@@Z 0041cb70 f   ServiceManager.obj
 0001:0001bce0       ?tryPutPackageHead@ServiceManager@cacti@@QAE_NKV?$shared_ptr@VNetworkPackage@cacti@@@boost@@@Z 0041cce0 f   ServiceManager.obj
 0001:0001be50       ?getPackage@ServiceManager@cacti@@QAE?AV?$shared_ptr@VNetworkPackage@cacti@@@boost@@K@Z 0041ce50 f   ServiceManager.obj
 0001:0001bf00       ?_Insert@?$_Tree@V?$_Tmap_traits@KUServiceData@cacti@@U?$less@K@std@@V?$allocator@U?$pair@$$CBKUServiceData@cacti@@@std@@@4@$0A@@std@@@std@@IAE?AViterator@12@_NPAU_Node@?$_Tree_nod@V?$_Tmap_traits@KUServiceData@cacti@@U?$less@K@std@@V?$allocator@U?$pair@$$CBKUServiceData@cacti@@@std@@@4@$0A@@std@@@2@ABU?$pair@$$CBKUServiceData@cacti@@@2@@Z 0041cf00 f i ServiceManager.obj
 0001:0001c100       ?_Xlen@?$vector@V?$shared_ptr@VNetworkPackage@cacti@@@boost@@V?$allocator@V?$shared_ptr@VNetworkPackage@cacti@@@boost@@@std@@@std@@KAXXZ 0041d100 f i ServiceManager.obj
 0001:0001c180       ?insert@?$_Tree@V?$_Tmap_traits@KUServiceData@cacti@@U?$less@K@std@@V?$allocator@U?$pair@$$CBKUServiceData@cacti@@@std@@@4@$0A@@std@@@std@@QAE?AU?$pair@Viterator@?$_Tree@V?$_Tmap_traits@KUServiceData@cacti@@U?$less@K@std@@V?$allocator@U?$pair@$$CBKUServiceData@cacti@@@std@@@4@$0A@@std@@@std@@_N@2@ABU?$pair@$$CBKUServiceData@cacti@@@2@@Z 0041d180 f i ServiceManager.obj
 0001:0001c240       ?erase@?$_Tree@V?$_Tmap_traits@KUServiceData@cacti@@U?$less@K@std@@V?$allocator@U?$pair@$$CBKUServiceData@cacti@@@std@@@4@$0A@@std@@@std@@QAEIABK@Z 0041d240 f i ServiceManager.obj
 0001:0001c2b0       ?insert@?$_Tree@V?$_Tmap_traits@KUServiceData@cacti@@U?$less@K@std@@V?$allocator@U?$pair@$$CBKUServiceData@cacti@@@std@@@4@$0A@@std@@@std@@QAE?AViterator@12@V312@ABU?$pair@$$CBKUServiceData@cacti@@@2@@Z 0041d2b0 f i ServiceManager.obj
 0001:0001c470       ??1?$vector@V?$shared_ptr@VNetworkPackage@cacti@@@boost@@V?$allocator@V?$shared_ptr@VNetworkPackage@cacti@@@boost@@@std@@@std@@QAE@XZ 0041d470 f i ServiceManager.obj
 0001:0001c470       ?_Tidy@?$vector@V?$shared_ptr@VNetworkPackage@cacti@@@boost@@V?$allocator@V?$shared_ptr@VNetworkPackage@cacti@@@boost@@@std@@@std@@IAEXXZ 0041d470 f i ServiceManager.obj
 0001:0001c4b0       ?insert@?$vector@EV?$allocator@E@std@@@std@@QAE?AV?$_Vector_iterator@EV?$allocator@E@std@@@2@V32@ABE@Z 0041d4b0 f i ServiceManager.obj
 0001:0001c540       ?_Construct_n@?$vector@V?$shared_ptr@VNetworkPackage@cacti@@@boost@@V?$allocator@V?$shared_ptr@VNetworkPackage@cacti@@@boost@@@std@@@std@@QAEXIABV?$shared_ptr@VNetworkPackage@cacti@@@boost@@@Z 0041d540 f i ServiceManager.obj
 0001:0001c600       ??1?$BoundedQueue@V?$shared_ptr@VNetworkPackage@cacti@@@boost@@@cacti@@QAE@XZ 0041d600 f i ServiceManager.obj
 0001:0001c6a0       ?delHook@ServiceManager@cacti@@QAEXK@Z 0041d6a0 f   ServiceManager.obj
 0001:0001c770       ??A?$map@KUServiceData@cacti@@U?$less@K@std@@V?$allocator@U?$pair@$$CBKUServiceData@cacti@@@std@@@4@@std@@QAEAAUServiceData@cacti@@ABK@Z 0041d770 f i ServiceManager.obj
 0001:0001c880       ?push_back@?$vector@EV?$allocator@E@std@@@std@@QAEXABE@Z 0041d880 f i ServiceManager.obj
 0001:0001c8f0       ??0?$vector@V?$shared_ptr@VNetworkPackage@cacti@@@boost@@V?$allocator@V?$shared_ptr@VNetworkPackage@cacti@@@boost@@@std@@@std@@QAE@I@Z 0041d8f0 f i ServiceManager.obj
 0001:0001c950       ??0ServiceManager@cacti@@QAE@XZ 0041d950 f   ServiceManager.obj
 0001:0001c9e0       ?setInited@ServiceManager@cacti@@QAEXK@Z 0041d9e0 f   ServiceManager.obj
 0001:0001ca60       ?getInitedService@ServiceManager@cacti@@QAE?AV?$vector@KV?$allocator@K@std@@@std@@XZ 0041da60 f   ServiceManager.obj
 0001:0001cb70       ?setActiveService@ServiceManager@cacti@@QAEXAAVUserTransferMessage@2@K@Z 0041db70 f   ServiceManager.obj
 0001:0001cd00       ?setActiveService@ServiceManager@cacti@@QAEXAAVUserTransferMessage@2@@Z 0041dd00 f   ServiceManager.obj
 0001:0001cec0       ??0?$BoundedQueue@V?$shared_ptr@VNetworkPackage@cacti@@@boost@@@cacti@@QAE@H@Z 0041dec0 f i ServiceManager.obj
 0001:0001cf50       ??$checked_delete@V?$BoundedQueue@V?$shared_ptr@VNetworkPackage@cacti@@@boost@@@cacti@@@boost@@YAXPAV?$BoundedQueue@V?$shared_ptr@VNetworkPackage@cacti@@@boost@@@cacti@@@Z 0041df50 f i ServiceManager.obj
 0001:0001cf70       ??$?0V?$BoundedQueue@V?$shared_ptr@VNetworkPackage@cacti@@@boost@@@cacti@@@shared_count@detail@boost@@QAE@PAV?$BoundedQueue@V?$shared_ptr@VNetworkPackage@cacti@@@boost@@@cacti@@@Z 0041df70 f i ServiceManager.obj
 0001:0001d000       ?dispose@?$sp_counted_impl_p@V?$BoundedQueue@V?$shared_ptr@VNetworkPackage@cacti@@@boost@@@cacti@@@detail@boost@@UAEXXZ 0041e000 f i ServiceManager.obj
 0001:0001d020       ?addHook@ServiceManager@cacti@@QAE_NK@Z 0041e020 f   ServiceManager.obj
 0001:0001d1b0       ?getServiceName@ServiceSkeleton@cacti@@QAEAAV?$basic_string@DU?$char_traits@D@std@@V?$allocator@D@2@@std@@XZ 0041e1b0 f   ServiceSkeleton.obj
 0001:0001d1c0       ?postMessage@ServiceSkeleton@cacti@@QAE_NABUServiceIdentifier@2@V?$shared_ptr@VUserTransferMessage@cacti@@@boost@@@Z 0041e1c0 f   ServiceSkeleton.obj
 0001:0001d280       ?postSelfMessage@ServiceSkeleton@cacti@@QAE_NV?$shared_ptr@VUserTransferMessage@cacti@@@boost@@@Z 0041e280 f   ServiceSkeleton.obj
 0001:0001d340       ?onMessagePtr@ServiceSkeleton@cacti@@EAEXABUServiceIdentifier@2@V?$shared_ptr@VUserTransferMessage@cacti@@@boost@@@Z 0041e340 f   ServiceSkeleton.obj
 0001:0001d3d0       ??$start@VServiceSkeleton@cacti@@@Thread@cacti@@QAEXPAVServiceSkeleton@1@P821@AEXXZ@Z 0041e3d0 f i ServiceSkeleton.obj
 0001:0001d420       ?u32tos@@YA?AV?$basic_string@DU?$char_traits@D@std@@V?$allocator@D@2@@std@@K@Z 0041e420 f i ServiceSkeleton.obj
 0001:0001d4a0       ??0ServiceSkeleton@cacti@@QAE@KPAVMessageDispatcher@1@@Z 0041e4a0 f   ServiceSkeleton.obj
 0001:0001d5a0       ?registerOutParam@BaseQuery@@UAEXHH@Z 0041e5a0 f i dbconnect.obj
 0001:0001d5a0       ?onMessage@ServiceSkeleton@cacti@@EAEXABUServiceIdentifier@2@AAVUserTransferMessage@2@@Z 0041e5a0 f i ServiceSkeleton.obj
 0001:0001d5a0       ?onDefaultMessage@TDBProcess@@EAEXABUServiceIdentifier@cacti@@AAVUserTransferMessage@3@@Z 0041e5a0 f i dbprocess.obj
 0001:0001d5b0       ?onSystemMessage@ServiceSkeleton@cacti@@AAEXABUServiceIdentifier@2@V?$shared_ptr@VUserTransferMessage@cacti@@@boost@@@Z 0041e5b0 f   ServiceSkeleton.obj
 0001:0001d700       ?pullMessage@ServiceSkeleton@cacti@@AAEXXZ 0041e700 f   ServiceSkeleton.obj
 0001:0001d8a0       ?insert@?$vector@V?$basic_string@DU?$char_traits@D@std@@V?$allocator@D@2@@std@@V?$allocator@V?$basic_string@DU?$char_traits@D@std@@V?$allocator@D@2@@std@@@2@@std@@QAE?AV?$_Vector_iterator@V?$basic_string@DU?$char_traits@D@std@@V?$allocator@D@2@@std@@V?$allocator@V?$basic_string@DU?$char_traits@D@std@@V?$allocator@D@2@@std@@@2@@2@V32@ABV?$basic_string@DU?$char_traits@D@std@@V?$allocator@D@2@@2@@Z 0041e8a0 f i ServiceSkeleton.obj
 0001:0001d960       ?postMessage@ServiceSkeleton@cacti@@QAE_NABUServiceIdentifier@2@ABVUserTransferMessage@2@@Z 0041e960 f   ServiceSkeleton.obj
 0001:0001d990       ?push_back@?$vector@V?$basic_string@DU?$char_traits@D@std@@V?$allocator@D@2@@std@@V?$allocator@V?$basic_string@DU?$char_traits@D@std@@V?$allocator@D@2@@std@@@2@@std@@QAEXABV?$basic_string@DU?$char_traits@D@std@@V?$allocator@D@2@@2@@Z 0041e990 f i ServiceSkeleton.obj
 0001:0001da40       ?stop@ServiceSkeleton@cacti@@QAEXXZ 0041ea40 f   ServiceSkeleton.obj
 0001:0001dc00       ?start@ServiceSkeleton@cacti@@QAE_NXZ 0041ec00 f   ServiceSkeleton.obj
 0001:0001dcc0       ??0TransferClient@cacti@@QAE@KPAVDispatcherInterface@1@PBD@Z 0041ecc0 f   TransferClient.obj
 0001:0001dcf0       ?stop@TransferClient@cacti@@QAEXXZ 0041ecf0 f   TransferClient.obj
 0001:0001dd50       ??_GActiveClient@cacti@@UAEPAXI@Z 0041ed50 f i ActiveClient.obj
 0001:0001dd50       ??_GTransferClient@cacti@@UAEPAXI@Z 0041ed50 f i TransferClient.obj
 0001:0001dd50       ??_ETransferClient@cacti@@UAEPAXI@Z 0041ed50 f i TransferClient.obj
 0001:0001dd50       ??_EActiveClient@cacti@@UAEPAXI@Z 0041ed50 f i ActiveClient.obj
 0001:0001dd70       ?recvError@TransferClient@cacti@@AAEHH@Z 0041ed70 f   TransferClient.obj
 0001:0001de30       ?enqueue@TransferClient@cacti@@AAE_NAAVStream@2@@Z 0041ee30 f   TransferClient.obj
 0001:0001dfa0       ?reserve@?$vector@DV?$allocator@D@std@@@std@@QAEXI@Z 0041efa0 f i TransferClient.obj
 0001:0001e040       ?resize@?$vector@DV?$allocator@D@std@@@std@@QAEXID@Z 0041f040 f i TransferClient.obj
 0001:0001e0f0       ?sendPackage@TransferClient@cacti@@QAE_NAAVNetworkPackage@2@@Z 0041f0f0 f   TransferClient.obj
 0001:0001e1f0       ?onReceive@TransferClient@cacti@@EAEHXZ 0041f1f0 f   TransferClient.obj
 0001:0001e500       ?onConnected@TransferClient@cacti@@EAEXXZ 0041f500 f   TransferClient.obj
 0001:0001e560       ?onBroken@TransferClient@cacti@@EAEXXZ 0041f560 f   TransferClient.obj
 0001:0001e5c0       ??0TransferServer@cacti@@QAE@PAVDispatcherInterface@1@PBD@Z 0041f5c0 f   TransferServer.obj
 0001:0001e5f0       ??1SocketAddress@cacti@@QAE@XZ 0041f5f0 f i TransferServer.obj
 0001:0001e620       ?recvError@TransferServer@cacti@@AAEHH@Z 0041f620 f   TransferServer.obj
 0001:0001e6e0       ??1AcceptedSocket@cacti@@QAE@XZ 0041f6e0 f i TransferServer.obj
 0001:0001e710       ??0ConnectionIdentifier@cacti@@QAE@ABV01@@Z 0041f710 f i TransferServer.obj
 0001:0001e740       ?onAccept@TransferServer@cacti@@EAE_NVConnectionIdentifier@2@@Z 0041f740 f i TransferServer.obj
 0001:0001e740       ?onAccept@ActiveServer@cacti@@EAE_NVConnectionIdentifier@2@@Z 0041f740 f i ActiveServer.obj
 0001:0001e760       ?enqueue@TransferServer@cacti@@AAE_NVConnectionIdentifier@2@AAVStream@2@@Z 0041f760 f   TransferServer.obj
 0001:0001e8f0       ?sendPackage@TransferServer@cacti@@QAE_NIAAVNetworkPackage@2@@Z 0041f8f0 f   TransferServer.obj
 0001:0001e9f0       ?onReceive@TransferServer@cacti@@EAEHVConnectionIdentifier@2@@Z 0041f9f0 f   TransferServer.obj
 0001:0001ee40       ?onBroken@TransferServer@cacti@@EAEXVConnectionIdentifier@2@@Z 0041fe40 f   TransferServer.obj
 0001:0001eee0       ?_Construct_n@?$vector@DV?$allocator@D@std@@@std@@QAEXIABD@Z 0041fee0 f i DES.obj
 0001:0001ef40       ??0Exception@cacti@@QAE@PBDH@Z 0041ff40 f   Exception.obj
 0001:0001ef70       ??1Exception@cacti@@UAE@XZ 0041ff70 f   Exception.obj
 0001:0001ef80       ?mkdir@FileSystem@cacti@@SAHPBDH@Z 0041ff80 f   FileSystem.obj
 0001:0001ef90       ?isFileExist@FileSystem@cacti@@SA_NPBD@Z 0041ff90 f   FileSystem.obj
 0001:0001efb0       ?fileSize@FileSystem@cacti@@SAHPBD@Z 0041ffb0 f   FileSystem.obj
 0001:0001efe0       ?size@?$vector@URoleEntity@AbstractPath@cacti@@V?$allocator@URoleEntity@AbstractPath@cacti@@@std@@@std@@QBEIXZ 0041ffe0 f i FileSystem.obj
 0001:0001f000       ??$_Allocate@URoleEntity@AbstractPath@cacti@@@std@@YAPAURoleEntity@AbstractPath@cacti@@IPAU123@@Z 00420000 f i FileSystem.obj
 0001:0001f060       ??1RoleEntity@AbstractPath@cacti@@QAE@XZ 00420060 f i FileSystem.obj
 0001:0001f0d0       ??0RoleEntity@AbstractPath@cacti@@QAE@ABU012@@Z 004200d0 f i FileSystem.obj
 0001:0001f170       ?_Xlen@?$vector@URoleEntity@AbstractPath@cacti@@V?$allocator@URoleEntity@AbstractPath@cacti@@@std@@@std@@KAXXZ 00420170 f i FileSystem.obj
 0001:0001f1f0       ??$_Copy_backward_opt@PAURoleEntity@AbstractPath@cacti@@PAU123@Uforward_iterator_tag@std@@@std@@YAPAURoleEntity@AbstractPath@cacti@@PAU123@00Uforward_iterator_tag@0@U_Nonscalar_ptr_iterator_tag@0@U_Range_checked_iterator_tag@0@@Z 004201f0 f i FileSystem.obj
 0001:0001f250       ??$_Uninit_copy@PAURoleEntity@AbstractPath@cacti@@PAU123@V?$allocator@URoleEntity@AbstractPath@cacti@@@std@@@std@@YAPAURoleEntity@AbstractPath@cacti@@PAU123@00AAV?$allocator@URoleEntity@AbstractPath@cacti@@@0@U_Nonscalar_ptr_iterator_tag@0@U_Range_checked_iterator_tag@0@@Z 00420250 f i FileSystem.obj
 0001:0001f2f0       ??$_Uninit_fill_n@PAURoleEntity@AbstractPath@cacti@@IU123@V?$allocator@URoleEntity@AbstractPath@cacti@@@std@@@std@@YAXPAURoleEntity@AbstractPath@cacti@@IABU123@AAV?$allocator@URoleEntity@AbstractPath@cacti@@@0@U_Nonscalar_ptr_iterator_tag@0@U_Range_checked_iterator_tag@0@@Z 004202f0 f i FileSystem.obj
 0001:0001f390       ??$_Destroy_range@URoleEntity@AbstractPath@cacti@@V?$allocator@URoleEntity@AbstractPath@cacti@@@std@@@std@@YAXPAURoleEntity@AbstractPath@cacti@@0AAV?$allocator@URoleEntity@AbstractPath@cacti@@@0@U_Nonscalar_ptr_iterator_tag@0@@Z 00420390 f i FileSystem.obj
 0001:0001f410       ??$_Fill@PAURoleEntity@AbstractPath@cacti@@U123@@std@@YAXPAURoleEntity@AbstractPath@cacti@@0ABU123@@Z 00420410 f i FileSystem.obj
 0001:0001f460       ??$_Copy_backward_opt@PAURoleEntity@AbstractPath@cacti@@PAU123@@std@@YAPAURoleEntity@AbstractPath@cacti@@PAU123@00Urandom_access_iterator_tag@0@U_Nonscalar_ptr_iterator_tag@0@U_Range_checked_iterator_tag@0@@Z 00420460 f i FileSystem.obj
 0001:0001f4c0       ?_Ufill@?$vector@URoleEntity@AbstractPath@cacti@@V?$allocator@URoleEntity@AbstractPath@cacti@@@std@@@std@@IAEPAURoleEntity@AbstractPath@cacti@@PAU345@IABU345@@Z 004204c0 f i FileSystem.obj
 0001:0001f500       ?_Destroy@?$vector@URoleEntity@AbstractPath@cacti@@V?$allocator@URoleEntity@AbstractPath@cacti@@@std@@@std@@IAEXPAURoleEntity@AbstractPath@cacti@@0@Z 00420500 f i FileSystem.obj
 0001:0001f520       ??$_Unchecked_move_backward@PAURoleEntity@AbstractPath@cacti@@PAU123@@stdext@@YAPAURoleEntity@AbstractPath@cacti@@PAU123@00@Z 00420520 f i FileSystem.obj
 0001:0001f550       ??$_Umove@PAURoleEntity@AbstractPath@cacti@@@?$vector@URoleEntity@AbstractPath@cacti@@V?$allocator@URoleEntity@AbstractPath@cacti@@@std@@@std@@IAEPAURoleEntity@AbstractPath@cacti@@PAU234@00@Z 00420550 f i FileSystem.obj
 0001:0001f580       ?_Insert_n@?$vector@URoleEntity@AbstractPath@cacti@@V?$allocator@URoleEntity@AbstractPath@cacti@@@std@@@std@@IAEXV?$_Vector_iterator@URoleEntity@AbstractPath@cacti@@V?$allocator@URoleEntity@AbstractPath@cacti@@@std@@@2@IABURoleEntity@AbstractPath@cacti@@@Z 00420580 f i FileSystem.obj
 0001:0001f870       ?insert@?$vector@URoleEntity@AbstractPath@cacti@@V?$allocator@URoleEntity@AbstractPath@cacti@@@std@@@std@@QAE?AV?$_Vector_iterator@URoleEntity@AbstractPath@cacti@@V?$allocator@URoleEntity@AbstractPath@cacti@@@std@@@2@V32@ABURoleEntity@AbstractPath@cacti@@@Z 00420870 f i FileSystem.obj
 0001:0001f920       ?push_back@?$vector@URoleEntity@AbstractPath@cacti@@V?$allocator@URoleEntity@AbstractPath@cacti@@@std@@@std@@QAEXABURoleEntity@AbstractPath@cacti@@@Z 00420920 f i FileSystem.obj
 0001:0001f9c0       ?initRols@AbstractPath@cacti@@SAIPBD@Z 004209c0 f   FileSystem.obj
 0001:0001fc40       _wmemcpy_s                 00420c40 f i IniFile.obj
 0001:0001fc60       _wmemmove_s                00420c60 f i IniFile.obj
 0001:0001fc80       _wmemset                   00420c80 f i IniFile.obj
 0001:0001fcc0       ?_Copy_s@?$char_traits@_W@std@@SAPA_WPA_WIPB_WI@Z 00420cc0 f i IniFile.obj
 0001:0001fcf0       ?_Move_s@?$char_traits@_W@std@@SAPA_WPA_WIPB_WI@Z 00420cf0 f i IniFile.obj
 0001:0001fd20       ??1?$basic_istream@DU?$char_traits@D@std@@@std@@UAE@XZ 00420d20 f i IniFile.obj
 0001:0001fd30       ??_D?$basic_istream@DU?$char_traits@D@std@@@std@@QAEXXZ 00420d30 f i IniFile.obj
 0001:0001fd50       ?_Chassign@?$basic_string@_WU?$char_traits@_W@std@@V?$allocator@_W@2@@std@@IAEXII_W@Z 00420d50 f i IniFile.obj
 0001:0001fdc0       ?_Eos@?$basic_string@_WU?$char_traits@_W@std@@V?$allocator@_W@2@@std@@IAEXI@Z 00420dc0 f i IniFile.obj
 0001:0001fdf0       ?_Max@?$_Tree@V?$_Tmap_traits@V?$basic_string@DU?$char_traits@D@std@@V?$allocator@D@2@@std@@V?$map@V?$basic_string@DU?$char_traits@D@std@@V?$allocator@D@2@@std@@PAVLineFrame@cacti@@Uicaseless@4@V?$allocator@U?$pair@$$CBV?$basic_string@DU?$char_traits@D@std@@V?$allocator@D@2@@std@@PAVLineFrame@cacti@@@std@@@2@@2@Uicaseless@cacti@@V?$allocator@U?$pair@$$CBV?$basic_string@DU?$char_traits@D@std@@V?$allocator@D@2@@std@@V?$map@V?$basic_string@DU?$char_traits@D@std@@V?$allocator@D@2@@std@@PAVLineFrame@cacti@@Uicaseless@4@V?$allocator@U?$pair@$$CBV?$basic_string@DU?$char_traits@D@std@@V?$allocator@D@2@@std@@PAVLineFrame@cacti@@@std@@@2@@2@@std@@@2@$0A@@std@@@std@@KAPAU_Node@?$_Tree_nod@V?$_Tmap_traits@V?$basic_string@DU?$char_traits@D@std@@V?$allocator@D@2@@std@@V?$map@V?$basic_string@DU?$char_traits@D@std@@V?$allocator@D@2@@std@@PAVLineFrame@cacti@@Uicaseless@4@V?$allocator@U?$pair@$$CBV?$basic_string@DU?$char_traits@D@std@@V?$allocator@D@2@@std@@PAVLineFrame@cacti@@@std@@@2@@2@Uicaseless@cacti@@V?$allocator@U?$pair@$$CBV?$basic_string@DU?$char_traits@D@std@@V?$allocator@D@2@@std@@V?$map@V?$basic_string@DU?$char_traits@D@std@@V?$allocator@D@2@@std@@PAVLineFrame@cacti@@Uicaseless@4@V?$allocator@U?$pair@$$CBV?$basic_string@DU?$char_traits@D@std@@V?$allocator@D@2@@std@@PAVLineFrame@cacti@@@std@@@2@@2@@std@@@2@$0A@@std@@@2@PAU342@@Z 00420df0 f i IniFile.obj
 0001:0001fe10       ?_Min@?$_Tree@V?$_Tmap_traits@V?$basic_string@DU?$char_traits@D@std@@V?$allocator@D@2@@std@@V?$map@V?$basic_string@DU?$char_traits@D@std@@V?$allocator@D@2@@std@@PAVLineFrame@cacti@@Uicaseless@4@V?$allocator@U?$pair@$$CBV?$basic_string@DU?$char_traits@D@std@@V?$allocator@D@2@@std@@PAVLineFrame@cacti@@@std@@@2@@2@Uicaseless@cacti@@V?$allocator@U?$pair@$$CBV?$basic_string@DU?$char_traits@D@std@@V?$allocator@D@2@@std@@V?$map@V?$basic_string@DU?$char_traits@D@std@@V?$allocator@D@2@@std@@PAVLineFrame@cacti@@Uicaseless@4@V?$allocator@U?$pair@$$CBV?$basic_string@DU?$char_traits@D@std@@V?$allocator@D@2@@std@@PAVLineFrame@cacti@@@std@@@2@@2@@std@@@2@$0A@@std@@@std@@KAPAU_Node@?$_Tree_nod@V?$_Tmap_traits@V?$basic_string@DU?$char_traits@D@std@@V?$allocator@D@2@@std@@V?$map@V?$basic_string@DU?$char_traits@D@std@@V?$allocator@D@2@@std@@PAVLineFrame@cacti@@Uicaseless@4@V?$allocator@U?$pair@$$CBV?$basic_string@DU?$char_traits@D@std@@V?$allocator@D@2@@std@@PAVLineFrame@cacti@@@std@@@2@@2@Uicaseless@cacti@@V?$allocator@U?$pair@$$CBV?$basic_string@DU?$char_traits@D@std@@V?$allocator@D@2@@std@@V?$map@V?$basic_string@DU?$char_traits@D@std@@V?$allocator@D@2@@std@@PAVLineFrame@cacti@@Uicaseless@4@V?$allocator@U?$pair@$$CBV?$basic_string@DU?$char_traits@D@std@@V?$allocator@D@2@@std@@PAVLineFrame@cacti@@@std@@@2@@2@@std@@@2@$0A@@std@@@2@PAU342@@Z 00420e10 f i IniFile.obj
 0001:0001fe30       ?_Dec@const_iterator@?$_Tree@V?$_Tmap_traits@V?$basic_string@DU?$char_traits@D@std@@V?$allocator@D@2@@std@@V?$map@V?$basic_string@DU?$char_traits@D@std@@V?$allocator@D@2@@std@@PAVLineFrame@cacti@@Uicaseless@4@V?$allocator@U?$pair@$$CBV?$basic_string@DU?$char_traits@D@std@@V?$allocator@D@2@@std@@PAVLineFrame@cacti@@@std@@@2@@2@Uicaseless@cacti@@V?$allocator@U?$pair@$$CBV?$basic_string@DU?$char_traits@D@std@@V?$allocator@D@2@@std@@V?$map@V?$basic_string@DU?$char_traits@D@std@@V?$allocator@D@2@@std@@PAVLineFrame@cacti@@Uicaseless@4@V?$allocator@U?$pair@$$CBV?$basic_string@DU?$char_traits@D@std@@V?$allocator@D@2@@std@@PAVLineFrame@cacti@@@std@@@2@@2@@std@@@2@$0A@@std@@@std@@QAEXXZ 00420e30 f i IniFile.obj
 0001:0001fec0       ?_Inc@const_iterator@?$_Tree@V?$_Tmap_traits@V?$basic_string@DU?$char_traits@D@std@@V?$allocator@D@2@@std@@V?$map@V?$basic_string@DU?$char_traits@D@std@@V?$allocator@D@2@@std@@PAVLineFrame@cacti@@Uicaseless@4@V?$allocator@U?$pair@$$CBV?$basic_string@DU?$char_traits@D@std@@V?$allocator@D@2@@std@@PAVLineFrame@cacti@@@std@@@2@@2@Uicaseless@cacti@@V?$allocator@U?$pair@$$CBV?$basic_string@DU?$char_traits@D@std@@V?$allocator@D@2@@std@@V?$map@V?$basic_string@DU?$char_traits@D@std@@V?$allocator@D@2@@std@@PAVLineFrame@cacti@@Uicaseless@4@V?$allocator@U?$pair@$$CBV?$basic_string@DU?$char_traits@D@std@@V?$allocator@D@2@@std@@PAVLineFrame@cacti@@@std@@@2@@2@@std@@@2@$0A@@std@@@std@@QAEXXZ 00420ec0 f i IniFile.obj
 0001:0001ff30       ??$_Allocate@_W@std@@YAPA_WIPA_W@Z 00420f30 f i IniFile.obj
 0001:0001ff90       ??A?$basic_string@_WU?$char_traits@_W@std@@V?$allocator@_W@2@@std@@QAEAA_WI@Z 00420f90 f i IniFile.obj
 0001:0001ffc0       ??_G?$basic_istream@DU?$char_traits@D@std@@@std@@UAEPAXI@Z 00420fc0 f i IniFile.obj
 0001:0001ffc0       ??_E?$basic_istream@DU?$char_traits@D@std@@@std@@UAEPAXI@Z 00420fc0 f i IniFile.obj
 0001:00020000       ?find@?$basic_string@DU?$char_traits@D@std@@V?$allocator@D@2@@std@@QBEIPBDII@Z 00421000 f i IniFile.obj
 0001:000200c0       ?find_first_not_of@?$basic_string@DU?$char_traits@D@std@@V?$allocator@D@2@@std@@QBEIPBDII@Z 004210c0 f i IniFile.obj
 0001:00020140       ?_Lrotate@?$_Tree@V?$_Tmap_traits@V?$basic_string@DU?$char_traits@D@std@@V?$allocator@D@2@@std@@V?$map@V?$basic_string@DU?$char_traits@D@std@@V?$allocator@D@2@@std@@PAVLineFrame@cacti@@Uicaseless@4@V?$allocator@U?$pair@$$CBV?$basic_string@DU?$char_traits@D@std@@V?$allocator@D@2@@std@@PAVLineFrame@cacti@@@std@@@2@@2@Uicaseless@cacti@@V?$allocator@U?$pair@$$CBV?$basic_string@DU?$char_traits@D@std@@V?$allocator@D@2@@std@@V?$map@V?$basic_string@DU?$char_traits@D@std@@V?$allocator@D@2@@std@@PAVLineFrame@cacti@@Uicaseless@4@V?$allocator@U?$pair@$$CBV?$basic_string@DU?$char_traits@D@std@@V?$allocator@D@2@@std@@PAVLineFrame@cacti@@@std@@@2@@2@@std@@@2@$0A@@std@@@std@@IAEXPAU_Node@?$_Tree_nod@V?$_Tmap_traits@V?$basic_string@DU?$char_traits@D@std@@V?$allocator@D@2@@std@@V?$map@V?$basic_string@DU?$char_traits@D@std@@V?$allocator@D@2@@std@@PAVLineFrame@cacti@@Uicaseless@4@V?$allocator@U?$pair@$$CBV?$basic_string@DU?$char_traits@D@std@@V?$allocator@D@2@@std@@PAVLineFrame@cacti@@@std@@@2@@2@Uicaseless@cacti@@V?$allocator@U?$pair@$$CBV?$basic_string@DU?$char_traits@D@std@@V?$allocator@D@2@@std@@V?$map@V?$basic_string@DU?$char_traits@D@std@@V?$allocator@D@2@@std@@PAVLineFrame@cacti@@Uicaseless@4@V?$allocator@U?$pair@$$CBV?$basic_string@DU?$char_traits@D@std@@V?$allocator@D@2@@std@@PAVLineFrame@cacti@@@std@@@2@@2@@std@@@2@$0A@@std@@@2@@Z 00421140 f i IniFile.obj
 0001:00020190       ?_Rrotate@?$_Tree@V?$_Tmap_traits@V?$basic_string@DU?$char_traits@D@std@@V?$allocator@D@2@@std@@V?$map@V?$basic_string@DU?$char_traits@D@std@@V?$allocator@D@2@@std@@PAVLineFrame@cacti@@Uicaseless@4@V?$allocator@U?$pair@$$CBV?$basic_string@DU?$char_traits@D@std@@V?$allocator@D@2@@std@@PAVLineFrame@cacti@@@std@@@2@@2@Uicaseless@cacti@@V?$allocator@U?$pair@$$CBV?$basic_string@DU?$char_traits@D@std@@V?$allocator@D@2@@std@@V?$map@V?$basic_string@DU?$char_traits@D@std@@V?$allocator@D@2@@std@@PAVLineFrame@cacti@@Uicaseless@4@V?$allocator@U?$pair@$$CBV?$basic_string@DU?$char_traits@D@std@@V?$allocator@D@2@@std@@PAVLineFrame@cacti@@@std@@@2@@2@@std@@@2@$0A@@std@@@std@@IAEXPAU_Node@?$_Tree_nod@V?$_Tmap_traits@V?$basic_string@DU?$char_traits@D@std@@V?$allocator@D@2@@std@@V?$map@V?$basic_string@DU?$char_traits@D@std@@V?$allocator@D@2@@std@@PAVLineFrame@cacti@@Uicaseless@4@V?$allocator@U?$pair@$$CBV?$basic_string@DU?$char_traits@D@std@@V?$allocator@D@2@@std@@PAVLineFrame@cacti@@@std@@@2@@2@Uicaseless@cacti@@V?$allocator@U?$pair@$$CBV?$basic_string@DU?$char_traits@D@std@@V?$allocator@D@2@@std@@V?$map@V?$basic_string@DU?$char_traits@D@std@@V?$allocator@D@2@@std@@PAVLineFrame@cacti@@Uicaseless@4@V?$allocator@U?$pair@$$CBV?$basic_string@DU?$char_traits@D@std@@V?$allocator@D@2@@std@@PAVLineFrame@cacti@@@std@@@2@@2@@std@@@2@$0A@@std@@@2@@Z 00421190 f i IniFile.obj
 0001:000201f0       ?_Lrotate@?$_Tree@V?$_Tmap_traits@V?$basic_string@DU?$char_traits@D@std@@V?$allocator@D@2@@std@@PAUCDBProcInfo@@U?$less@V?$basic_string@DU?$char_traits@D@std@@V?$allocator@D@2@@std@@@2@V?$allocator@U?$pair@$$CBV?$basic_string@DU?$char_traits@D@std@@V?$allocator@D@2@@std@@PAUCDBProcInfo@@@std@@@2@$0A@@std@@@std@@IAEXPAU_Node@?$_Tree_nod@V?$_Tmap_traits@V?$basic_string@DU?$char_traits@D@std@@V?$allocator@D@2@@std@@PAUCDBProcInfo@@U?$less@V?$basic_string@DU?$char_traits@D@std@@V?$allocator@D@2@@std@@@2@V?$allocator@U?$pair@$$CBV?$basic_string@DU?$char_traits@D@std@@V?$allocator@D@2@@std@@PAUCDBProcInfo@@@std@@@2@$0A@@std@@@2@@Z 004211f0 f i dagwservice.obj
 0001:000201f0       ?_Lrotate@?$_Tree@V?$_Tmap_traits@V?$basic_string@DU?$char_traits@D@std@@V?$allocator@D@2@@std@@PAVLineFrame@cacti@@Uicaseless@4@V?$allocator@U?$pair@$$CBV?$basic_string@DU?$char_traits@D@std@@V?$allocator@D@2@@std@@PAVLineFrame@cacti@@@std@@@2@$0A@@std@@@std@@IAEXPAU_Node@?$_Tree_nod@V?$_Tmap_traits@V?$basic_string@DU?$char_traits@D@std@@V?$allocator@D@2@@std@@PAVLineFrame@cacti@@Uicaseless@4@V?$allocator@U?$pair@$$CBV?$basic_string@DU?$char_traits@D@std@@V?$allocator@D@2@@std@@PAVLineFrame@cacti@@@std@@@2@$0A@@std@@@2@@Z 004211f0 f i IniFile.obj
 0001:00020240       ??1_Sentry_base@?$basic_istream@DU?$char_traits@D@std@@@std@@QAE@XZ 00421240 f i IniFile.obj
 0001:00020240       ??1sentry@?$basic_istream@DU?$char_traits@D@std@@@std@@QAE@XZ 00421240 f i IniFile.obj
 0001:00020240       ??1_Sentry_base@?$basic_ostream@DU?$char_traits@D@std@@@std@@QAE@XZ 00421240 f i ConfigureLoader.obj
 0001:00020260       ?findComment@IniFile@cacti@@AAEIABV?$basic_string@DU?$char_traits@D@std@@V?$allocator@D@2@@std@@@Z 00421260 f   IniFile.obj
 0001:00020340       ?snextc@?$basic_streambuf@DU?$char_traits@D@std@@@std@@QAEHXZ 00421340 f i IniFile.obj
 0001:000203c0       ?_Tidy@?$basic_string@_WU?$char_traits@_W@std@@V?$allocator@_W@2@@std@@IAEX_NI@Z 004213c0 f i IniFile.obj
 0001:00020410       ?erase@?$basic_string@_WU?$char_traits@_W@std@@V?$allocator@_W@2@@std@@QAEAAV12@II@Z 00421410 f i IniFile.obj
 0001:000204b0       ?_Buynode@?$_Tree@V?$_Tmap_traits@V?$basic_string@DU?$char_traits@D@std@@V?$allocator@D@2@@std@@V?$map@V?$basic_string@DU?$char_traits@D@std@@V?$allocator@D@2@@std@@PAVLineFrame@cacti@@Uicaseless@4@V?$allocator@U?$pair@$$CBV?$basic_string@DU?$char_traits@D@std@@V?$allocator@D@2@@std@@PAVLineFrame@cacti@@@std@@@2@@2@Uicaseless@cacti@@V?$allocator@U?$pair@$$CBV?$basic_string@DU?$char_traits@D@std@@V?$allocator@D@2@@std@@V?$map@V?$basic_string@DU?$char_traits@D@std@@V?$allocator@D@2@@std@@PAVLineFrame@cacti@@Uicaseless@4@V?$allocator@U?$pair@$$CBV?$basic_string@DU?$char_traits@D@std@@V?$allocator@D@2@@std@@PAVLineFrame@cacti@@@std@@@2@@2@@std@@@2@$0A@@std@@@std@@IAEPAU_Node@?$_Tree_nod@V?$_Tmap_traits@V?$basic_string@DU?$char_traits@D@std@@V?$allocator@D@2@@std@@V?$map@V?$basic_string@DU?$char_traits@D@std@@V?$allocator@D@2@@std@@PAVLineFrame@cacti@@Uicaseless@4@V?$allocator@U?$pair@$$CBV?$basic_string@DU?$char_traits@D@std@@V?$allocator@D@2@@std@@PAVLineFrame@cacti@@@std@@@2@@2@Uicaseless@cacti@@V?$allocator@U?$pair@$$CBV?$basic_string@DU?$char_traits@D@std@@V?$allocator@D@2@@std@@V?$map@V?$basic_string@DU?$char_traits@D@std@@V?$allocator@D@2@@std@@PAVLineFrame@cacti@@Uicaseless@4@V?$allocator@U?$pair@$$CBV?$basic_string@DU?$char_traits@D@std@@V?$allocator@D@2@@std@@PAVLineFrame@cacti@@@std@@@2@@2@@std@@@2@$0A@@std@@@2@XZ 004214b0 f i IniFile.obj
 0001:000204f0       ?_Copy@?$basic_string@_WU?$char_traits@_W@std@@V?$allocator@_W@2@@std@@IAEXII@Z 004214f0 f i IniFile.obj
 0001:00020640       ??1?$basic_string@_WU?$char_traits@_W@std@@V?$allocator@_W@2@@std@@QAE@XZ 00421640 f i IniFile.obj
 0001:00020670       ??1Value@ConfigSection@@QAE@XZ 00421670 f i dbconnect.obj
 0001:00020670       ??1?$pair@$$CBV?$basic_string@DU?$char_traits@D@std@@V?$allocator@D@2@@std@@PAVLineFrame@cacti@@@std@@QAE@XZ 00421670 f i IniFile.obj
 0001:00020670       ??1?$pair@$$CBV?$basic_string@DU?$char_traits@D@std@@V?$allocator@D@2@@std@@PAUCDBProcInfo@@@std@@QAE@XZ 00421670 f i dagwservice.obj
 0001:00020670       ??1?$basic_string@DU?$char_traits@D@std@@V?$allocator@D@2@@std@@QAE@XZ 00421670 f i DllBase.obj
 0001:000206a0       ?_Grow@?$basic_string@_WU?$char_traits@_W@std@@V?$allocator@_W@2@@std@@IAE_NI_N@Z 004216a0 f i IniFile.obj
 0001:00020770       ??Ricaseless@cacti@@QBE_NABV?$basic_string@DU?$char_traits@D@std@@V?$allocator@D@2@@std@@0@Z 00421770 f i IniFile.obj
 0001:00020870       ??1LineFrame@cacti@@QAE@XZ 00421870 f i IniFile.obj
 0001:000208f0       ?resize@?$basic_string@DU?$char_traits@D@std@@V?$allocator@D@2@@std@@QAEXID@Z 004218f0 f i IniFile.obj
 0001:00020920       ?assign@?$basic_string@_WU?$char_traits@_W@std@@V?$allocator@_W@2@@std@@QAEAAV12@ABV12@II@Z 00421920 f i IniFile.obj
 0001:00020a10       ?assign@?$basic_string@_WU?$char_traits@_W@std@@V?$allocator@_W@2@@std@@QAEAAV12@I_W@Z 00421a10 f i IniFile.obj
 0001:00020ab0       ?_Lbound@?$_Tree@V?$_Tmap_traits@V?$basic_string@DU?$char_traits@D@std@@V?$allocator@D@2@@std@@V?$map@V?$basic_string@DU?$char_traits@D@std@@V?$allocator@D@2@@std@@PAVLineFrame@cacti@@Uicaseless@4@V?$allocator@U?$pair@$$CBV?$basic_string@DU?$char_traits@D@std@@V?$allocator@D@2@@std@@PAVLineFrame@cacti@@@std@@@2@@2@Uicaseless@cacti@@V?$allocator@U?$pair@$$CBV?$basic_string@DU?$char_traits@D@std@@V?$allocator@D@2@@std@@V?$map@V?$basic_string@DU?$char_traits@D@std@@V?$allocator@D@2@@std@@PAVLineFrame@cacti@@Uicaseless@4@V?$allocator@U?$pair@$$CBV?$basic_string@DU?$char_traits@D@std@@V?$allocator@D@2@@std@@PAVLineFrame@cacti@@@std@@@2@@2@@std@@@2@$0A@@std@@@std@@IBEPAU_Node@?$_Tree_nod@V?$_Tmap_traits@V?$basic_string@DU?$char_traits@D@std@@V?$allocator@D@2@@std@@V?$map@V?$basic_string@DU?$char_traits@D@std@@V?$allocator@D@2@@std@@PAVLineFrame@cacti@@Uicaseless@4@V?$allocator@U?$pair@$$CBV?$basic_string@DU?$char_traits@D@std@@V?$allocator@D@2@@std@@PAVLineFrame@cacti@@@std@@@2@@2@Uicaseless@cacti@@V?$allocator@U?$pair@$$CBV?$basic_string@DU?$char_traits@D@std@@V?$allocator@D@2@@std@@V?$map@V?$basic_string@DU?$char_traits@D@std@@V?$allocator@D@2@@std@@PAVLineFrame@cacti@@Uicaseless@4@V?$allocator@U?$pair@$$CBV?$basic_string@DU?$char_traits@D@std@@V?$allocator@D@2@@std@@PAVLineFrame@cacti@@@std@@@2@@2@@std@@@2@$0A@@std@@@2@ABV?$basic_string@DU?$char_traits@D@std@@V?$allocator@D@2@@2@@Z 00421ab0 f i IniFile.obj
 0001:00020af0       ?_Lbound@?$_Tree@V?$_Tmap_traits@V?$basic_string@DU?$char_traits@D@std@@V?$allocator@D@2@@std@@PAVLineFrame@cacti@@Uicaseless@4@V?$allocator@U?$pair@$$CBV?$basic_string@DU?$char_traits@D@std@@V?$allocator@D@2@@std@@PAVLineFrame@cacti@@@std@@@2@$0A@@std@@@std@@IBEPAU_Node@?$_Tree_nod@V?$_Tmap_traits@V?$basic_string@DU?$char_traits@D@std@@V?$allocator@D@2@@std@@PAVLineFrame@cacti@@Uicaseless@4@V?$allocator@U?$pair@$$CBV?$basic_string@DU?$char_traits@D@std@@V?$allocator@D@2@@std@@PAVLineFrame@cacti@@@std@@@2@$0A@@std@@@2@ABV?$basic_string@DU?$char_traits@D@std@@V?$allocator@D@2@@2@@Z 00421af0 f i IniFile.obj
 0001:00020b30       ??0?$basic_string@_WU?$char_traits@_W@std@@V?$allocator@_W@2@@std@@QAE@I_W@Z 00421b30 f i IniFile.obj
 0001:00020b60       ??0?$basic_string@_WU?$char_traits@_W@std@@V?$allocator@_W@2@@std@@QAE@ABV01@@Z 00421b60 f i IniFile.obj
 0001:00020b90       ??$?0V?$basic_string@DU?$char_traits@D@std@@V?$allocator@D@2@@std@@V01@@?$pair@$$CBV?$basic_string@DU?$char_traits@D@std@@V?$allocator@D@2@@std@@V12@@std@@QAE@ABU?$pair@V?$basic_string@DU?$char_traits@D@std@@V?$allocator@D@2@@std@@V12@@1@@Z 00421b90 f i IniFile.obj
 0001:00020c10       ??0?$pair@V?$basic_string@DU?$char_traits@D@std@@V?$allocator@D@2@@std@@V12@@std@@QAE@ABV?$basic_string@DU?$char_traits@D@std@@V?$allocator@D@2@@1@0@Z 00421c10 f i IniFile.obj
 0001:00020c90       ?find@?$_Tree@V?$_Tmap_traits@V?$basic_string@DU?$char_traits@D@std@@V?$allocator@D@2@@std@@V?$map@V?$basic_string@DU?$char_traits@D@std@@V?$allocator@D@2@@std@@PAVLineFrame@cacti@@Uicaseless@4@V?$allocator@U?$pair@$$CBV?$basic_string@DU?$char_traits@D@std@@V?$allocator@D@2@@std@@PAVLineFrame@cacti@@@std@@@2@@2@Uicaseless@cacti@@V?$allocator@U?$pair@$$CBV?$basic_string@DU?$char_traits@D@std@@V?$allocator@D@2@@std@@V?$map@V?$basic_string@DU?$char_traits@D@std@@V?$allocator@D@2@@std@@PAVLineFrame@cacti@@Uicaseless@4@V?$allocator@U?$pair@$$CBV?$basic_string@DU?$char_traits@D@std@@V?$allocator@D@2@@std@@PAVLineFrame@cacti@@@std@@@2@@2@@std@@@2@$0A@@std@@@std@@QAE?AViterator@12@ABV?$basic_string@DU?$char_traits@D@std@@V?$allocator@D@2@@2@@Z 00421c90 f i IniFile.obj
 0001:00020d00       ?find@?$_Tree@V?$_Tmap_traits@V?$basic_string@DU?$char_traits@D@std@@V?$allocator@D@2@@std@@PAVLineFrame@cacti@@Uicaseless@4@V?$allocator@U?$pair@$$CBV?$basic_string@DU?$char_traits@D@std@@V?$allocator@D@2@@std@@PAVLineFrame@cacti@@@std@@@2@$0A@@std@@@std@@QAE?AViterator@12@ABV?$basic_string@DU?$char_traits@D@std@@V?$allocator@D@2@@2@@Z 00421d00 f i IniFile.obj
 0001:00020d70       ?_Incsize@?$list@PAVLineFrame@cacti@@V?$allocator@PAVLineFrame@cacti@@@std@@@std@@IAEXI@Z 00421d70 f i IniFile.obj
 0001:00020e10       ??0_Node@?$_Tree_nod@V?$_Tmap_traits@V?$basic_string@DU?$char_traits@D@std@@V?$allocator@D@2@@std@@PAVLineFrame@cacti@@Uicaseless@4@V?$allocator@U?$pair@$$CBV?$basic_string@DU?$char_traits@D@std@@V?$allocator@D@2@@std@@PAVLineFrame@cacti@@@std@@@2@$0A@@std@@@std@@QAE@PAU012@00ABU?$pair@$$CBV?$basic_string@DU?$char_traits@D@std@@V?$allocator@D@2@@std@@PAVLineFrame@cacti@@@2@D@Z 00421e10 f i IniFile.obj
 0001:00020e10       ??0_Node@?$_Tree_nod@V?$_Tmap_traits@V?$basic_string@DU?$char_traits@D@std@@V?$allocator@D@2@@std@@PAUCDBProcInfo@@U?$less@V?$basic_string@DU?$char_traits@D@std@@V?$allocator@D@2@@std@@@2@V?$allocator@U?$pair@$$CBV?$basic_string@DU?$char_traits@D@std@@V?$allocator@D@2@@std@@PAUCDBProcInfo@@@std@@@2@$0A@@std@@@std@@QAE@PAU012@00ABU?$pair@$$CBV?$basic_string@DU?$char_traits@D@std@@V?$allocator@D@2@@std@@PAUCDBProcInfo@@@2@D@Z 00421e10 f i dagwservice.obj
 0001:00020e70       ??$make_pair@V?$basic_string@DU?$char_traits@D@std@@V?$allocator@D@2@@std@@V12@@std@@YA?AU?$pair@V?$basic_string@DU?$char_traits@D@std@@V?$allocator@D@2@@std@@V12@@0@V?$basic_string@DU?$char_traits@D@std@@V?$allocator@D@2@@0@0@Z 00421e70 f i IniFile.obj
 0001:00020f10       ?to_wcs@cacti@@YA?BV?$basic_string@_WU?$char_traits@_W@std@@V?$allocator@_W@2@@std@@ABV?$basic_string@DU?$char_traits@D@std@@V?$allocator@D@2@@3@@Z 00421f10 f   IniFile.obj
 0001:00021050       ?findFrame@IniFile@cacti@@AAEPAVLineFrame@2@PBD0@Z 00422050 f   IniFile.obj
 0001:000211d0       ?erase@?$_Tree@V?$_Tmap_traits@V?$basic_string@DU?$char_traits@D@std@@V?$allocator@D@2@@std@@PAVLineFrame@cacti@@Uicaseless@4@V?$allocator@U?$pair@$$CBV?$basic_string@DU?$char_traits@D@std@@V?$allocator@D@2@@std@@PAVLineFrame@cacti@@@std@@@2@$0A@@std@@@std@@QAE?AViterator@12@V312@@Z 004221d0 f i IniFile.obj
 0001:000214c0       ?_Buynode@?$_Tree@V?$_Tmap_traits@V?$basic_string@DU?$char_traits@D@std@@V?$allocator@D@2@@std@@PAVLineFrame@cacti@@Uicaseless@4@V?$allocator@U?$pair@$$CBV?$basic_string@DU?$char_traits@D@std@@V?$allocator@D@2@@std@@PAVLineFrame@cacti@@@std@@@2@$0A@@std@@@std@@IAEPAU_Node@?$_Tree_nod@V?$_Tmap_traits@V?$basic_string@DU?$char_traits@D@std@@V?$allocator@D@2@@std@@PAVLineFrame@cacti@@Uicaseless@4@V?$allocator@U?$pair@$$CBV?$basic_string@DU?$char_traits@D@std@@V?$allocator@D@2@@std@@PAVLineFrame@cacti@@@std@@@2@$0A@@std@@@2@PAU342@00ABU?$pair@$$CBV?$basic_string@DU?$char_traits@D@std@@V?$allocator@D@2@@std@@PAVLineFrame@cacti@@@2@D@Z 004224c0 f i IniFile.obj
 0001:00021560       ?_Copy@?$_Tree@V?$_Tmap_traits@V?$basic_string@DU?$char_traits@D@std@@V?$allocator@D@2@@std@@PAVLineFrame@cacti@@Uicaseless@4@V?$allocator@U?$pair@$$CBV?$basic_string@DU?$char_traits@D@std@@V?$allocator@D@2@@std@@PAVLineFrame@cacti@@@std@@@2@$0A@@std@@@std@@IAEPAU_Node@?$_Tree_nod@V?$_Tmap_traits@V?$basic_string@DU?$char_traits@D@std@@V?$allocator@D@2@@std@@PAVLineFrame@cacti@@Uicaseless@4@V?$allocator@U?$pair@$$CBV?$basic_string@DU?$char_traits@D@std@@V?$allocator@D@2@@std@@PAVLineFrame@cacti@@@std@@@2@$0A@@std@@@2@PAU342@0@Z 00422560 f i IniFile.obj
 0001:00021620       ?readInt@IniFile@cacti@@QAEHPBD0H@Z 00422620 f   IniFile.obj
 0001:00021760       ?readString@IniFile@cacti@@QAEPBDPBD00@Z 00422760 f   IniFile.obj
 0001:00021790       ??1?$basic_ifstream@DU?$char_traits@D@std@@@std@@UAE@XZ 00422790 f i IniFile.obj
 0001:00021800       ?_Insert@?$_Tree@V?$_Tmap_traits@V?$basic_string@DU?$char_traits@D@std@@V?$allocator@D@2@@std@@PAVLineFrame@cacti@@Uicaseless@4@V?$allocator@U?$pair@$$CBV?$basic_string@DU?$char_traits@D@std@@V?$allocator@D@2@@std@@PAVLineFrame@cacti@@@std@@@2@$0A@@std@@@std@@IAE?AViterator@12@_NPAU_Node@?$_Tree_nod@V?$_Tmap_traits@V?$basic_string@DU?$char_traits@D@std@@V?$allocator@D@2@@std@@PAVLineFrame@cacti@@Uicaseless@4@V?$allocator@U?$pair@$$CBV?$basic_string@DU?$char_traits@D@std@@V?$allocator@D@2@@std@@PAVLineFrame@cacti@@@std@@@2@$0A@@std@@@2@ABU?$pair@$$CBV?$basic_string@DU?$char_traits@D@std@@V?$allocator@D@2@@std@@PAVLineFrame@cacti@@@2@@Z 00422800 f i IniFile.obj
 0001:00021a00       ?_Copy@?$_Tree@V?$_Tmap_traits@V?$basic_string@DU?$char_traits@D@std@@V?$allocator@D@2@@std@@PAVLineFrame@cacti@@Uicaseless@4@V?$allocator@U?$pair@$$CBV?$basic_string@DU?$char_traits@D@std@@V?$allocator@D@2@@std@@PAVLineFrame@cacti@@@std@@@2@$0A@@std@@@std@@IAEXABV12@@Z 00422a00 f i IniFile.obj
 0001:00021a80       ??_D?$basic_ifstream@DU?$char_traits@D@std@@@std@@QAEXXZ 00422a80 f i IniFile.obj
 0001:00021aa0       ?parseLine@IniFile@cacti@@AAEXABV?$basic_string@DU?$char_traits@D@std@@V?$allocator@D@2@@std@@@Z 00422aa0 f   IniFile.obj
 0001:00021f10       ??_G?$basic_ifstream@DU?$char_traits@D@std@@@std@@UAEPAXI@Z 00422f10 f i IniFile.obj
 0001:00021f10       ??_E?$basic_ifstream@DU?$char_traits@D@std@@@std@@UAEPAXI@Z 00422f10 f i IniFile.obj
 0001:00021f50       ?_Ipfx@?$basic_istream@DU?$char_traits@D@std@@@std@@QAE_N_N@Z 00422f50 f i IniFile.obj
 0001:000220f0       ?erase@?$_Tree@V?$_Tmap_traits@V?$basic_string@DU?$char_traits@D@std@@V?$allocator@D@2@@std@@PAVLineFrame@cacti@@Uicaseless@4@V?$allocator@U?$pair@$$CBV?$basic_string@DU?$char_traits@D@std@@V?$allocator@D@2@@std@@PAVLineFrame@cacti@@@std@@@2@$0A@@std@@@std@@QAE?AViterator@12@V312@0@Z 004230f0 f i IniFile.obj
 0001:000221c0       ??0?$_Tree@V?$_Tmap_traits@V?$basic_string@DU?$char_traits@D@std@@V?$allocator@D@2@@std@@PAVLineFrame@cacti@@Uicaseless@4@V?$allocator@U?$pair@$$CBV?$basic_string@DU?$char_traits@D@std@@V?$allocator@D@2@@std@@PAVLineFrame@cacti@@@std@@@2@$0A@@std@@@std@@QAE@ABV01@@Z 004231c0 f i IniFile.obj
 0001:00022250       ?insert@?$_Tree@V?$_Tmap_traits@V?$basic_string@DU?$char_traits@D@std@@V?$allocator@D@2@@std@@PAVLineFrame@cacti@@Uicaseless@4@V?$allocator@U?$pair@$$CBV?$basic_string@DU?$char_traits@D@std@@V?$allocator@D@2@@std@@PAVLineFrame@cacti@@@std@@@2@$0A@@std@@@std@@QAE?AU?$pair@Viterator@?$_Tree@V?$_Tmap_traits@V?$basic_string@DU?$char_traits@D@std@@V?$allocator@D@2@@std@@PAVLineFrame@cacti@@Uicaseless@4@V?$allocator@U?$pair@$$CBV?$basic_string@DU?$char_traits@D@std@@V?$allocator@D@2@@std@@PAVLineFrame@cacti@@@std@@@2@$0A@@std@@@std@@_N@2@ABU?$pair@$$CBV?$basic_string@DU?$char_traits@D@std@@V?$allocator@D@2@@std@@PAVLineFrame@cacti@@@2@@Z 00423250 f i IniFile.obj
 0001:00022340       ??0sentry@?$basic_istream@DU?$char_traits@D@std@@@std@@QAE@AAV12@_N@Z 00423340 f i IniFile.obj
 0001:000223b0       ??0?$basic_istream@DU?$char_traits@D@std@@@std@@QAE@PAV?$basic_streambuf@DU?$char_traits@D@std@@@1@_N@Z 004233b0 f i IniFile.obj
 0001:00022440       ?open@?$basic_filebuf@DU?$char_traits@D@std@@@std@@QAEPAV12@PB_WHH@Z 00423440 f i IniFile.obj
 0001:00022560       ?insert@?$_Tree@V?$_Tmap_traits@V?$basic_string@DU?$char_traits@D@std@@V?$allocator@D@2@@std@@PAVLineFrame@cacti@@Uicaseless@4@V?$allocator@U?$pair@$$CBV?$basic_string@DU?$char_traits@D@std@@V?$allocator@D@2@@std@@PAVLineFrame@cacti@@@std@@@2@$0A@@std@@@std@@QAE?AViterator@12@V312@ABU?$pair@$$CBV?$basic_string@DU?$char_traits@D@std@@V?$allocator@D@2@@std@@PAVLineFrame@cacti@@@2@@Z 00423560 f i IniFile.obj
 0001:00022760       ??$getline@DU?$char_traits@D@std@@V?$allocator@D@2@@std@@YAAAV?$basic_istream@DU?$char_traits@D@std@@@0@AAV10@AAV?$basic_string@DU?$char_traits@D@std@@V?$allocator@D@2@@0@D@Z 00423760 f i IniFile.obj
 0001:00022910       ??1?$map@V?$basic_string@DU?$char_traits@D@std@@V?$allocator@D@2@@std@@PAVLineFrame@cacti@@Uicaseless@4@V?$allocator@U?$pair@$$CBV?$basic_string@DU?$char_traits@D@std@@V?$allocator@D@2@@std@@PAVLineFrame@cacti@@@std@@@2@@std@@QAE@XZ 00423910 f i IniFile.obj
 0001:00022910       ?_Tidy@?$_Tree@V?$_Tmap_traits@V?$basic_string@DU?$char_traits@D@std@@V?$allocator@D@2@@std@@PAVLineFrame@cacti@@Uicaseless@4@V?$allocator@U?$pair@$$CBV?$basic_string@DU?$char_traits@D@std@@V?$allocator@D@2@@std@@PAVLineFrame@cacti@@@std@@@2@$0A@@std@@@std@@IAEXXZ 00423910 f i IniFile.obj
 0001:00022950       ??1?$pair@V?$basic_string@DU?$char_traits@D@std@@V?$allocator@D@2@@std@@V?$map@V?$basic_string@DU?$char_traits@D@std@@V?$allocator@D@2@@std@@PAVLineFrame@cacti@@Uicaseless@4@V?$allocator@U?$pair@$$CBV?$basic_string@DU?$char_traits@D@std@@V?$allocator@D@2@@std@@PAVLineFrame@cacti@@@std@@@2@@2@@std@@QAE@XZ 00423950 f i IniFile.obj
 0001:000229e0       ??1?$pair@$$CBV?$basic_string@DU?$char_traits@D@std@@V?$allocator@D@2@@std@@V?$map@V?$basic_string@DU?$char_traits@D@std@@V?$allocator@D@2@@std@@PAVLineFrame@cacti@@Uicaseless@4@V?$allocator@U?$pair@$$CBV?$basic_string@DU?$char_traits@D@std@@V?$allocator@D@2@@std@@PAVLineFrame@cacti@@@std@@@2@@2@@std@@QAE@XZ 004239e0 f i IniFile.obj
 0001:00022a70       ??0?$basic_ifstream@DU?$char_traits@D@std@@@std@@QAE@PB_WHH@Z 00423a70 f i IniFile.obj
 0001:00022bb0       ??A?$map@V?$basic_string@DU?$char_traits@D@std@@V?$allocator@D@2@@std@@PAVLineFrame@cacti@@Uicaseless@4@V?$allocator@U?$pair@$$CBV?$basic_string@DU?$char_traits@D@std@@V?$allocator@D@2@@std@@PAVLineFrame@cacti@@@std@@@2@@std@@QAEAAPAVLineFrame@cacti@@ABV?$basic_string@DU?$char_traits@D@std@@V?$allocator@D@2@@1@@Z 00423bb0 f i IniFile.obj
 0001:00022ca0       ??0?$pair@$$CBV?$basic_string@DU?$char_traits@D@std@@V?$allocator@D@2@@std@@V?$map@V?$basic_string@DU?$char_traits@D@std@@V?$allocator@D@2@@std@@PAVLineFrame@cacti@@Uicaseless@4@V?$allocator@U?$pair@$$CBV?$basic_string@DU?$char_traits@D@std@@V?$allocator@D@2@@std@@PAVLineFrame@cacti@@@std@@@2@@2@@std@@QAE@ABU01@@Z 00423ca0 f i IniFile.obj
 0001:00022d20       ??$?0V?$basic_string@DU?$char_traits@D@std@@V?$allocator@D@2@@std@@V?$map@V?$basic_string@DU?$char_traits@D@std@@V?$allocator@D@2@@std@@PAVLineFrame@cacti@@Uicaseless@4@V?$allocator@U?$pair@$$CBV?$basic_string@DU?$char_traits@D@std@@V?$allocator@D@2@@std@@PAVLineFrame@cacti@@@std@@@2@@1@@?$pair@$$CBV?$basic_string@DU?$char_traits@D@std@@V?$allocator@D@2@@std@@V?$map@V?$basic_string@DU?$char_traits@D@std@@V?$allocator@D@2@@std@@PAVLineFrame@cacti@@Uicaseless@4@V?$allocator@U?$pair@$$CBV?$basic_string@DU?$char_traits@D@std@@V?$allocator@D@2@@std@@PAVLineFrame@cacti@@@std@@@2@@2@@std@@QAE@ABU?$pair@V?$basic_string@DU?$char_traits@D@std@@V?$allocator@D@2@@std@@V?$map@V?$basic_string@DU?$char_traits@D@std@@V?$allocator@D@2@@std@@PAVLineFrame@cacti@@Uicaseless@4@V?$allocator@U?$pair@$$CBV?$basic_string@DU?$char_traits@D@std@@V?$allocator@D@2@@std@@PAVLineFrame@cacti@@@std@@@2@@2@@1@@Z 00423d20 f i IniFile.obj
 0001:00022da0       ??0?$pair@V?$basic_string@DU?$char_traits@D@std@@V?$allocator@D@2@@std@@V?$map@V?$basic_string@DU?$char_traits@D@std@@V?$allocator@D@2@@std@@PAVLineFrame@cacti@@Uicaseless@4@V?$allocator@U?$pair@$$CBV?$basic_string@DU?$char_traits@D@std@@V?$allocator@D@2@@std@@PAVLineFrame@cacti@@@std@@@2@@2@@std@@QAE@ABV?$basic_string@DU?$char_traits@D@std@@V?$allocator@D@2@@1@ABV?$map@V?$basic_string@DU?$char_traits@D@std@@V?$allocator@D@2@@std@@PAVLineFrame@cacti@@Uicaseless@4@V?$allocator@U?$pair@$$CBV?$basic_string@DU?$char_traits@D@std@@V?$allocator@D@2@@std@@PAVLineFrame@cacti@@@std@@@2@@1@@Z 00423da0 f i IniFile.obj
 0001:00022e20       ??$make_pair@V?$basic_string@DU?$char_traits@D@std@@V?$allocator@D@2@@std@@V?$map@V?$basic_string@DU?$char_traits@D@std@@V?$allocator@D@2@@std@@PAVLineFrame@cacti@@Uicaseless@4@V?$allocator@U?$pair@$$CBV?$basic_string@DU?$char_traits@D@std@@V?$allocator@D@2@@std@@PAVLineFrame@cacti@@@std@@@2@@2@@std@@YA?AU?$pair@V?$basic_string@DU?$char_traits@D@std@@V?$allocator@D@2@@std@@V?$map@V?$basic_string@DU?$char_traits@D@std@@V?$allocator@D@2@@std@@PAVLineFrame@cacti@@Uicaseless@4@V?$allocator@U?$pair@$$CBV?$basic_string@DU?$char_traits@D@std@@V?$allocator@D@2@@std@@PAVLineFrame@cacti@@@std@@@2@@2@@0@V?$basic_string@DU?$char_traits@D@std@@V?$allocator@D@2@@0@V?$map@V?$basic_string@DU?$char_traits@D@std@@V?$allocator@D@2@@std@@PAVLineFrame@cacti@@Uicaseless@4@V?$allocator@U?$pair@$$CBV?$basic_string@DU?$char_traits@D@std@@V?$allocator@D@2@@std@@PAVLineFrame@cacti@@@std@@@2@@0@@Z 00423e20 f i IniFile.obj
 0001:00022ee0       ?_Buynode@?$_Tree@V?$_Tmap_traits@V?$basic_string@DU?$char_traits@D@std@@V?$allocator@D@2@@std@@V?$map@V?$basic_string@DU?$char_traits@D@std@@V?$allocator@D@2@@std@@PAVLineFrame@cacti@@Uicaseless@4@V?$allocator@U?$pair@$$CBV?$basic_string@DU?$char_traits@D@std@@V?$allocator@D@2@@std@@PAVLineFrame@cacti@@@std@@@2@@2@Uicaseless@cacti@@V?$allocator@U?$pair@$$CBV?$basic_string@DU?$char_traits@D@std@@V?$allocator@D@2@@std@@V?$map@V?$basic_string@DU?$char_traits@D@std@@V?$allocator@D@2@@std@@PAVLineFrame@cacti@@Uicaseless@4@V?$allocator@U?$pair@$$CBV?$basic_string@DU?$char_traits@D@std@@V?$allocator@D@2@@std@@PAVLineFrame@cacti@@@std@@@2@@2@@std@@@2@$0A@@std@@@std@@IAEPAU_Node@?$_Tree_nod@V?$_Tmap_traits@V?$basic_string@DU?$char_traits@D@std@@V?$allocator@D@2@@std@@V?$map@V?$basic_string@DU?$char_traits@D@std@@V?$allocator@D@2@@std@@PAVLineFrame@cacti@@Uicaseless@4@V?$allocator@U?$pair@$$CBV?$basic_string@DU?$char_traits@D@std@@V?$allocator@D@2@@std@@PAVLineFrame@cacti@@@std@@@2@@2@Uicaseless@cacti@@V?$allocator@U?$pair@$$CBV?$basic_string@DU?$char_traits@D@std@@V?$allocator@D@2@@std@@V?$map@V?$basic_string@DU?$char_traits@D@std@@V?$allocator@D@2@@std@@PAVLineFrame@cacti@@Uicaseless@4@V?$allocator@U?$pair@$$CBV?$basic_string@DU?$char_traits@D@std@@V?$allocator@D@2@@std@@PAVLineFrame@cacti@@@std@@@2@@2@@std@@@2@$0A@@std@@@2@PAU342@00ABU?$pair@$$CBV?$basic_string@DU?$char_traits@D@std@@V?$allocator@D@2@@std@@V?$map@V?$basic_string@DU?$char_traits@D@std@@V?$allocator@D@2@@std@@PAVLineFrame@cacti@@Uicaseless@4@V?$allocator@U?$pair@$$CBV?$basic_string@DU?$char_traits@D@std@@V?$allocator@D@2@@std@@PAVLineFrame@cacti@@@std@@@2@@2@@2@D@Z 00423ee0 f i IniFile.obj
 0001:00022f80       ?_Insert@?$_Tree@V?$_Tmap_traits@V?$basic_string@DU?$char_traits@D@std@@V?$allocator@D@2@@std@@V?$map@V?$basic_string@DU?$char_traits@D@std@@V?$allocator@D@2@@std@@PAVLineFrame@cacti@@Uicaseless@4@V?$allocator@U?$pair@$$CBV?$basic_string@DU?$char_traits@D@std@@V?$allocator@D@2@@std@@PAVLineFrame@cacti@@@std@@@2@@2@Uicaseless@cacti@@V?$allocator@U?$pair@$$CBV?$basic_string@DU?$char_traits@D@std@@V?$allocator@D@2@@std@@V?$map@V?$basic_string@DU?$char_traits@D@std@@V?$allocator@D@2@@std@@PAVLineFrame@cacti@@Uicaseless@4@V?$allocator@U?$pair@$$CBV?$basic_string@DU?$char_traits@D@std@@V?$allocator@D@2@@std@@PAVLineFrame@cacti@@@std@@@2@@2@@std@@@2@$0A@@std@@@std@@IAE?AViterator@12@_NPAU_Node@?$_Tree_nod@V?$_Tmap_traits@V?$basic_string@DU?$char_traits@D@std@@V?$allocator@D@2@@std@@V?$map@V?$basic_string@DU?$char_traits@D@std@@V?$allocator@D@2@@std@@PAVLineFrame@cacti@@Uicaseless@4@V?$allocator@U?$pair@$$CBV?$basic_string@DU?$char_traits@D@std@@V?$allocator@D@2@@std@@PAVLineFrame@cacti@@@std@@@2@@2@Uicaseless@cacti@@V?$allocator@U?$pair@$$CBV?$basic_string@DU?$char_traits@D@std@@V?$allocator@D@2@@std@@V?$map@V?$basic_string@DU?$char_traits@D@std@@V?$allocator@D@2@@std@@PAVLineFrame@cacti@@Uicaseless@4@V?$allocator@U?$pair@$$CBV?$basic_string@DU?$char_traits@D@std@@V?$allocator@D@2@@std@@PAVLineFrame@cacti@@@std@@@2@@2@@std@@@2@$0A@@std@@@2@ABU?$pair@$$CBV?$basic_string@DU?$char_traits@D@std@@V?$allocator@D@2@@std@@V?$map@V?$basic_string@DU?$char_traits@D@std@@V?$allocator@D@2@@std@@PAVLineFrame@cacti@@Uicaseless@4@V?$allocator@U?$pair@$$CBV?$basic_string@DU?$char_traits@D@std@@V?$allocator@D@2@@std@@PAVLineFrame@cacti@@@std@@@2@@2@@2@@Z 00423f80 f i IniFile.obj
 0001:00023180       ?insert@?$_Tree@V?$_Tmap_traits@V?$basic_string@DU?$char_traits@D@std@@V?$allocator@D@2@@std@@V?$map@V?$basic_string@DU?$char_traits@D@std@@V?$allocator@D@2@@std@@PAVLineFrame@cacti@@Uicaseless@4@V?$allocator@U?$pair@$$CBV?$basic_string@DU?$char_traits@D@std@@V?$allocator@D@2@@std@@PAVLineFrame@cacti@@@std@@@2@@2@Uicaseless@cacti@@V?$allocator@U?$pair@$$CBV?$basic_string@DU?$char_traits@D@std@@V?$allocator@D@2@@std@@V?$map@V?$basic_string@DU?$char_traits@D@std@@V?$allocator@D@2@@std@@PAVLineFrame@cacti@@Uicaseless@4@V?$allocator@U?$pair@$$CBV?$basic_string@DU?$char_traits@D@std@@V?$allocator@D@2@@std@@PAVLineFrame@cacti@@@std@@@2@@2@@std@@@2@$0A@@std@@@std@@QAE?AU?$pair@Viterator@?$_Tree@V?$_Tmap_traits@V?$basic_string@DU?$char_traits@D@std@@V?$allocator@D@2@@std@@V?$map@V?$basic_string@DU?$char_traits@D@std@@V?$allocator@D@2@@std@@PAVLineFrame@cacti@@Uicaseless@4@V?$allocator@U?$pair@$$CBV?$basic_string@DU?$char_traits@D@std@@V?$allocator@D@2@@std@@PAVLineFrame@cacti@@@std@@@2@@2@Uicaseless@cacti@@V?$allocator@U?$pair@$$CBV?$basic_string@DU?$char_traits@D@std@@V?$allocator@D@2@@std@@V?$map@V?$basic_string@DU?$char_traits@D@std@@V?$allocator@D@2@@std@@PAVLineFrame@cacti@@Uicaseless@4@V?$allocator@U?$pair@$$CBV?$basic_string@DU?$char_traits@D@std@@V?$allocator@D@2@@std@@PAVLineFrame@cacti@@@std@@@2@@2@@std@@@2@$0A@@std@@@std@@_N@2@ABU?$pair@$$CBV?$basic_string@DU?$char_traits@D@std@@V?$allocator@D@2@@std@@V?$map@V?$basic_string@DU?$char_traits@D@std@@V?$allocator@D@2@@std@@PAVLineFrame@cacti@@Uicaseless@4@V?$allocator@U?$pair@$$CBV?$basic_string@DU?$char_traits@D@std@@V?$allocator@D@2@@std@@PAVLineFrame@cacti@@@std@@@2@@2@@2@@Z 00424180 f i IniFile.obj
 0001:00023270       ?_Erase@?$_Tree@V?$_Tmap_traits@V?$basic_string@DU?$char_traits@D@std@@V?$allocator@D@2@@std@@V?$map@V?$basic_string@DU?$char_traits@D@std@@V?$allocator@D@2@@std@@PAVLineFrame@cacti@@Uicaseless@4@V?$allocator@U?$pair@$$CBV?$basic_string@DU?$char_traits@D@std@@V?$allocator@D@2@@std@@PAVLineFrame@cacti@@@std@@@2@@2@Uicaseless@cacti@@V?$allocator@U?$pair@$$CBV?$basic_string@DU?$char_traits@D@std@@V?$allocator@D@2@@std@@V?$map@V?$basic_string@DU?$char_traits@D@std@@V?$allocator@D@2@@std@@PAVLineFrame@cacti@@Uicaseless@4@V?$allocator@U?$pair@$$CBV?$basic_string@DU?$char_traits@D@std@@V?$allocator@D@2@@std@@PAVLineFrame@cacti@@@std@@@2@@2@@std@@@2@$0A@@std@@@std@@IAEXPAU_Node@?$_Tree_nod@V?$_Tmap_traits@V?$basic_string@DU?$char_traits@D@std@@V?$allocator@D@2@@std@@V?$map@V?$basic_string@DU?$char_traits@D@std@@V?$allocator@D@2@@std@@PAVLineFrame@cacti@@Uicaseless@4@V?$allocator@U?$pair@$$CBV?$basic_string@DU?$char_traits@D@std@@V?$allocator@D@2@@std@@PAVLineFrame@cacti@@@std@@@2@@2@Uicaseless@cacti@@V?$allocator@U?$pair@$$CBV?$basic_string@DU?$char_traits@D@std@@V?$allocator@D@2@@std@@V?$map@V?$basic_string@DU?$char_traits@D@std@@V?$allocator@D@2@@std@@PAVLineFrame@cacti@@Uicaseless@4@V?$allocator@U?$pair@$$CBV?$basic_string@DU?$char_traits@D@std@@V?$allocator@D@2@@std@@PAVLineFrame@cacti@@@std@@@2@@2@@std@@@2@$0A@@std@@@2@@Z 00424270 f i IniFile.obj
 0001:000232b0       ?erase@?$_Tree@V?$_Tmap_traits@V?$basic_string@DU?$char_traits@D@std@@V?$allocator@D@2@@std@@V?$map@V?$basic_string@DU?$char_traits@D@std@@V?$allocator@D@2@@std@@PAVLineFrame@cacti@@Uicaseless@4@V?$allocator@U?$pair@$$CBV?$basic_string@DU?$char_traits@D@std@@V?$allocator@D@2@@std@@PAVLineFrame@cacti@@@std@@@2@@2@Uicaseless@cacti@@V?$allocator@U?$pair@$$CBV?$basic_string@DU?$char_traits@D@std@@V?$allocator@D@2@@std@@V?$map@V?$basic_string@DU?$char_traits@D@std@@V?$allocator@D@2@@std@@PAVLineFrame@cacti@@Uicaseless@4@V?$allocator@U?$pair@$$CBV?$basic_string@DU?$char_traits@D@std@@V?$allocator@D@2@@std@@PAVLineFrame@cacti@@@std@@@2@@2@@std@@@2@$0A@@std@@@std@@QAE?AViterator@12@V312@@Z 004242b0 f i IniFile.obj
 0001:00023580       ?makeIndex@IniFile@cacti@@AAEXXZ 00424580 f   IniFile.obj
 0001:00023740       ?erase@?$_Tree@V?$_Tmap_traits@V?$basic_string@DU?$char_traits@D@std@@V?$allocator@D@2@@std@@V?$map@V?$basic_string@DU?$char_traits@D@std@@V?$allocator@D@2@@std@@PAVLineFrame@cacti@@Uicaseless@4@V?$allocator@U?$pair@$$CBV?$basic_string@DU?$char_traits@D@std@@V?$allocator@D@2@@std@@PAVLineFrame@cacti@@@std@@@2@@2@Uicaseless@cacti@@V?$allocator@U?$pair@$$CBV?$basic_string@DU?$char_traits@D@std@@V?$allocator@D@2@@std@@V?$map@V?$basic_string@DU?$char_traits@D@std@@V?$allocator@D@2@@std@@PAVLineFrame@cacti@@Uicaseless@4@V?$allocator@U?$pair@$$CBV?$basic_string@DU?$char_traits@D@std@@V?$allocator@D@2@@std@@PAVLineFrame@cacti@@@std@@@2@@2@@std@@@2@$0A@@std@@@std@@QAE?AViterator@12@V312@0@Z 00424740 f i IniFile.obj
 0001:00023810       ?clear@IniFile@cacti@@QAEXXZ 00424810 f   IniFile.obj
 0001:000238b0       ??1?$map@V?$basic_string@DU?$char_traits@D@std@@V?$allocator@D@2@@std@@V?$map@V?$basic_string@DU?$char_traits@D@std@@V?$allocator@D@2@@std@@PAVLineFrame@cacti@@Uicaseless@4@V?$allocator@U?$pair@$$CBV?$basic_string@DU?$char_traits@D@std@@V?$allocator@D@2@@std@@PAVLineFrame@cacti@@@std@@@2@@2@Uicaseless@cacti@@V?$allocator@U?$pair@$$CBV?$basic_string@DU?$char_traits@D@std@@V?$allocator@D@2@@std@@V?$map@V?$basic_string@DU?$char_traits@D@std@@V?$allocator@D@2@@std@@PAVLineFrame@cacti@@Uicaseless@4@V?$allocator@U?$pair@$$CBV?$basic_string@DU?$char_traits@D@std@@V?$allocator@D@2@@std@@PAVLineFrame@cacti@@@std@@@2@@2@@std@@@2@@std@@QAE@XZ 004248b0 f i IniFile.obj
 0001:000238f0       ??1IniFile@cacti@@QAE@XZ   004248f0 f   IniFile.obj
 0001:000239a0       ?open@IniFile@cacti@@QAE_NPBD@Z 004249a0 f   IniFile.obj
 0001:00023c90       ??0IniFile@cacti@@QAE@XZ   00424c90 f   IniFile.obj
 0001:00023d30       ??8?$_String_const_iterator@DU?$char_traits@D@std@@V?$allocator@D@2@@std@@QBE_NABV01@@Z 00424d30 f i StringUtil.obj
 0001:00023d60       ?find_last_not_of@?$basic_string@DU?$char_traits@D@std@@V?$allocator@D@2@@std@@QBEIPBDII@Z 00424d60 f i StringUtil.obj
 0001:00023e00       ?toLower@StringUtil@cacti@@SAXAAV?$basic_string@DU?$char_traits@D@std@@V?$allocator@D@2@@std@@@Z 00424e00 f   StringUtil.obj
 0001:00023e60       ?constTrim@StringUtil@cacti@@SA?AV?$basic_string@DU?$char_traits@D@std@@V?$allocator@D@2@@std@@ABV34@@Z 00424e60 f   StringUtil.obj
 0001:00023f10       ?formatBinary@StringUtil@cacti@@SAPBDPBEHAAV?$basic_string@DU?$char_traits@D@std@@V?$allocator@D@2@@std@@I@Z 00424f10 f   StringUtil.obj
 0001:00024030       ?from@StringUtil@cacti@@SA?AV?$basic_string@DU?$char_traits@D@std@@V?$allocator@D@2@@std@@ABV?$vector@KV?$allocator@K@std@@@4@@Z 00425030 f   StringUtil.obj
 0001:00024130       ?vform2@StringUtil@cacti@@SA?AV?$vector@DV?$allocator@D@std@@@std@@PBDPAD@Z 00425130 f   StringUtil.obj
 0001:000241c0       ?clear@?$vector@V?$basic_string@DU?$char_traits@D@std@@V?$allocator@D@2@@std@@V?$allocator@V?$basic_string@DU?$char_traits@D@std@@V?$allocator@D@2@@std@@@2@@std@@QAEXXZ 004251c0 f i StringUtil.obj
 0001:00024200       ?vform@StringUtil@cacti@@SA?AV?$basic_string@DU?$char_traits@D@std@@V?$allocator@D@2@@std@@PBDPAD@Z 00425200 f   StringUtil.obj
 0001:000242b0       ?format@StringUtil@cacti@@SA?AV?$basic_string@DU?$char_traits@D@std@@V?$allocator@D@2@@std@@PBDZZ 004252b0 f   StringUtil.obj
 0001:000242e0       ??$split@V?$back_insert_iterator@V?$vector@V?$basic_string@DU?$char_traits@D@std@@V?$allocator@D@2@@std@@V?$allocator@V?$basic_string@DU?$char_traits@D@std@@V?$allocator@D@2@@std@@@2@@std@@@std@@@StringUtil@cacti@@SAIV?$back_insert_iterator@V?$vector@V?$basic_string@DU?$char_traits@D@std@@V?$allocator@D@2@@std@@V?$allocator@V?$basic_string@DU?$char_traits@D@std@@V?$allocator@D@2@@std@@@2@@std@@@std@@ABV?$basic_string@DU?$char_traits@D@std@@V?$allocator@D@2@@3@PBDI@Z 004252e0 f i StringUtil.obj
 0001:000243e0       ?split@StringUtil@cacti@@SAIAAV?$vector@V?$basic_string@DU?$char_traits@D@std@@V?$allocator@D@2@@std@@V?$allocator@V?$basic_string@DU?$char_traits@D@std@@V?$allocator@D@2@@std@@@2@@std@@ABV?$basic_string@DU?$char_traits@D@std@@V?$allocator@D@2@@4@PBDI@Z 004253e0 f   StringUtil.obj
 0001:00024440       ?insert@TimerLogic@cacti@@QAE_NPAUTimerList@2@@Z 00425440 f   Timer.obj
 0001:00024580       ?cascade@TimerLogic@cacti@@QAEXPAUTimerVec@12@@Z 00425580 f   Timer.obj
 0001:00024600       ?stop@ActiveTimer@cacti@@QAEXXZ 00425600 f   Timer.obj
 0001:00024630       ??A?$vector@PAUTimerList@cacti@@V?$allocator@PAUTimerList@cacti@@@std@@@std@@QAEAAPAUTimerList@cacti@@I@Z 00425630 f i Timer.obj
 0001:00024660       ??_ERunable@cacti@@UAEPAXI@Z 00425660 f i Thread.obj
 0001:00024660       ??_E?$ClassFunctionThread@VServiceSkeleton@cacti@@@?A0x9eab1761@@UAEPAXI@Z 00425660 f i ServiceSkeleton.obj
 0001:00024660       ??_G?$ClassFunctionThread@VActiveClient@cacti@@@?A0x01f36816@@UAEPAXI@Z 00425660 f i ActiveClient.obj
 0001:00024660       ??_E?$ClassFunctionThread@VActiveServer@cacti@@@?A0x5befda94@@UAEPAXI@Z 00425660 f i ActiveServer.obj
 0001:00024660       ??_GRunable@cacti@@UAEPAXI@Z 00425660 f i Thread.obj
 0001:00024660       ??_G?$ClassFunctionThread@VActiveTimer@cacti@@@?A0x0e051303@@UAEPAXI@Z 00425660 f i Timer.obj
 0001:00024660       ??_E?$ClassFunctionThread@VActiveClient@cacti@@@?A0x01f36816@@UAEPAXI@Z 00425660 f i ActiveClient.obj
 0001:00024660       ??_G?$ClassFunctionThread@VActiveServer@cacti@@@?A0x5befda94@@UAEPAXI@Z 00425660 f i ActiveServer.obj
 0001:00024660       ??_E?$ClassFunctionThread@VActiveTimer@cacti@@@?A0x0e051303@@UAEPAXI@Z 00425660 f i Timer.obj
 0001:00024660       ??_G?$ClassFunctionThread@VServiceSkeleton@cacti@@@?A0x9eab1761@@UAEPAXI@Z 00425660 f i ServiceSkeleton.obj
 0001:00024680       ?_Buynode@?$list@PAVLineFrame@cacti@@V?$allocator@PAVLineFrame@cacti@@@std@@@std@@IAEPAU_Node@?$_List_nod@PAVLineFrame@cacti@@V?$allocator@PAVLineFrame@cacti@@@std@@@2@XZ 00425680 f i IniFile.obj
 0001:00024680       ?_Buynode@?$list@IV?$allocator@I@std@@@std@@IAEPAU_Node@?$_List_nod@IV?$allocator@I@std@@@2@XZ 00425680 f i Timer.obj
 0001:000246a0       ?_Buynode@?$list@IV?$allocator@I@std@@@std@@IAEPAU_Node@?$_List_nod@IV?$allocator@I@std@@@2@PAU342@0ABI@Z 004256a0 f i Timer.obj
 0001:000246a0       ?_Buynode@?$list@PAVLineFrame@cacti@@V?$allocator@PAVLineFrame@cacti@@@std@@@std@@IAEPAU_Node@?$_List_nod@PAVLineFrame@cacti@@V?$allocator@PAVLineFrame@cacti@@@std@@@2@PAU342@0ABQAVLineFrame@cacti@@@Z 004256a0 f i IniFile.obj
 0001:000246e0       ??$fill@PAPAVTDBProcess@@PAV1@@std@@YAXPAPAVTDBProcess@@0ABQAV1@@Z 004256e0 f i dagwservice.obj
 0001:000246e0       ??$fill@PAKK@std@@YAXPAK0ABK@Z 004256e0 f i TLV.obj
 0001:000246e0       ??$fill@PAPAUTimerList@cacti@@PAU12@@std@@YAXPAPAUTimerList@cacti@@0ABQAU12@@Z 004256e0 f i Timer.obj
 0001:00024700       ?erase@?$list@IV?$allocator@I@std@@@std@@QAE?AV?$_Iterator@$00@12@V312@@Z 00425700 f i Timer.obj
 0001:00024760       ?_Tidy@?$list@PAVLineFrame@cacti@@V?$allocator@PAVLineFrame@cacti@@@std@@@std@@IAEXXZ 00425760 f i IniFile.obj
 0001:00024760       ?_Tidy@?$list@IV?$allocator@I@std@@@std@@IAEXXZ 00425760 f i Timer.obj
 0001:000247b0       ??1?$list@PAVLineFrame@cacti@@V?$allocator@PAVLineFrame@cacti@@@std@@@std@@QAE@XZ 004257b0 f i IniFile.obj
 0001:000247b0       ??1?$list@IV?$allocator@I@std@@@std@@QAE@XZ 004257b0 f i Timer.obj
 0001:000247c0       ??1ActiveTimer@cacti@@QAE@XZ 004257c0 f   Timer.obj
 0001:00024960       ?_Ufill@?$vector@KV?$allocator@K@std@@@std@@IAEPAKPAKIABK@Z 00425960 f i TLV.obj
 0001:00024960       ?_Ufill@?$vector@PAVTDBProcess@@V?$allocator@PAVTDBProcess@@@std@@@std@@IAEPAPAVTDBProcess@@PAPAV3@IABQAV3@@Z 00425960 f i dagwservice.obj
 0001:00024960       ?_Ufill@?$vector@PAUTimerList@cacti@@V?$allocator@PAUTimerList@cacti@@@std@@@std@@IAEPAPAUTimerList@cacti@@PAPAU34@IABQAU34@@Z 00425960 f i Timer.obj
 0001:00024990       ?_Incsize@?$list@IV?$allocator@I@std@@@std@@IAEXI@Z 00425990 f i Timer.obj
 0001:00024a30       ?_Xlen@?$vector@PAUTimerList@cacti@@V?$allocator@PAUTimerList@cacti@@@std@@@std@@KAXXZ 00425a30 f i Timer.obj
 0001:00024ab0       ??0TimerLogic@cacti@@QAE@XZ 00425ab0 f   Timer.obj
 0001:00024be0       ?_Insert_n@?$vector@PAUTimerList@cacti@@V?$allocator@PAUTimerList@cacti@@@std@@@std@@IAEXV?$_Vector_iterator@PAUTimerList@cacti@@V?$allocator@PAUTimerList@cacti@@@std@@@2@IABQAUTimerList@cacti@@@Z 00425be0 f i Timer.obj
 0001:00024da0       ?push_back@?$list@IV?$allocator@I@std@@@std@@QAEXABI@Z 00425da0 f i Timer.obj
 0001:00024de0       ?_Construct_n@?$vector@PAUTimerList@cacti@@V?$allocator@PAUTimerList@cacti@@@std@@@std@@QAEXIABQAUTimerList@cacti@@@Z 00425de0 f i Timer.obj
 0001:00024e50       ?resize@?$vector@PAUTimerList@cacti@@V?$allocator@PAUTimerList@cacti@@@std@@@std@@QAEXIPAUTimerList@cacti@@@Z 00425e50 f i Timer.obj
 0001:00024f10       ?cancel@ActiveTimer@cacti@@QAEPAVTimerTask@2@I@Z 00425f10 f   Timer.obj
 0001:00025060       ?clockDriver@ActiveTimer@cacti@@AAEXXZ 00426060 f   Timer.obj
 0001:000252f0       ??0ActiveTimer@cacti@@QAE@K@Z 004262f0 f   Timer.obj
 0001:000254a0       ?start@ActiveTimer@cacti@@QAE_NXZ 004264a0 f   Timer.obj
 0001:00025570       ?enlarge@ActiveTimer@cacti@@AAEXXZ 00426570 f   Timer.obj
 0001:00025670       ?set@ActiveTimer@cacti@@QAEIKPAVTimerTask@2@@Z 00426670 f   Timer.obj
 0001:000257d0       ??0Timestamp@cacti@@QAE@XZ 004267d0 f   Timestamp.obj
 0001:000257e0       ??0Timestamp@cacti@@QAE@_J0@Z 004267e0 f   Timestamp.obj
 0001:00025800       ??0Timestamp@cacti@@QAE@_J@Z 00426800 f   Timestamp.obj
 0001:00025820       ??0Timestamp@cacti@@QAE@ABV01@@Z 00426820 f   Timestamp.obj
 0001:00025820       ??4SimpleThread_Mutex@@QAEAAV0@ABV0@@Z 00426820 f   dbconnect.obj
 0001:00025820       ??4BaseHandle@@QAEAAV0@ABV0@@Z 00426820 f   dbconnect.obj
 0001:00025840       ?getNowTime@Timestamp@cacti@@SA?AV12@XZ 00426840 f   Timestamp.obj
 0001:00025880       ?getAsMilliseconds@Timestamp@cacti@@QBE_JXZ 00426880 f   Timestamp.obj
 0001:000258c0       ?localtime@Timestamp@cacti@@QBEXAAUtm@@@Z 004268c0 f   Timestamp.obj
 0001:00025900       ??YTimestamp@cacti@@QAEAAV01@ABV01@@Z 00426900 f   Timestamp.obj
 0001:00025950       ??Hcacti@@YA?BVTimestamp@0@ABV10@0@Z 00426950 f   Timestamp.obj
 0001:000259b0       ??8cacti@@YA_NABVTimestamp@0@0@Z 004269b0 f   Timestamp.obj
 0001:000259e0       ??Pcacti@@YA_NABVTimestamp@0@0@Z 004269e0 f   Timestamp.obj
 0001:00025a50       ?getFormattedTime@Timestamp@cacti@@QBE?AV?$basic_string@DU?$char_traits@D@std@@V?$allocator@D@2@@std@@PBD_N@Z 00426a50 f   Timestamp.obj
 0001:00025b10       ?stop@ActiveClient@cacti@@QAEXH@Z 00426b10 f   ActiveClient.obj
 0001:00025b50       ?exit@ActiveClient@cacti@@QAEXXZ 00426b50 f   ActiveClient.obj
 0001:00025b60       ?connected@ActiveClient@cacti@@QAE_NXZ 00426b60 f   ActiveClient.obj
 0001:00025b80       ??_9ActiveClient@cacti@@$B3AE 00426b80 f i ActiveClient.obj
 0001:00025b90       ??$start@VActiveClient@cacti@@@Thread@cacti@@QAEXPAVActiveClient@1@P821@AEXXZ@Z 00426b90 f i ActiveClient.obj
 0001:00025be0       ?connect@ActiveClient@cacti@@AAE_NXZ 00426be0 f   ActiveClient.obj
 0001:00025cc0       ?start@ActiveClient@cacti@@QAE_NGPBD_N@Z 00426cc0 f   ActiveClient.obj
 0001:00025db0       ?send@ActiveClient@cacti@@QAEHPBDH@Z 00426db0 f   ActiveClient.obj
 0001:00025f20       ?threadProcess@ActiveClient@cacti@@EAEXXZ 00426f20 f   ActiveClient.obj
 0001:000261d0       ??1SocketConnector@cacti@@QAE@XZ 004271d0 f i ActiveClient.obj
 0001:00026220       ??1ActiveClient@cacti@@UAE@XZ 00427220 f   ActiveClient.obj
 0001:00026310       ??0ActiveClient@cacti@@QAE@HPBD@Z 00427310 f   ActiveClient.obj
 0001:00026420       ??1?$BasicSequenceGenerator@VRecursiveMutex@cacti@@@cacti@@QAE@XZ 00427420 f i ActiveServer.obj
 0001:00026430       ?makeSelector@ActiveServer@cacti@@AAEIXZ 00427430 f   ActiveServer.obj
 0001:000264a0       ?reparable@ActiveServer@cacti@@EAE_NH@Z 004274a0 f   ActiveServer.obj
 0001:000264b0       ?run@?$ClassFunctionThread@VActiveTimer@cacti@@@?A0x0e051303@@EAEXXZ 004274b0 f i Timer.obj
 0001:000264b0       ?run@?$ClassFunctionThread@VActiveClient@cacti@@@?A0x01f36816@@EAEXXZ 004274b0 f i ActiveClient.obj
 0001:000264b0       ?run@?$ClassFunctionThread@VServiceSkeleton@cacti@@@?A0x9eab1761@@EAEXXZ 004274b0 f i ServiceSkeleton.obj
 0001:000264b0       ?run@?$ClassFunctionThread@VActiveServer@cacti@@@?A0x5befda94@@EAEXXZ 004274b0 f i ActiveServer.obj
 0001:000264c0       ??_9ActiveServer@cacti@@$BBE@AE 004274c0 f i ActiveServer.obj
 0001:000264d0       ?startListener@ActiveServer@cacti@@AAEXXZ 004274d0 f   ActiveServer.obj
 0001:00026520       ??1ConnectionIdentifier@cacti@@QAE@XZ 00427520 f i TransferServer.obj
 0001:00026520       ??1SocketAcceptor@cacti@@QAE@XZ 00427520 f i ActiveServer.obj
 0001:00026550       ?start@ActiveServer@cacti@@QAE_NGPBD@Z 00427550 f   ActiveServer.obj
 0001:00026660       ??0ConnectionIdentifier@cacti@@QAE@XZ 00427660 f i ActiveServer.obj
 0001:00026670       ?getClientSocket@ActiveServer@cacti@@AAE?AVAcceptedSocket@2@I@Z 00427670 f   ActiveServer.obj
 0001:000266d0       ?send@ActiveServer@cacti@@QAEHIPBDH@Z 004276d0 f   ActiveServer.obj
 0001:00026860       ?insertClient@ActiveServer@cacti@@AAE_NABVAcceptedSocket@2@@Z 00427860 f   ActiveServer.obj
 0001:00026990       ?eraseClient@ActiveServer@cacti@@AAEXH@Z 00427990 f   ActiveServer.obj
 0001:00026a40       ?cleanClients@ActiveServer@cacti@@AAEXXZ 00427a40 f   ActiveServer.obj
 0001:00026ad0       ?checkClientEvent@ActiveServer@cacti@@AAEXXZ 00427ad0 f   ActiveServer.obj
 0001:00026d30       ??0ActiveServer@cacti@@QAE@PBD@Z 00427d30 f   ActiveServer.obj
 0001:00026e90       ?onBroken@ActiveServer@cacti@@EAEXVConnectionIdentifier@2@@Z 00427e90 f i ActiveServer.obj
 0001:00026eb0       ?stop@ActiveServer@cacti@@QAEXH@Z 00427eb0 f   ActiveServer.obj
 0001:00027000       ?threadProcess@ActiveServer@cacti@@EAEXXZ 00428000 f   ActiveServer.obj
 0001:00027260       ??1ActiveServer@cacti@@UAE@XZ 00428260 f   ActiveServer.obj
 0001:00027320       ??_GTransferServer@cacti@@UAEPAXI@Z 00428320 f i TransferServer.obj
 0001:00027320       ??_EActiveServer@cacti@@UAEPAXI@Z 00428320 f i ActiveServer.obj
 0001:00027320       ??_GActiveServer@cacti@@UAEPAXI@Z 00428320 f i ActiveServer.obj
 0001:00027320       ??_ETransferServer@cacti@@UAEPAXI@Z 00428320 f i TransferServer.obj
 0001:00027340       ?bindWith@SocketAddress@cacti@@QAE_NI@Z 00428340 f   SocketAddress.obj
 0001:00027360       ?connectWith@SocketAddress@cacti@@QAE_NI@Z 00428360 f   SocketAddress.obj
 0001:00027380       ?resolve@SocketAddress@cacti@@IAE_NXZ 00428380 f   SocketAddress.obj
 0001:00027400       ??0SocketAddress@cacti@@QAE@ABV01@@Z 00428400 f   SocketAddress.obj
 0001:00027450       ??0SocketAddress@cacti@@QAE@XZ 00428450 f   SocketAddress.obj
 0001:00027490       ??4SocketAddress@cacti@@QAEAAV01@ABV01@@Z 00428490 f   SocketAddress.obj
 0001:000274d0       ?create@SocketAddress@cacti@@QAEXPBDG@Z 004284d0 f   SocketAddress.obj
 0001:00027530       ?directCreate@SocketAddress@cacti@@QAEXAAUsockaddr_in@@@Z 00428530 f   SocketAddress.obj
 0001:00027580       ??0SocketAddress@cacti@@QAE@PBDG@Z 00428580 f   SocketAddress.obj
 0001:000275f0       ?isSelected@AbstractSocket@cacti@@QBE_NPAUfd_set@@@Z 004285f0 f   SocketWrapper.obj
 0001:00027610       ?setSelect@AbstractSocket@cacti@@QBEXPAUfd_set@@@Z 00428610 f   SocketWrapper.obj
 0001:00027650       ?invalid@AbstractSocket@cacti@@QAEXXZ 00428650 f   SocketWrapper.obj
 0001:00027660       ?isValid@AbstractSocket@cacti@@QBE_NXZ 00428660 f   SocketWrapper.obj
 0001:00027670       ?recvReady@AbstractSocket@cacti@@QBE_NPBUtimeval@@@Z 00428670 f   SocketWrapper.obj
 0001:000276b0       ?send@SocketChannel@cacti@@QBEHPBDH@Z 004286b0 f   SocketWrapper.obj
 0001:000276d0       ?sendn@SocketChannel@cacti@@QBEHPBDH@Z 004286d0 f   SocketWrapper.obj
 0001:00027740       ?recv@SocketChannel@cacti@@QBEHPADHABVTimestamp@2@@Z 00428740 f   SocketWrapper.obj
 0001:00027850       ?setServerAddress@SocketConnector@cacti@@QAEXABVSocketAddress@2@@Z 00428850 f   SocketWrapper.obj
 0001:00027860       ?attach@AcceptedSocket@cacti@@QAEXI@Z 00428860 f   SocketWrapper.obj
 0001:000278c0       ?close@AbstractSocket@cacti@@QAEHXZ 004288c0 f   SocketWrapper.obj
 0001:000278f0       ?disconnect@SocketConnector@cacti@@QAEXXZ 004288f0 f   SocketWrapper.obj
 0001:00027920       ?connect@SocketConnector@cacti@@QAE_NXZ 00428920 f   SocketWrapper.obj
 0001:00027a20       ?bind@SocketAcceptor@cacti@@QAE_NXZ 00428a20 f   SocketWrapper.obj
 0001:00027af0       ?bind@SocketAcceptor@cacti@@QAE_NABVSocketAddress@2@@Z 00428af0 f   SocketWrapper.obj
 0001:00027b10       ??0SocketConnector@cacti@@QAE@ABVSocketAddress@1@@Z 00428b10 f   SocketWrapper.obj
 0001:00027b80       ??0AcceptedSocket@cacti@@QAE@XZ 00428b80 f   SocketWrapper.obj
 0001:00027ba0       ??0AcceptedSocket@cacti@@QAE@I@Z 00428ba0 f   SocketWrapper.obj
 0001:00027c00       ??0SocketAcceptor@cacti@@QAE@XZ 00428c00 f   SocketWrapper.obj
 0001:00027c20       ??0SocketConnector@cacti@@QAE@XZ 00428c20 f   SocketWrapper.obj
 0001:00027c80       ?accept@SocketAcceptor@cacti@@QAE?AVAcceptedSocket@2@XZ 00428c80 f   SocketWrapper.obj
 0001:00027cb0       ?stopService@Commander@@QAEXXZ 00428cb0 f   Commander.obj
 0001:00027ce0       ?serviceVersion@Commander@@QAEPBDXZ 00428ce0 f   Commander.obj
 0001:00027d00       ??0Commander@@QAE@XZ       00428d00 f   Commander.obj
 0001:00027db0       ?find@?$_Tree@V?$_Tmap_traits@V?$basic_string@DU?$char_traits@D@std@@V?$allocator@D@2@@std@@V12@U?$less@V?$basic_string@DU?$char_traits@D@std@@V?$allocator@D@2@@std@@@2@V?$allocator@U?$pair@$$CBV?$basic_string@DU?$char_traits@D@std@@V?$allocator@D@2@@std@@V12@@std@@@2@$0A@@std@@@std@@QAE?AViterator@12@ABV?$basic_string@DU?$char_traits@D@std@@V?$allocator@D@2@@2@@Z 00428db0 f i Commander.obj
 0001:00027e30       ?hasCmdOption@CmdOption@@SA_NV?$basic_string@DU?$char_traits@D@std@@V?$allocator@D@2@@std@@@Z 00428e30 f   Commander.obj
 0001:00027f10       ??$?0PADPBD@?$pair@$$CBV?$basic_string@DU?$char_traits@D@std@@V?$allocator@D@2@@std@@V12@@std@@QAE@ABU?$pair@PADPBD@1@@Z 00428f10 f i Commander.obj
 0001:00027fb0       ?startService@Commander@@QAE_NG@Z 00428fb0 f   Commander.obj
 0001:00028100       ?getCmdOption@CmdOption@@SA?AV?$basic_string@DU?$char_traits@D@std@@V?$allocator@D@2@@std@@V23@@Z 00429100 f   Commander.obj
 0001:00028240       ?setCmdOption@CmdOption@@SAXHQAPAD@Z 00429240 f   Commander.obj
 0001:000285e0       ?handleUICommand@Commander@@QAEXPBD@Z 004295e0 f   Commander.obj
 0001:00028780       ?_Getname@_Locinfo@std@@QBE?AV?$basic_string@DU?$char_traits@D@std@@V?$allocator@D@2@@2@XZ 00429780 f i Main.obj
 0001:000287b0       ??0_Locinfo@std@@QAE@HPBD@Z 004297b0 f i Main.obj
 0001:00028880       ??0_Locimp@locale@std@@AAE@_N@Z 00429880 f i Main.obj
 0001:00028900       ??1_Locimp@locale@std@@MAE@XZ 00429900 f i Main.obj
 0001:00028980       ??_E_Locimp@locale@std@@MAEPAXI@Z 00429980 f i Main.obj
 0001:00028980       ??_G_Locimp@locale@std@@MAEPAXI@Z 00429980 f i Main.obj
 0001:000289a0       ??0locale@std@@QAE@PBDH@Z  004299a0 f i Main.obj
 0001:00028b10       ?loadLoggerConfig@@YAXXZ   00429b10 f   Main.obj
 0001:00029ac0       ??0?$num_get@DV?$istreambuf_iterator@DU?$char_traits@D@std@@@std@@@std@@QAE@I@Z 0042aac0 f i Main.obj
 0001:00029b60       ?_Inc@?$istreambuf_iterator@DU?$char_traits@D@std@@@std@@AAEXXZ 0042ab60 f i Main.obj
 0001:00029bb0       ?_Peek@?$istreambuf_iterator@DU?$char_traits@D@std@@@std@@AAEDXZ 0042abb0 f i Main.obj
 0001:00029c00       ?equal@?$istreambuf_iterator@DU?$char_traits@D@std@@@std@@QBE_NABV12@@Z 0042ac00 f i Main.obj
 0001:00029c50       ??D?$istreambuf_iterator@DU?$char_traits@D@std@@@std@@QBEDXZ 0042ac50 f i Main.obj
 0001:00029c70       ??$?9DU?$char_traits@D@std@@@std@@YA_NABV?$istreambuf_iterator@DU?$char_traits@D@std@@@0@0@Z 0042ac70 f i Main.obj
 0001:00029cd0       ??$_Getloctxt@DV?$istreambuf_iterator@DU?$char_traits@D@std@@@std@@@std@@YAHAAV?$istreambuf_iterator@DU?$char_traits@D@std@@@0@0IPBD@Z 0042acd0 f i Main.obj
 0001:0002a080       ?_Getcat@?$num_get@DV?$istreambuf_iterator@DU?$char_traits@D@std@@@std@@@std@@SAIPAPBVfacet@locale@2@@Z 0042b080 f i Main.obj
 0001:0002a0f0       ??$use_facet@V?$num_get@DV?$istreambuf_iterator@DU?$char_traits@D@std@@@std@@@std@@@std@@YAABV?$num_get@DV?$istreambuf_iterator@DU?$char_traits@D@std@@@std@@@0@ABVlocale@0@@Z 0042b0f0 f i Main.obj
 0001:0002a220       ?_Getifld@?$num_get@DV?$istreambuf_iterator@DU?$char_traits@D@std@@@std@@@std@@ABAHPADAAV?$istreambuf_iterator@DU?$char_traits@D@std@@@2@1HABVlocale@2@@Z 0042b220 f i Main.obj
 0001:0002a770       ?_Getffld@?$num_get@DV?$istreambuf_iterator@DU?$char_traits@D@std@@@std@@@std@@ABAHPADAAV?$istreambuf_iterator@DU?$char_traits@D@std@@@2@1ABVlocale@2@@Z 0042b770 f i Main.obj
 0001:0002b6d0       ??$?5DU?$char_traits@D@std@@V?$allocator@D@1@@std@@YAAAV?$basic_istream@DU?$char_traits@D@std@@@0@AAV10@AAV?$basic_string@DU?$char_traits@D@std@@V?$allocator@D@2@@0@@Z 0042c6d0 f i Main.obj
 0001:0002b890       ??5?$basic_istream@DU?$char_traits@D@std@@@std@@QAEAAV01@AAK@Z 0042c890 f i Main.obj
 0001:0002ba00       ??0?$basic_ifstream@DU?$char_traits@D@std@@@std@@QAE@XZ 0042ca00 f i Main.obj
 0001:0002bb00       ?do_get@?$num_get@DV?$istreambuf_iterator@DU?$char_traits@D@std@@@std@@@std@@MBE?AV?$istreambuf_iterator@DU?$char_traits@D@std@@@2@V32@0AAVios_base@2@AAHAA_N@Z 0042cb00 f i Main.obj
 0001:0002be00       ?do_get@?$num_get@DV?$istreambuf_iterator@DU?$char_traits@D@std@@@std@@@std@@MBE?AV?$istreambuf_iterator@DU?$char_traits@D@std@@@2@V32@0AAVios_base@2@AAHAAG@Z 0042ce00 f i Main.obj
 0001:0002c010       ?do_get@?$num_get@DV?$istreambuf_iterator@DU?$char_traits@D@std@@@std@@@std@@MBE?AV?$istreambuf_iterator@DU?$char_traits@D@std@@@2@V32@0AAVios_base@2@AAHAAI@Z 0042d010 f i Main.obj
 0001:0002c220       ?do_get@?$num_get@DV?$istreambuf_iterator@DU?$char_traits@D@std@@@std@@@std@@MBE?AV?$istreambuf_iterator@DU?$char_traits@D@std@@@2@V32@0AAVios_base@2@AAHAAJ@Z 0042d220 f i Main.obj
 0001:0002c400       ?do_get@?$num_get@DV?$istreambuf_iterator@DU?$char_traits@D@std@@@std@@@std@@MBE?AV?$istreambuf_iterator@DU?$char_traits@D@std@@@2@V32@0AAVios_base@2@AAHAAK@Z 0042d400 f i Main.obj
 0001:0002c5e0       ?do_get@?$num_get@DV?$istreambuf_iterator@DU?$char_traits@D@std@@@std@@@std@@MBE?AV?$istreambuf_iterator@DU?$char_traits@D@std@@@2@V32@0AAVios_base@2@AAHAA_J@Z 0042d5e0 f i Main.obj
 0001:0002c7b0       ?do_get@?$num_get@DV?$istreambuf_iterator@DU?$char_traits@D@std@@@std@@@std@@MBE?AV?$istreambuf_iterator@DU?$char_traits@D@std@@@2@V32@0AAVios_base@2@AAHAA_K@Z 0042d7b0 f i Main.obj
 0001:0002c980       ?do_get@?$num_get@DV?$istreambuf_iterator@DU?$char_traits@D@std@@@std@@@std@@MBE?AV?$istreambuf_iterator@DU?$char_traits@D@std@@@2@V32@0AAVios_base@2@AAHAAM@Z 0042d980 f i Main.obj
 0001:0002cb80       ?do_get@?$num_get@DV?$istreambuf_iterator@DU?$char_traits@D@std@@@std@@@std@@MBE?AV?$istreambuf_iterator@DU?$char_traits@D@std@@@2@V32@0AAVios_base@2@AAHAAN@Z 0042db80 f i Main.obj
 0001:0002cd80       ?do_get@?$num_get@DV?$istreambuf_iterator@DU?$char_traits@D@std@@@std@@@std@@MBE?AV?$istreambuf_iterator@DU?$char_traits@D@std@@@2@V32@0AAVios_base@2@AAHAAO@Z 0042dd80 f i Main.obj
 0001:0002cf80       ?do_get@?$num_get@DV?$istreambuf_iterator@DU?$char_traits@D@std@@@std@@@std@@MBE?AV?$istreambuf_iterator@DU?$char_traits@D@std@@@2@V32@0AAVios_base@2@AAHAAPAX@Z 0042df80 f i Main.obj
 0001:0002d170       ?stopWin32Proc@@YAHXZ      0042e170 f   Main.obj
 0001:0002d4d0       ?createChild@@YAXHQAPAD@Z  0042e4d0 f   Main.obj
 0001:0002da70       ?doWork@@YAX_N@Z           0042ea70 f   Main.obj
 0001:0002e050       _main                      0042f050 f   Main.obj
 0001:0002e240       ?getMessage@ClientDispatcher@cacti@@EAE_NKAAUServiceIdentifier@2@AAV?$shared_ptr@VUserTransferMessage@cacti@@@boost@@@Z 0042f240 f   MessageDispatcher.obj
 0001:0002e240       ?getMessage@Service@@EAE_NKAAUServiceIdentifier@cacti@@AAV?$shared_ptr@VUserTransferMessage@cacti@@@boost@@@Z 0042f240 f   Service.obj
 0001:0002e250       ?versioninfo@Service@@QAEPBDXZ 0042f250 f   Service.obj
 0001:0002e260       ?version@Service@@QAEPBDXZ 0042f260 f   Service.obj
 0001:0002e270       ?displayName@Service@@QAEPBDXZ 0042f270 f   Service.obj
 0001:0002e280       ??1Service@@UAE@XZ         0042f280 f   Service.obj
 0001:0002e310       ?onBroken@ActiveClient@cacti@@EAEXXZ 0042f310 f i ActiveClient.obj
 0001:0002e310       ?snapshot@Service@@EAEXXZ  0042f310 f i Service.obj
 0001:0002e310       ?uninit@ServiceSkeleton@cacti@@MAEXXZ 0042f310 f i ServiceSkeleton.obj
 0001:0002e310       ??3@YAXPAX0@Z              0042f310 f i ConfigureLoader.obj
 0001:0002e310       ?sp_enable_shared_from_this@detail@boost@@YAXZZ 0042f310 f i ConfigureLoader.obj
 0001:0002e310       ??1SimpleThread@@QAE@XZ    0042f310 f i simpleThreads.obj
 0001:0002e310       ?help@Service@@EAEXXZ      0042f310 f i Service.obj
 0001:0002e310       ?myInvalidParameterHandler@@YAXPB_W00II@Z 0042f310 f i Main.obj
 0001:0002e310       ?snapshot@DAGW@@UAEXXZ     0042f310 f i dagw.obj
 0001:0002e310       ?reload@Service@@EAEXXZ    0042f310 f i Service.obj
 0001:0002e310       ?onConnected@ActiveClient@cacti@@EAEXXZ 0042f310 f i ActiveClient.obj
 0001:0002e310       ?run@Thread@cacti@@EAEXXZ  0042f310 f i Thread.obj
 0001:0002e320       ??_GService@@UAEPAXI@Z     0042f320 f i Service.obj
 0001:0002e320       ??_GDAGW@@UAEPAXI@Z        0042f320 f i dagw.obj
 0001:0002e320       ??_EService@@UAEPAXI@Z     0042f320 f i Service.obj
 0001:0002e320       ??_EDAGW@@UAEPAXI@Z        0042f320 f i dagw.obj
 0001:0002e340       ??0Service@@QAE@V?$basic_string@DU?$char_traits@D@std@@V?$allocator@D@2@@std@@00@Z 0042f340 f   Service.obj
 0001:0002e7e0       ?printConsole@Service@@SAXPBDZZ 0042f7e0 f   Service.obj
 0001:0002e900       ?printConsole@Service@@SAXVLogControlID@cacti@@PBDZZ 0042f900 f   Service.obj
 0001:0002ea30       ?commonHelp@Service@@AAEXXZ 0042fa30 f   Service.obj
 0001:0002ea70       ?changeSysLogger@Service@@AAEXH@Z 0042fa70 f   Service.obj
 0001:0002f0b0       ?dispatchUICommand@Service@@QAEXAAV?$vector@V?$basic_string@DU?$char_traits@D@std@@V?$allocator@D@2@@std@@V?$allocator@V?$basic_string@DU?$char_traits@D@std@@V?$allocator@D@2@@std@@@2@@std@@@Z 004300b0 f   Service.obj
 0001:0002f240       ?handleMessage@Service@@AAEXAAVUserTransferMessage@cacti@@@Z 00430240 f   Service.obj
 0001:0002f400       ?postMessage@Service@@EAE_NABUServiceIdentifier@cacti@@V?$shared_ptr@VUserTransferMessage@cacti@@@boost@@@Z 00430400 f   Service.obj
 0001:0002f490       ?postMessage@Service@@EAE_NABUServiceIdentifier@cacti@@0V?$shared_ptr@VUserTransferMessage@cacti@@@boost@@_N@Z 00430490 f   Service.obj
 0001:0002f520       ?getInstance@AlarmSender@@SAPAV1@XZ 00430520 f   AlarmSender.obj
 0001:0002f540       ?send@AlarmTransferClient@@QAE_NV?$shared_ptr@VUserTransferMessage@cacti@@@boost@@@Z 00430540 f   AlarmSender.obj
 0001:0002f680       ??1AlarmTransferClient@@UAE@XZ 00430680 f i AlarmSender.obj
 0001:0002f7a0       ?destroyInstance@AlarmSender@@SAXXZ 004307a0 f   AlarmSender.obj
 0001:0002f840       ??0AlarmTransferClient@@QAE@PAVDispatcherInterface@cacti@@@Z 00430840 f   AlarmSender.obj
 0001:0002fa50       ??_GAlarmTransferClient@@UAEPAXI@Z 00430a50 f i AlarmSender.obj
 0001:0002fa50       ??_EAlarmTransferClient@@UAEPAXI@Z 00430a50 f i AlarmSender.obj
 0001:0002fa70       ?createInstance@AlarmSender@@SAXPAVDispatcherInterface@cacti@@GPBD1@Z 00430a70 f   AlarmSender.obj
 0001:0002fc30       ?registerService@AlarmTransferClient@@QAEXXZ 00430c30 f   AlarmSender.obj
 0001:0002fe10       ?send@AlarmSender@@QAE_NUServiceIdentifier@cacti@@PBDKABV?$vector@V?$basic_string@DU?$char_traits@D@std@@V?$allocator@D@2@@std@@V?$allocator@V?$basic_string@DU?$char_traits@D@std@@V?$allocator@D@2@@std@@@2@@std@@@Z 00430e10 f   AlarmSender.obj
 0001:0002ff40       ?console@AlarmSender@@QAE_NPBD@Z 00430f40 f   AlarmSender.obj
 0001:00030050       ?unregisterService@AlarmSender@@QAE_NXZ 00431050 f   AlarmSender.obj
 0001:00030110       ?onConnected@AlarmTransferClient@@EAEXXZ 00431110 f   AlarmSender.obj
 0001:00030120       ?registerService@AlarmTransferClient@@QAEXABV?$basic_string@DU?$char_traits@D@std@@V?$allocator@D@2@@std@@@Z 00431120 f   AlarmSender.obj
 0001:00030160       ??0BaseHandle@@QAE@XZ      00431160 f i dbconnect.obj
 0001:00030170       ??_EBaseConnection@@UAEPAXI@Z 00431170 f i dbconnect.obj
 0001:000301d0       ??1IndexOutOfRange@@QAE@XZ 004311d0 f i dbconnect.obj
 0001:000301d0       ??1Error@@QAE@XZ           004311d0 f i dbconnect.obj
 0001:000301d0       ??1NameKeyNotFoundError@ConfigSection@@QAE@XZ 004311d0 f i configFile.obj
 0001:000301d0       ??1NotImplemented@@QAE@XZ  004311d0 f i dbconnect.obj
 0001:000301d0       ??1DuplicateNameError@ConfigFile@@QAE@XZ 004311d0 f i configFile.obj
 0001:000301d0       ??1ErrorQuerying@@QAE@XZ   004311d0 f i dbconnect.obj
 0001:000301d0       ??1TransactionError@@QAE@XZ 004311d0 f i dbconnect.obj
 0001:000301d0       ??1EndOfResultSet@@QAE@XZ  004311d0 f i dbconnect.obj
 0001:000301d0       ??1NameNotFound@@QAE@XZ    004311d0 f i dbconnect.obj
 0001:000301d0       ??1ResultSetError@@QAE@XZ  004311d0 f i dbconnect.obj
 0001:000301d0       ??1NotConnected@@QAE@XZ    004311d0 f i dbconnect.obj
 0001:000301d0       ??1MutexError@SimpleThread_Mutex@@QAE@XZ 004311d0 f i simpleThreads.obj
 0001:000301d0       ??1SymbolLoadError@DlLoader@@QAE@XZ 004311d0 f i dlLoader.obj
 0001:000301d0       ??1UnknownException@@QAE@XZ 004311d0 f i dbconnect.obj
 0001:000301d0       ??1AlreadyConnected@@QAE@XZ 004311d0 f i dbconnect.obj
 0001:000301d0       ??1DriverError@@QAE@XZ     004311d0 f i dbconnect.obj
 0001:000301d0       ??1ErrorPingingConnection@@QAE@XZ 004311d0 f i dbconnect.obj
 0001:000301d0       ??1BindParameterNotSet@@QAE@XZ 004311d0 f i dbconnect.obj
 0001:000301d0       ??1OutOfRangeError@JDate@@QAE@XZ 004311d0 f i jDate.obj
 0001:000301d0       ??1CloseError@DlLoader@@QAE@XZ 004311d0 f i dlLoader.obj
 0001:000301d0       ??1OpenError@ConfigFile@@QAE@XZ 004311d0 f i configFile.obj
 0001:000301d0       ??1CommandError@@QAE@XZ    004311d0 f i dbconnect.obj
 0001:000301d0       ??1BindParameterError@@QAE@XZ 004311d0 f i dbconnect.obj
 0001:000301d0       ??1OpenError@DlLoader@@QAE@XZ 004311d0 f i dlLoader.obj
 0001:000301d0       ??1ErrorConnecting@@QAE@XZ 004311d0 f i dbconnect.obj
 0001:000301d0       ??1SectionNotFoundError@ConfigFile@@QAE@XZ 004311d0 f i configFile.obj
 0001:000301d0       ??1QueryConnectionTimeout@@QAE@XZ 004311d0 f i dbconnect.obj
 0001:000301d0       ??1ConversionError@JDate@@QAE@XZ 004311d0 f i jDate.obj
 0001:000301d0       ??1BindParameterNotPresent@@QAE@XZ 004311d0 f i dbconnect.obj
 0001:000301e0       ??_EBaseValue@@UAEPAXI@Z   004311e0 f i dbconnect.obj
 0001:00030240       ??_EBaseFieldDescription@@UAEPAXI@Z 00431240 f i dbconnect.obj
 0001:000302a0       ?bindParam@BaseQuery@@UAEPAVBaseValue@@HH@Z 004312a0 f i dbconnect.obj
 0001:000302b0       ??_EBaseQuery@@UAEPAXI@Z   004312b0 f i dbconnect.obj
 0001:00030310       ??4SimpleThread@@QAEAAV0@ABV0@@Z 00431310 f i dbconnect.obj
 0001:00030320       ??4SimpleThread_Synchronize@@QAEAAV0@ABV0@@Z 00431320 f i dbconnect.obj
 0001:00030330       ?connect@DbConnection@@QAEXABV?$basic_string@DU?$char_traits@D@std@@V?$allocator@D@2@@std@@000HH00@Z 00431330 f   dbconnect.obj
 0001:00030340       ?disconnect@DbConnection@@QAEX_J@Z 00431340 f   dbconnect.obj
 0001:00030360       ?requestQueryConnection@DbConnection@@QAEPAVBaseQuery@@XZ 00431360 f   dbconnect.obj
 0001:00030370       ?releaseQueryConnection@DbConnection@@QAEXPAX@Z 00431370 f   dbconnect.obj
 0001:00030380       ?_Max@?$_Tree@V?$_Tmap_traits@V?$basic_string@DU?$char_traits@D@std@@V?$allocator@D@2@@std@@UValue@ConfigSection@@U?$less@V?$basic_string@DU?$char_traits@D@std@@V?$allocator@D@2@@std@@@2@V?$allocator@U?$pair@$$CBV?$basic_string@DU?$char_traits@D@std@@V?$allocator@D@2@@std@@UValue@ConfigSection@@@std@@@2@$0A@@std@@@std@@KAPAU_Node@?$_Tree_nod@V?$_Tmap_traits@V?$basic_string@DU?$char_traits@D@std@@V?$allocator@D@2@@std@@UValue@ConfigSection@@U?$less@V?$basic_string@DU?$char_traits@D@std@@V?$allocator@D@2@@std@@@2@V?$allocator@U?$pair@$$CBV?$basic_string@DU?$char_traits@D@std@@V?$allocator@D@2@@std@@UValue@ConfigSection@@@std@@@2@$0A@@std@@@2@PAU342@@Z 00431380 f i dbconnect.obj
 0001:000303a0       ?_Min@?$_Tree@V?$_Tmap_traits@V?$basic_string@DU?$char_traits@D@std@@V?$allocator@D@2@@std@@UValue@ConfigSection@@U?$less@V?$basic_string@DU?$char_traits@D@std@@V?$allocator@D@2@@std@@@2@V?$allocator@U?$pair@$$CBV?$basic_string@DU?$char_traits@D@std@@V?$allocator@D@2@@std@@UValue@ConfigSection@@@std@@@2@$0A@@std@@@std@@KAPAU_Node@?$_Tree_nod@V?$_Tmap_traits@V?$basic_string@DU?$char_traits@D@std@@V?$allocator@D@2@@std@@UValue@ConfigSection@@U?$less@V?$basic_string@DU?$char_traits@D@std@@V?$allocator@D@2@@std@@@2@V?$allocator@U?$pair@$$CBV?$basic_string@DU?$char_traits@D@std@@V?$allocator@D@2@@std@@UValue@ConfigSection@@@std@@@2@$0A@@std@@@2@PAU342@@Z 004313a0 f i dbconnect.obj
 0001:000303c0       ?_Max@?$_Tree@V?$_Tmap_traits@V?$basic_string@DU?$char_traits@D@std@@V?$allocator@D@2@@std@@VConfigSection@@U?$less@V?$basic_string@DU?$char_traits@D@std@@V?$allocator@D@2@@std@@@2@V?$allocator@U?$pair@$$CBV?$basic_string@DU?$char_traits@D@std@@V?$allocator@D@2@@std@@VConfigSection@@@std@@@2@$0A@@std@@@std@@KAPAU_Node@?$_Tree_nod@V?$_Tmap_traits@V?$basic_string@DU?$char_traits@D@std@@V?$allocator@D@2@@std@@VConfigSection@@U?$less@V?$basic_string@DU?$char_traits@D@std@@V?$allocator@D@2@@std@@@2@V?$allocator@U?$pair@$$CBV?$basic_string@DU?$char_traits@D@std@@V?$allocator@D@2@@std@@VConfigSection@@@std@@@2@$0A@@std@@@2@PAU342@@Z 004313c0 f i dbconnect.obj
 0001:000303e0       ?_Min@?$_Tree@V?$_Tmap_traits@V?$basic_string@DU?$char_traits@D@std@@V?$allocator@D@2@@std@@VConfigSection@@U?$less@V?$basic_string@DU?$char_traits@D@std@@V?$allocator@D@2@@std@@@2@V?$allocator@U?$pair@$$CBV?$basic_string@DU?$char_traits@D@std@@V?$allocator@D@2@@std@@VConfigSection@@@std@@@2@$0A@@std@@@std@@KAPAU_Node@?$_Tree_nod@V?$_Tmap_traits@V?$basic_string@DU?$char_traits@D@std@@V?$allocator@D@2@@std@@VConfigSection@@U?$less@V?$basic_string@DU?$char_traits@D@std@@V?$allocator@D@2@@std@@@2@V?$allocator@U?$pair@$$CBV?$basic_string@DU?$char_traits@D@std@@V?$allocator@D@2@@std@@VConfigSection@@@std@@@2@$0A@@std@@@2@PAU342@@Z 004313e0 f i dbconnect.obj
 0001:00030400       ?_Lrotate@?$_Tree@V?$_Tmap_traits@JNU?$less@J@std@@V?$allocator@U?$pair@$$CBJN@std@@@2@$0A@@std@@@std@@IAEXPAU_Node@?$_Tree_nod@V?$_Tmap_traits@JNU?$less@J@std@@V?$allocator@U?$pair@$$CBJN@std@@@2@$0A@@std@@@2@@Z 00431400 f i dbconnect.obj
 0001:00030400       ?_Lrotate@?$_Tree@V?$_Tmap_traits@KUServiceData@cacti@@U?$less@K@std@@V?$allocator@U?$pair@$$CBKUServiceData@cacti@@@std@@@4@$0A@@std@@@std@@IAEXPAU_Node@?$_Tree_nod@V?$_Tmap_traits@KUServiceData@cacti@@U?$less@K@std@@V?$allocator@U?$pair@$$CBKUServiceData@cacti@@@std@@@4@$0A@@std@@@2@@Z 00431400 f i MessageDispatcher.obj
 0001:00030450       ?_Rrotate@?$_Tree@V?$_Tmap_traits@JNU?$less@J@std@@V?$allocator@U?$pair@$$CBJN@std@@@2@$0A@@std@@@std@@IAEXPAU_Node@?$_Tree_nod@V?$_Tmap_traits@JNU?$less@J@std@@V?$allocator@U?$pair@$$CBJN@std@@@2@$0A@@std@@@2@@Z 00431450 f i dbconnect.obj
 0001:00030450       ?_Rrotate@?$_Tree@V?$_Tmap_traits@KUServiceData@cacti@@U?$less@K@std@@V?$allocator@U?$pair@$$CBKUServiceData@cacti@@@std@@@4@$0A@@std@@@std@@IAEXPAU_Node@?$_Tree_nod@V?$_Tmap_traits@KUServiceData@cacti@@U?$less@K@std@@V?$allocator@U?$pair@$$CBKUServiceData@cacti@@@std@@@4@$0A@@std@@@2@@Z 00431450 f i MessageDispatcher.obj
 0001:000304b0       ?_Rrotate@?$_Tree@V?$_Tmap_traits@V?$basic_string@DU?$char_traits@D@std@@V?$allocator@D@2@@std@@V?$vector@V?$basic_string@DU?$char_traits@D@std@@V?$allocator@D@2@@std@@V?$allocator@V?$basic_string@DU?$char_traits@D@std@@V?$allocator@D@2@@std@@@2@@2@U?$less@V?$basic_string@DU?$char_traits@D@std@@V?$allocator@D@2@@std@@@2@V?$allocator@U?$pair@$$CBV?$basic_string@DU?$char_traits@D@std@@V?$allocator@D@2@@std@@V?$vector@V?$basic_string@DU?$char_traits@D@std@@V?$allocator@D@2@@std@@V?$allocator@V?$basic_string@DU?$char_traits@D@std@@V?$allocator@D@2@@std@@@2@@2@@std@@@2@$0A@@std@@@std@@IAEXPAU_Node@?$_Tree_nod@V?$_Tmap_traits@V?$basic_string@DU?$char_traits@D@std@@V?$allocator@D@2@@std@@V?$vector@V?$basic_string@DU?$char_traits@D@std@@V?$allocator@D@2@@std@@V?$allocator@V?$basic_string@DU?$char_traits@D@std@@V?$allocator@D@2@@std@@@2@@2@U?$less@V?$basic_string@DU?$char_traits@D@std@@V?$allocator@D@2@@std@@@2@V?$allocator@U?$pair@$$CBV?$basic_string@DU?$char_traits@D@std@@V?$allocator@D@2@@std@@V?$vector@V?$basic_string@DU?$char_traits@D@std@@V?$allocator@D@2@@std@@V?$allocator@V?$basic_string@DU?$char_traits@D@std@@V?$allocator@D@2@@std@@@2@@2@@std@@@2@$0A@@std@@@2@@Z 004314b0 f i dbconnect.obj
 0001:00030510       ?_Lrotate@?$_Tree@V?$_Tmap_traits@V?$basic_string@DU?$char_traits@D@std@@V?$allocator@D@2@@std@@UValue@ConfigSection@@U?$less@V?$basic_string@DU?$char_traits@D@std@@V?$allocator@D@2@@std@@@2@V?$allocator@U?$pair@$$CBV?$basic_string@DU?$char_traits@D@std@@V?$allocator@D@2@@std@@UValue@ConfigSection@@@std@@@2@$0A@@std@@@std@@IAEXPAU_Node@?$_Tree_nod@V?$_Tmap_traits@V?$basic_string@DU?$char_traits@D@std@@V?$allocator@D@2@@std@@UValue@ConfigSection@@U?$less@V?$basic_string@DU?$char_traits@D@std@@V?$allocator@D@2@@std@@@2@V?$allocator@U?$pair@$$CBV?$basic_string@DU?$char_traits@D@std@@V?$allocator@D@2@@std@@UValue@ConfigSection@@@std@@@2@$0A@@std@@@2@@Z 00431510 f i dbconnect.obj
 0001:00030560       ?_Rrotate@?$_Tree@V?$_Tmap_traits@V?$basic_string@DU?$char_traits@D@std@@V?$allocator@D@2@@std@@UValue@ConfigSection@@U?$less@V?$basic_string@DU?$char_traits@D@std@@V?$allocator@D@2@@std@@@2@V?$allocator@U?$pair@$$CBV?$basic_string@DU?$char_traits@D@std@@V?$allocator@D@2@@std@@UValue@ConfigSection@@@std@@@2@$0A@@std@@@std@@IAEXPAU_Node@?$_Tree_nod@V?$_Tmap_traits@V?$basic_string@DU?$char_traits@D@std@@V?$allocator@D@2@@std@@UValue@ConfigSection@@U?$less@V?$basic_string@DU?$char_traits@D@std@@V?$allocator@D@2@@std@@@2@V?$allocator@U?$pair@$$CBV?$basic_string@DU?$char_traits@D@std@@V?$allocator@D@2@@std@@UValue@ConfigSection@@@std@@@2@$0A@@std@@@2@@Z 00431560 f i dbconnect.obj
 0001:000305c0       ?_Lrotate@?$_Tree@V?$_Tmap_traits@V?$basic_string@DU?$char_traits@D@std@@V?$allocator@D@2@@std@@VConfigSection@@U?$less@V?$basic_string@DU?$char_traits@D@std@@V?$allocator@D@2@@std@@@2@V?$allocator@U?$pair@$$CBV?$basic_string@DU?$char_traits@D@std@@V?$allocator@D@2@@std@@VConfigSection@@@std@@@2@$0A@@std@@@std@@IAEXPAU_Node@?$_Tree_nod@V?$_Tmap_traits@V?$basic_string@DU?$char_traits@D@std@@V?$allocator@D@2@@std@@VConfigSection@@U?$less@V?$basic_string@DU?$char_traits@D@std@@V?$allocator@D@2@@std@@@2@V?$allocator@U?$pair@$$CBV?$basic_string@DU?$char_traits@D@std@@V?$allocator@D@2@@std@@VConfigSection@@@std@@@2@$0A@@std@@@2@@Z 004315c0 f i dbconnect.obj
 0001:00030610       ?_Rrotate@?$_Tree@V?$_Tmap_traits@V?$basic_string@DU?$char_traits@D@std@@V?$allocator@D@2@@std@@VConfigSection@@U?$less@V?$basic_string@DU?$char_traits@D@std@@V?$allocator@D@2@@std@@@2@V?$allocator@U?$pair@$$CBV?$basic_string@DU?$char_traits@D@std@@V?$allocator@D@2@@std@@VConfigSection@@@std@@@2@$0A@@std@@@std@@IAEXPAU_Node@?$_Tree_nod@V?$_Tmap_traits@V?$basic_string@DU?$char_traits@D@std@@V?$allocator@D@2@@std@@VConfigSection@@U?$less@V?$basic_string@DU?$char_traits@D@std@@V?$allocator@D@2@@std@@@2@V?$allocator@U?$pair@$$CBV?$basic_string@DU?$char_traits@D@std@@V?$allocator@D@2@@std@@VConfigSection@@@std@@@2@$0A@@std@@@2@@Z 00431610 f i dbconnect.obj
 0001:00030670       ?_Max@?$_Tree@V?$_Tmap_traits@V?$basic_string@DU?$char_traits@D@std@@V?$allocator@D@2@@std@@V?$vector@V?$basic_string@DU?$char_traits@D@std@@V?$allocator@D@2@@std@@V?$allocator@V?$basic_string@DU?$char_traits@D@std@@V?$allocator@D@2@@std@@@2@@2@U?$less@V?$basic_string@DU?$char_traits@D@std@@V?$allocator@D@2@@std@@@2@V?$allocator@U?$pair@$$CBV?$basic_string@DU?$char_traits@D@std@@V?$allocator@D@2@@std@@V?$vector@V?$basic_string@DU?$char_traits@D@std@@V?$allocator@D@2@@std@@V?$allocator@V?$basic_string@DU?$char_traits@D@std@@V?$allocator@D@2@@std@@@2@@2@@std@@@2@$0A@@std@@@std@@KAPAU_Node@?$_Tree_nod@V?$_Tmap_traits@V?$basic_string@DU?$char_traits@D@std@@V?$allocator@D@2@@std@@V?$vector@V?$basic_string@DU?$char_traits@D@std@@V?$allocator@D@2@@std@@V?$allocator@V?$basic_string@DU?$char_traits@D@std@@V?$allocator@D@2@@std@@@2@@2@U?$less@V?$basic_string@DU?$char_traits@D@std@@V?$allocator@D@2@@std@@@2@V?$allocator@U?$pair@$$CBV?$basic_string@DU?$char_traits@D@std@@V?$allocator@D@2@@std@@V?$vector@V?$basic_string@DU?$char_traits@D@std@@V?$allocator@D@2@@std@@V?$allocator@V?$basic_string@DU?$char_traits@D@std@@V?$allocator@D@2@@std@@@2@@2@@std@@@2@$0A@@std@@@2@PAU342@@Z 00431670 f i dbconnect.obj
 0001:00030690       ?_Min@?$_Tree@V?$_Tmap_traits@V?$basic_string@DU?$char_traits@D@std@@V?$allocator@D@2@@std@@V?$vector@V?$basic_string@DU?$char_traits@D@std@@V?$allocator@D@2@@std@@V?$allocator@V?$basic_string@DU?$char_traits@D@std@@V?$allocator@D@2@@std@@@2@@2@U?$less@V?$basic_string@DU?$char_traits@D@std@@V?$allocator@D@2@@std@@@2@V?$allocator@U?$pair@$$CBV?$basic_string@DU?$char_traits@D@std@@V?$allocator@D@2@@std@@V?$vector@V?$basic_string@DU?$char_traits@D@std@@V?$allocator@D@2@@std@@V?$allocator@V?$basic_string@DU?$char_traits@D@std@@V?$allocator@D@2@@std@@@2@@2@@std@@@2@$0A@@std@@@std@@KAPAU_Node@?$_Tree_nod@V?$_Tmap_traits@V?$basic_string@DU?$char_traits@D@std@@V?$allocator@D@2@@std@@V?$vector@V?$basic_string@DU?$char_traits@D@std@@V?$allocator@D@2@@std@@V?$allocator@V?$basic_string@DU?$char_traits@D@std@@V?$allocator@D@2@@std@@@2@@2@U?$less@V?$basic_string@DU?$char_traits@D@std@@V?$allocator@D@2@@std@@@2@V?$allocator@U?$pair@$$CBV?$basic_string@DU?$char_traits@D@std@@V?$allocator@D@2@@std@@V?$vector@V?$basic_string@DU?$char_traits@D@std@@V?$allocator@D@2@@std@@V?$allocator@V?$basic_string@DU?$char_traits@D@std@@V?$allocator@D@2@@std@@@2@@2@@std@@@2@$0A@@std@@@2@PAU342@@Z 00431690 f i dbconnect.obj
 0001:000306b0       ?_Dec@const_iterator@?$_Tree@V?$_Tmap_traits@V?$basic_string@DU?$char_traits@D@std@@V?$allocator@D@2@@std@@V?$vector@V?$basic_string@DU?$char_traits@D@std@@V?$allocator@D@2@@std@@V?$allocator@V?$basic_string@DU?$char_traits@D@std@@V?$allocator@D@2@@std@@@2@@2@U?$less@V?$basic_string@DU?$char_traits@D@std@@V?$allocator@D@2@@std@@@2@V?$allocator@U?$pair@$$CBV?$basic_string@DU?$char_traits@D@std@@V?$allocator@D@2@@std@@V?$vector@V?$basic_string@DU?$char_traits@D@std@@V?$allocator@D@2@@std@@V?$allocator@V?$basic_string@DU?$char_traits@D@std@@V?$allocator@D@2@@std@@@2@@2@@std@@@2@$0A@@std@@@std@@QAEXXZ 004316b0 f i dbconnect.obj
 0001:00030740       ?_Inc@const_iterator@?$_Tree@V?$_Tmap_traits@V?$basic_string@DU?$char_traits@D@std@@V?$allocator@D@2@@std@@V?$vector@V?$basic_string@DU?$char_traits@D@std@@V?$allocator@D@2@@std@@V?$allocator@V?$basic_string@DU?$char_traits@D@std@@V?$allocator@D@2@@std@@@2@@2@U?$less@V?$basic_string@DU?$char_traits@D@std@@V?$allocator@D@2@@std@@@2@V?$allocator@U?$pair@$$CBV?$basic_string@DU?$char_traits@D@std@@V?$allocator@D@2@@std@@V?$vector@V?$basic_string@DU?$char_traits@D@std@@V?$allocator@D@2@@std@@V?$allocator@V?$basic_string@DU?$char_traits@D@std@@V?$allocator@D@2@@std@@@2@@2@@std@@@2@$0A@@std@@@std@@QAEXXZ 00431740 f i dbconnect.obj
 0001:000307b0       ?_Inc@const_iterator@?$_Tree@V?$_Tmap_traits@JNU?$less@J@std@@V?$allocator@U?$pair@$$CBJN@std@@@2@$0A@@std@@@std@@QAEXXZ 004317b0 f i dbconnect.obj
 0001:000307b0       ?_Inc@const_iterator@?$_Tree@V?$_Tmap_traits@KUServiceData@cacti@@U?$less@K@std@@V?$allocator@U?$pair@$$CBKUServiceData@cacti@@@std@@@4@$0A@@std@@@std@@QAEXXZ 004317b0 f i MessageDispatcher.obj
 0001:00030820       ?_Inc@const_iterator@?$_Tree@V?$_Tmap_traits@HPAVOracleBindParam@@U?$less@H@std@@V?$allocator@U?$pair@$$CBHPAVOracleBindParam@@@std@@@3@$0A@@std@@@std@@QAEXXZ 00431820 f i oraclequery.obj
 0001:00030820       ?_Inc@const_iterator@?$_Tree@V?$_Tmap_traits@KKU?$less@K@std@@V?$allocator@U?$pair@$$CBKK@std@@@2@$0A@@std@@@std@@QAEXXZ 00431820 f i MessageDispatcher.obj
 0001:00030820       ?_Inc@const_iterator@?$_Tree@V?$_Tmap_traits@HHU?$less@H@std@@V?$allocator@U?$pair@$$CBHH@std@@@2@$0A@@std@@@std@@QAEXXZ 00431820 f i dbconnect.obj
 0001:00030890       ?_Inc@const_iterator@?$_Tree@V?$_Tmap_traits@V?$basic_string@DU?$char_traits@D@std@@V?$allocator@D@2@@std@@UValue@ConfigSection@@U?$less@V?$basic_string@DU?$char_traits@D@std@@V?$allocator@D@2@@std@@@2@V?$allocator@U?$pair@$$CBV?$basic_string@DU?$char_traits@D@std@@V?$allocator@D@2@@std@@UValue@ConfigSection@@@std@@@2@$0A@@std@@@std@@QAEXXZ 00431890 f i dbconnect.obj
 0001:00030900       ?_Inc@const_iterator@?$_Tree@V?$_Tmap_traits@V?$basic_string@DU?$char_traits@D@std@@V?$allocator@D@2@@std@@VConfigSection@@U?$less@V?$basic_string@DU?$char_traits@D@std@@V?$allocator@D@2@@std@@@2@V?$allocator@U?$pair@$$CBV?$basic_string@DU?$char_traits@D@std@@V?$allocator@D@2@@std@@VConfigSection@@@std@@@2@$0A@@std@@@std@@QAEXXZ 00431900 f i dbconnect.obj
 0001:00030970       ?_Lrotate@?$_Tree@V?$_Tmap_traits@V?$basic_string@DU?$char_traits@D@std@@V?$allocator@D@2@@std@@V?$vector@V?$basic_string@DU?$char_traits@D@std@@V?$allocator@D@2@@std@@V?$allocator@V?$basic_string@DU?$char_traits@D@std@@V?$allocator@D@2@@std@@@2@@2@U?$less@V?$basic_string@DU?$char_traits@D@std@@V?$allocator@D@2@@std@@@2@V?$allocator@U?$pair@$$CBV?$basic_string@DU?$char_traits@D@std@@V?$allocator@D@2@@std@@V?$vector@V?$basic_string@DU?$char_traits@D@std@@V?$allocator@D@2@@std@@V?$allocator@V?$basic_string@DU?$char_traits@D@std@@V?$allocator@D@2@@std@@@2@@2@@std@@@2@$0A@@std@@@std@@IAEXPAU_Node@?$_Tree_nod@V?$_Tmap_traits@V?$basic_string@DU?$char_traits@D@std@@V?$allocator@D@2@@std@@V?$vector@V?$basic_string@DU?$char_traits@D@std@@V?$allocator@D@2@@std@@V?$allocator@V?$basic_string@DU?$char_traits@D@std@@V?$allocator@D@2@@std@@@2@@2@U?$less@V?$basic_string@DU?$char_traits@D@std@@V?$allocator@D@2@@std@@@2@V?$allocator@U?$pair@$$CBV?$basic_string@DU?$char_traits@D@std@@V?$allocator@D@2@@std@@V?$vector@V?$basic_string@DU?$char_traits@D@std@@V?$allocator@D@2@@std@@V?$allocator@V?$basic_string@DU?$char_traits@D@std@@V?$allocator@D@2@@std@@@2@@2@@std@@@2@$0A@@std@@@2@@Z 00431970 f i dbconnect.obj
 0001:000309c0       ?_Buynode@?$_Tree@V?$_Tmap_traits@JNU?$less@J@std@@V?$allocator@U?$pair@$$CBJN@std@@@2@$0A@@std@@@std@@IAEPAU_Node@?$_Tree_nod@V?$_Tmap_traits@JNU?$less@J@std@@V?$allocator@U?$pair@$$CBJN@std@@@2@$0A@@std@@@2@XZ 004319c0 f i dbconnect.obj
 0001:00030a00       ?_Buynode@?$_Tree@V?$_Tmap_traits@HHU?$less@H@std@@V?$allocator@U?$pair@$$CBHH@std@@@2@$0A@@std@@@std@@IAEPAU_Node@?$_Tree_nod@V?$_Tmap_traits@HHU?$less@H@std@@V?$allocator@U?$pair@$$CBHH@std@@@2@$0A@@std@@@2@XZ 00431a00 f i dbconnect.obj
 0001:00030a00       ?_Buynode@?$_Tree@V?$_Tmap_traits@KKU?$less@K@std@@V?$allocator@U?$pair@$$CBKK@std@@@2@$0A@@std@@@std@@IAEPAU_Node@?$_Tree_nod@V?$_Tmap_traits@KKU?$less@K@std@@V?$allocator@U?$pair@$$CBKK@std@@@2@$0A@@std@@@2@XZ 00431a00 f i PeersManager.obj
 0001:00030a00       ?_Buynode@?$_Tree@V?$_Tmap_traits@HPAVOracleBindParam@@U?$less@H@std@@V?$allocator@U?$pair@$$CBHPAVOracleBindParam@@@std@@@3@$0A@@std@@@std@@IAEPAU_Node@?$_Tree_nod@V?$_Tmap_traits@HPAVOracleBindParam@@U?$less@H@std@@V?$allocator@U?$pair@$$CBHPAVOracleBindParam@@@std@@@3@$0A@@std@@@2@XZ 00431a00 f i oraclequery.obj
 0001:00030a40       ?_Buynode@?$_Tree@V?$_Tmap_traits@V?$basic_string@DU?$char_traits@D@std@@V?$allocator@D@2@@std@@UValue@ConfigSection@@U?$less@V?$basic_string@DU?$char_traits@D@std@@V?$allocator@D@2@@std@@@2@V?$allocator@U?$pair@$$CBV?$basic_string@DU?$char_traits@D@std@@V?$allocator@D@2@@std@@UValue@ConfigSection@@@std@@@2@$0A@@std@@@std@@IAEPAU_Node@?$_Tree_nod@V?$_Tmap_traits@V?$basic_string@DU?$char_traits@D@std@@V?$allocator@D@2@@std@@UValue@ConfigSection@@U?$less@V?$basic_string@DU?$char_traits@D@std@@V?$allocator@D@2@@std@@@2@V?$allocator@U?$pair@$$CBV?$basic_string@DU?$char_traits@D@std@@V?$allocator@D@2@@std@@UValue@ConfigSection@@@std@@@2@$0A@@std@@@2@XZ 00431a40 f i dbconnect.obj
 0001:00030a80       ?_Buynode@?$_Tree@V?$_Tmap_traits@V?$basic_string@DU?$char_traits@D@std@@V?$allocator@D@2@@std@@VConfigSection@@U?$less@V?$basic_string@DU?$char_traits@D@std@@V?$allocator@D@2@@std@@@2@V?$allocator@U?$pair@$$CBV?$basic_string@DU?$char_traits@D@std@@V?$allocator@D@2@@std@@VConfigSection@@@std@@@2@$0A@@std@@@std@@IAEPAU_Node@?$_Tree_nod@V?$_Tmap_traits@V?$basic_string@DU?$char_traits@D@std@@V?$allocator@D@2@@std@@VConfigSection@@U?$less@V?$basic_string@DU?$char_traits@D@std@@V?$allocator@D@2@@std@@@2@V?$allocator@U?$pair@$$CBV?$basic_string@DU?$char_traits@D@std@@V?$allocator@D@2@@std@@VConfigSection@@@std@@@2@$0A@@std@@@2@XZ 00431a80 f i dbconnect.obj
 0001:00030ac0       ?_Erase@?$_Tree@V?$_Tmap_traits@JNU?$less@J@std@@V?$allocator@U?$pair@$$CBJN@std@@@2@$0A@@std@@@std@@IAEXPAU_Node@?$_Tree_nod@V?$_Tmap_traits@JNU?$less@J@std@@V?$allocator@U?$pair@$$CBJN@std@@@2@$0A@@std@@@2@@Z 00431ac0 f i dbconnect.obj
 0001:00030b00       ?_Buynode@?$_Tree@V?$_Tmap_traits@JNU?$less@J@std@@V?$allocator@U?$pair@$$CBJN@std@@@2@$0A@@std@@@std@@IAEPAU_Node@?$_Tree_nod@V?$_Tmap_traits@JNU?$less@J@std@@V?$allocator@U?$pair@$$CBJN@std@@@2@$0A@@std@@@2@PAU342@00ABU?$pair@$$CBJN@2@D@Z 00431b00 f i dbconnect.obj
 0001:00030b50       ?_Buynode@?$_Tree@V?$_Tmap_traits@V?$basic_string@DU?$char_traits@D@std@@V?$allocator@D@2@@std@@V?$vector@V?$basic_string@DU?$char_traits@D@std@@V?$allocator@D@2@@std@@V?$allocator@V?$basic_string@DU?$char_traits@D@std@@V?$allocator@D@2@@std@@@2@@2@U?$less@V?$basic_string@DU?$char_traits@D@std@@V?$allocator@D@2@@std@@@2@V?$allocator@U?$pair@$$CBV?$basic_string@DU?$char_traits@D@std@@V?$allocator@D@2@@std@@V?$vector@V?$basic_string@DU?$char_traits@D@std@@V?$allocator@D@2@@std@@V?$allocator@V?$basic_string@DU?$char_traits@D@std@@V?$allocator@D@2@@std@@@2@@2@@std@@@2@$0A@@std@@@std@@IAEPAU_Node@?$_Tree_nod@V?$_Tmap_traits@V?$basic_string@DU?$char_traits@D@std@@V?$allocator@D@2@@std@@V?$vector@V?$basic_string@DU?$char_traits@D@std@@V?$allocator@D@2@@std@@V?$allocator@V?$basic_string@DU?$char_traits@D@std@@V?$allocator@D@2@@std@@@2@@2@U?$less@V?$basic_string@DU?$char_traits@D@std@@V?$allocator@D@2@@std@@@2@V?$allocator@U?$pair@$$CBV?$basic_string@DU?$char_traits@D@std@@V?$allocator@D@2@@std@@V?$vector@V?$basic_string@DU?$char_traits@D@std@@V?$allocator@D@2@@std@@V?$allocator@V?$basic_string@DU?$char_traits@D@std@@V?$allocator@D@2@@std@@@2@@2@@std@@@2@$0A@@std@@@2@XZ 00431b50 f i dbconnect.obj
 0001:00030b90       ?_Copy@?$_Tree@V?$_Tmap_traits@JNU?$less@J@std@@V?$allocator@U?$pair@$$CBJN@std@@@2@$0A@@std@@@std@@IAEPAU_Node@?$_Tree_nod@V?$_Tmap_traits@JNU?$less@J@std@@V?$allocator@U?$pair@$$CBJN@std@@@2@$0A@@std@@@2@PAU342@0@Z 00431b90 f i dbconnect.obj
 0001:00030c50       ?_Copy@?$_Tree@V?$_Tmap_traits@HHU?$less@H@std@@V?$allocator@U?$pair@$$CBHH@std@@@2@$0A@@std@@@std@@IAEPAU_Node@?$_Tree_nod@V?$_Tmap_traits@HHU?$less@H@std@@V?$allocator@U?$pair@$$CBHH@std@@@2@$0A@@std@@@2@PAU342@0@Z 00431c50 f i dbconnect.obj
 0001:00030d10       ?_Lbound@?$_Tree@V?$_Tmap_traits@V?$basic_string@DU?$char_traits@D@std@@V?$allocator@D@2@@std@@V?$vector@V?$basic_string@DU?$char_traits@D@std@@V?$allocator@D@2@@std@@V?$allocator@V?$basic_string@DU?$char_traits@D@std@@V?$allocator@D@2@@std@@@2@@2@U?$less@V?$basic_string@DU?$char_traits@D@std@@V?$allocator@D@2@@std@@@2@V?$allocator@U?$pair@$$CBV?$basic_string@DU?$char_traits@D@std@@V?$allocator@D@2@@std@@V?$vector@V?$basic_string@DU?$char_traits@D@std@@V?$allocator@D@2@@std@@V?$allocator@V?$basic_string@DU?$char_traits@D@std@@V?$allocator@D@2@@std@@@2@@2@@std@@@2@$0A@@std@@@std@@IBEPAU_Node@?$_Tree_nod@V?$_Tmap_traits@V?$basic_string@DU?$char_traits@D@std@@V?$allocator@D@2@@std@@V?$vector@V?$basic_string@DU?$char_traits@D@std@@V?$allocator@D@2@@std@@V?$allocator@V?$basic_string@DU?$char_traits@D@std@@V?$allocator@D@2@@std@@@2@@2@U?$less@V?$basic_string@DU?$char_traits@D@std@@V?$allocator@D@2@@std@@@2@V?$allocator@U?$pair@$$CBV?$basic_string@DU?$char_traits@D@std@@V?$allocator@D@2@@std@@V?$vector@V?$basic_string@DU?$char_traits@D@std@@V?$allocator@D@2@@std@@V?$allocator@V?$basic_string@DU?$char_traits@D@std@@V?$allocator@D@2@@std@@@2@@2@@std@@@2@$0A@@std@@@2@ABV?$basic_string@DU?$char_traits@D@std@@V?$allocator@D@2@@2@@Z 00431d10 f i dbconnect.obj
 0001:00030da0       ??0DbConnectionDriverInfo@@QAE@XZ 00431da0 f i dbconnect.obj
 0001:00030e10       ??1DbConnectionDriverInfo@@QAE@XZ 00431e10 f i dbconnect.obj
 0001:00030f10       ?_Copy@?$_Tree@V?$_Tmap_traits@JNU?$less@J@std@@V?$allocator@U?$pair@$$CBJN@std@@@2@$0A@@std@@@std@@IAEXABV12@@Z 00431f10 f i dbconnect.obj
 0001:00030f90       ?_Copy@?$_Tree@V?$_Tmap_traits@HHU?$less@H@std@@V?$allocator@U?$pair@$$CBHH@std@@@2@$0A@@std@@@std@@IAEXABV12@@Z 00431f90 f i dbconnect.obj
 0001:00031010       ??1?$pair@V?$basic_string@DU?$char_traits@D@std@@V?$allocator@D@2@@std@@UValue@ConfigSection@@@std@@QAE@XZ 00432010 f i configFile.obj
 0001:00031010       ??1?$pair@V?$basic_string@DU?$char_traits@D@std@@V?$allocator@D@2@@std@@V12@@std@@QAE@XZ 00432010 f i IniFile.obj
 0001:00031010       ??1?$pair@$$CBV?$basic_string@DU?$char_traits@D@std@@V?$allocator@D@2@@std@@UValue@ConfigSection@@@std@@QAE@XZ 00432010 f i dbconnect.obj
 0001:00031010       ??1?$pair@$$CBV?$basic_string@DU?$char_traits@D@std@@V?$allocator@D@2@@std@@V12@@std@@QAE@XZ 00432010 f i ConfigureLoader.obj
 0001:00031060       ??0BaseException@@QAE@ABV0@@Z 00432060 f i dbconnect.obj
 0001:00031130       ??0BaseConnection@@QAE@ABV0@@Z 00432130 f i dbconnect.obj
 0001:000312a0       ??0NotConnected@@QAE@ABV0@@Z 004322a0 f i dbconnect.obj
 0001:000312a0       ??0DriverError@@QAE@ABV0@@Z 004322a0 f i dbconnect.obj
 0001:000312a0       ??0NameNotFound@@QAE@ABV0@@Z 004322a0 f i dbconnect.obj
 0001:000312a0       ??0QueryConnectionTimeout@@QAE@ABV0@@Z 004322a0 f i dbconnect.obj
 0001:000312a0       ??0NotImplemented@@QAE@ABV0@@Z 004322a0 f i dbconnect.obj
 0001:000312a0       ??0OpenError@ConfigFile@@QAE@ABV01@@Z 004322a0 f i configFile.obj
 0001:000312a0       ??0IndexOutOfRange@@QAE@ABV0@@Z 004322a0 f i dbconnect.obj
 0001:000312a0       ??0OpenError@DlLoader@@QAE@ABV01@@Z 004322a0 f i dlLoader.obj
 0001:000312a0       ??0UnknownException@@QAE@ABV0@@Z 004322a0 f i dbconnect.obj
 0001:000312a0       ??0CloseError@DlLoader@@QAE@ABV01@@Z 004322a0 f i dlLoader.obj
 0001:000312a0       ??0OutOfRangeError@JDate@@QAE@ABV01@@Z 004322a0 f i jDate.obj
 0001:000312a0       ??0ResultSetError@@QAE@ABV0@@Z 004322a0 f i dbconnect.obj
 0001:000312a0       ??0BindParameterError@@QAE@ABV0@@Z 004322a0 f i dbconnect.obj
 0001:000312a0       ??0ConversionError@JDate@@QAE@ABV01@@Z 004322a0 f i jDate.obj
 0001:000312a0       ??0Error@@QAE@ABV0@@Z      004322a0 f i dbconnect.obj
 0001:000312a0       ??0DuplicateNameError@ConfigFile@@QAE@ABV01@@Z 004322a0 f i configFile.obj
 0001:000312a0       ??0TransactionError@@QAE@ABV0@@Z 004322a0 f i dbconnect.obj
 0001:000312a0       ??0MutexError@SimpleThread_Mutex@@QAE@ABV01@@Z 004322a0 f i simpleThreads.obj
 0001:000312a0       ??0CommandError@@QAE@ABV0@@Z 004322a0 f i dbconnect.obj
 0001:000312a0       ??0ErrorConnecting@@QAE@ABV0@@Z 004322a0 f i dbconnect.obj
 0001:000312a0       ??0SectionNotFoundError@ConfigFile@@QAE@ABV01@@Z 004322a0 f i configFile.obj
 0001:000312a0       ??0EndOfResultSet@@QAE@ABV0@@Z 004322a0 f i dbconnect.obj
 0001:000312a0       ??0ErrorPingingConnection@@QAE@ABV0@@Z 004322a0 f i dbconnect.obj
 0001:000312a0       ??0AlreadyConnected@@QAE@ABV0@@Z 004322a0 f i dbconnect.obj
 0001:000312a0       ??0ErrorQuerying@@QAE@ABV0@@Z 004322a0 f i dbconnect.obj
 0001:000312a0       ??0BindParameterNotSet@@QAE@ABV0@@Z 004322a0 f i dbconnect.obj
 0001:000312a0       ??0BindParameterNotPresent@@QAE@ABV0@@Z 004322a0 f i dbconnect.obj
 0001:000312a0       ??0SymbolLoadError@DlLoader@@QAE@ABV01@@Z 004322a0 f i dlLoader.obj
 0001:000312a0       ??0NameKeyNotFoundError@ConfigSection@@QAE@ABV01@@Z 004322a0 f i configFile.obj
 0001:000312c0       ??0BaseValue@@QAE@ABV0@@Z  004322c0 f i dbconnect.obj
 0001:00031310       ??0BaseFieldDescription@@QAE@ABV0@@Z 00432310 f i dbconnect.obj
 0001:00031380       ??0BaseQuery@@QAE@ABV0@@Z  00432380 f i dbconnect.obj
 0001:000313e0       ?erase@?$_Tree@V?$_Tmap_traits@JNU?$less@J@std@@V?$allocator@U?$pair@$$CBJN@std@@@2@$0A@@std@@@std@@QAE?AViterator@12@V312@@Z 004323e0 f i dbconnect.obj
 0001:000316a0       ?erase@?$_Tree@V?$_Tmap_traits@HHU?$less@H@std@@V?$allocator@U?$pair@$$CBHH@std@@@2@$0A@@std@@@std@@QAE?AViterator@12@V312@@Z 004326a0 f i dbconnect.obj
 0001:00031960       ??0?$pair@$$CBV?$basic_string@DU?$char_traits@D@std@@V?$allocator@D@2@@std@@UValue@ConfigSection@@@std@@QAE@ABU01@@Z 00432960 f i dbconnect.obj
 0001:000319f0       ??$_Uninit_copy@PAV?$basic_string@DU?$char_traits@D@std@@V?$allocator@D@2@@std@@PAV12@V?$allocator@V?$basic_string@DU?$char_traits@D@std@@V?$allocator@D@2@@std@@@2@@std@@YAPAV?$basic_string@DU?$char_traits@D@std@@V?$allocator@D@2@@0@PAV10@00AAV?$allocator@V?$basic_string@DU?$char_traits@D@std@@V?$allocator@D@2@@std@@@0@U_Nonscalar_ptr_iterator_tag@0@U_Range_checked_iterator_tag@0@@Z 004329f0 f i dbconnect.obj
 0001:00031ab0       ??4BaseException@@QAEAAV0@ABV0@@Z 00432ab0 f i dbconnect.obj
 0001:00031b10       ??_FBaseException@@QAEXXZ  00432b10 f i dbconnect.obj
 0001:00031bf0       ??4DlLoader@@QAEAAV0@ABV0@@Z 00432bf0 f i dbconnect.obj
 0001:00031c20       ??4BaseConnection@@QAEAAV0@ABV0@@Z 00432c20 f i dbconnect.obj
 0001:00031cf0       ??_FBaseConnection@@QAEXXZ 00432cf0 f i dbconnect.obj
 0001:00031d80       ??4NotConnected@@QAEAAV0@ABV0@@Z 00432d80 f i dbconnect.obj
 0001:00031d80       ??4ErrorQuerying@@QAEAAV0@ABV0@@Z 00432d80 f i dbconnect.obj
 0001:00031d80       ??4AlreadyConnected@@QAEAAV0@ABV0@@Z 00432d80 f i dbconnect.obj
 0001:00031d80       ??4BindParameterNotPresent@@QAEAAV0@ABV0@@Z 00432d80 f i dbconnect.obj
 0001:00031d80       ??4Error@@QAEAAV0@ABV0@@Z  00432d80 f i dbconnect.obj
 0001:00031d80       ??4IndexOutOfRange@@QAEAAV0@ABV0@@Z 00432d80 f i dbconnect.obj
 0001:00031d80       ??4BindParameterNotSet@@QAEAAV0@ABV0@@Z 00432d80 f i dbconnect.obj
 0001:00031d80       ??4EndOfResultSet@@QAEAAV0@ABV0@@Z 00432d80 f i dbconnect.obj
 0001:00031d80       ??4NameNotFound@@QAEAAV0@ABV0@@Z 00432d80 f i dbconnect.obj
 0001:00031d80       ??4DriverError@@QAEAAV0@ABV0@@Z 00432d80 f i dbconnect.obj
 0001:00031d80       ??4ErrorConnecting@@QAEAAV0@ABV0@@Z 00432d80 f i dbconnect.obj
 0001:00031d80       ??4UnknownException@@QAEAAV0@ABV0@@Z 00432d80 f i dbconnect.obj
 0001:00031d80       ??4BindParameterError@@QAEAAV0@ABV0@@Z 00432d80 f i dbconnect.obj
 0001:00031d80       ??4ErrorPingingConnection@@QAEAAV0@ABV0@@Z 00432d80 f i dbconnect.obj
 0001:00031d80       ??4TransactionError@@QAEAAV0@ABV0@@Z 00432d80 f i dbconnect.obj
 0001:00031d80       ??4NotImplemented@@QAEAAV0@ABV0@@Z 00432d80 f i dbconnect.obj
 0001:00031d80       ??4QueryConnectionTimeout@@QAEAAV0@ABV0@@Z 00432d80 f i dbconnect.obj
 0001:00031d80       ??4CommandError@@QAEAAV0@ABV0@@Z 00432d80 f i dbconnect.obj
 0001:00031d80       ??4ResultSetError@@QAEAAV0@ABV0@@Z 00432d80 f i dbconnect.obj
 0001:00031da0       ??4BaseValue@@QAEAAV0@ABV0@@Z 00432da0 f i dbconnect.obj
 0001:00031de0       ??4BaseFieldDescription@@QAEAAV0@ABV0@@Z 00432de0 f i dbconnect.obj
 0001:00031e40       ??4BaseQuery@@QAEAAV0@ABV0@@Z 00432e40 f i dbconnect.obj
 0001:00031e80       ?erase@?$_Tree@V?$_Tmap_traits@JNU?$less@J@std@@V?$allocator@U?$pair@$$CBJN@std@@@2@$0A@@std@@@std@@QAE?AViterator@12@V312@0@Z 00432e80 f i dbconnect.obj
 0001:00031f50       ??1?$map@JNU?$less@J@std@@V?$allocator@U?$pair@$$CBJN@std@@@2@@std@@QAE@XZ 00432f50 f i dbconnect.obj
 0001:00031f50       ?_Tidy@?$_Tree@V?$_Tmap_traits@JNU?$less@J@std@@V?$allocator@U?$pair@$$CBJN@std@@@2@$0A@@std@@@std@@IAEXXZ 00432f50 f i dbconnect.obj
 0001:00031f90       ?erase@?$_Tree@V?$_Tmap_traits@HHU?$less@H@std@@V?$allocator@U?$pair@$$CBHH@std@@@2@$0A@@std@@@std@@QAE?AViterator@12@V312@0@Z 00432f90 f i dbconnect.obj
 0001:00032060       ?_Tidy@?$_Tree@V?$_Tmap_traits@HHU?$less@H@std@@V?$allocator@U?$pair@$$CBHH@std@@@2@$0A@@std@@@std@@IAEXXZ 00433060 f i dbconnect.obj
 0001:00032060       ??1?$map@HHU?$less@H@std@@V?$allocator@U?$pair@$$CBHH@std@@@2@@std@@QAE@XZ 00433060 f i dbconnect.obj
 0001:000320a0       ??0?$_Tree@V?$_Tmap_traits@JNU?$less@J@std@@V?$allocator@U?$pair@$$CBJN@std@@@2@$0A@@std@@@std@@QAE@ABV01@@Z 004330a0 f i dbconnect.obj
 0001:00032130       ??0?$_Tree@V?$_Tmap_traits@HHU?$less@H@std@@V?$allocator@U?$pair@$$CBHH@std@@@2@$0A@@std@@@std@@QAE@ABV01@@Z 00433130 f i dbconnect.obj
 0001:000321c0       ?erase@?$_Tree@V?$_Tmap_traits@V?$basic_string@DU?$char_traits@D@std@@V?$allocator@D@2@@std@@UValue@ConfigSection@@U?$less@V?$basic_string@DU?$char_traits@D@std@@V?$allocator@D@2@@std@@@2@V?$allocator@U?$pair@$$CBV?$basic_string@DU?$char_traits@D@std@@V?$allocator@D@2@@std@@UValue@ConfigSection@@@std@@@2@$0A@@std@@@std@@QAE?AViterator@12@V312@@Z 004331c0 f i dbconnect.obj
 0001:000324d0       ?_Erase@?$_Tree@V?$_Tmap_traits@V?$basic_string@DU?$char_traits@D@std@@V?$allocator@D@2@@std@@UValue@ConfigSection@@U?$less@V?$basic_string@DU?$char_traits@D@std@@V?$allocator@D@2@@std@@@2@V?$allocator@U?$pair@$$CBV?$basic_string@DU?$char_traits@D@std@@V?$allocator@D@2@@std@@UValue@ConfigSection@@@std@@@2@$0A@@std@@@std@@IAEXPAU_Node@?$_Tree_nod@V?$_Tmap_traits@V?$basic_string@DU?$char_traits@D@std@@V?$allocator@D@2@@std@@UValue@ConfigSection@@U?$less@V?$basic_string@DU?$char_traits@D@std@@V?$allocator@D@2@@std@@@2@V?$allocator@U?$pair@$$CBV?$basic_string@DU?$char_traits@D@std@@V?$allocator@D@2@@std@@UValue@ConfigSection@@@std@@@2@$0A@@std@@@2@@Z 004334d0 f i dbconnect.obj
 0001:00032550       ?_Buynode@?$_Tree@V?$_Tmap_traits@V?$basic_string@DU?$char_traits@D@std@@V?$allocator@D@2@@std@@UValue@ConfigSection@@U?$less@V?$basic_string@DU?$char_traits@D@std@@V?$allocator@D@2@@std@@@2@V?$allocator@U?$pair@$$CBV?$basic_string@DU?$char_traits@D@std@@V?$allocator@D@2@@std@@UValue@ConfigSection@@@std@@@2@$0A@@std@@@std@@IAEPAU_Node@?$_Tree_nod@V?$_Tmap_traits@V?$basic_string@DU?$char_traits@D@std@@V?$allocator@D@2@@std@@UValue@ConfigSection@@U?$less@V?$basic_string@DU?$char_traits@D@std@@V?$allocator@D@2@@std@@@2@V?$allocator@U?$pair@$$CBV?$basic_string@DU?$char_traits@D@std@@V?$allocator@D@2@@std@@UValue@ConfigSection@@@std@@@2@$0A@@std@@@2@PAU342@00ABU?$pair@$$CBV?$basic_string@DU?$char_traits@D@std@@V?$allocator@D@2@@std@@UValue@ConfigSection@@@2@D@Z 00433550 f i dbconnect.obj
 0001:000325f0       ??$_Ucopy@PAV?$basic_string@DU?$char_traits@D@std@@V?$allocator@D@2@@std@@@?$vector@V?$basic_string@DU?$char_traits@D@std@@V?$allocator@D@2@@std@@V?$allocator@V?$basic_string@DU?$char_traits@D@std@@V?$allocator@D@2@@std@@@2@@std@@IAEPAV?$basic_string@DU?$char_traits@D@std@@V?$allocator@D@2@@1@PAV21@00@Z 004335f0 f i dbconnect.obj
 0001:00032620       ??1?$pair@$$CBV?$basic_string@DU?$char_traits@D@std@@V?$allocator@D@2@@std@@V?$vector@V?$basic_string@DU?$char_traits@D@std@@V?$allocator@D@2@@std@@V?$allocator@V?$basic_string@DU?$char_traits@D@std@@V?$allocator@D@2@@std@@@2@@2@@std@@QAE@XZ 00433620 f i dbconnect.obj
 0001:00032680       ?_Copy@?$_Tree@V?$_Tmap_traits@V?$basic_string@DU?$char_traits@D@std@@V?$allocator@D@2@@std@@UValue@ConfigSection@@U?$less@V?$basic_string@DU?$char_traits@D@std@@V?$allocator@D@2@@std@@@2@V?$allocator@U?$pair@$$CBV?$basic_string@DU?$char_traits@D@std@@V?$allocator@D@2@@std@@UValue@ConfigSection@@@std@@@2@$0A@@std@@@std@@IAEPAU_Node@?$_Tree_nod@V?$_Tmap_traits@V?$basic_string@DU?$char_traits@D@std@@V?$allocator@D@2@@std@@UValue@ConfigSection@@U?$less@V?$basic_string@DU?$char_traits@D@std@@V?$allocator@D@2@@std@@@2@V?$allocator@U?$pair@$$CBV?$basic_string@DU?$char_traits@D@std@@V?$allocator@D@2@@std@@UValue@ConfigSection@@@std@@@2@$0A@@std@@@2@PAU342@0@Z 00433680 f i dbconnect.obj
 0001:00032740       ??0?$pair@$$CBV?$basic_string@DU?$char_traits@D@std@@V?$allocator@D@2@@std@@V?$vector@V?$basic_string@DU?$char_traits@D@std@@V?$allocator@D@2@@std@@V?$allocator@V?$basic_string@DU?$char_traits@D@std@@V?$allocator@D@2@@std@@@2@@2@@std@@QAE@ABU01@@Z 00433740 f i dbconnect.obj
 0001:000327c0       ??0JDate@@QAE@ABV0@@Z      004337c0 f i dbconnect.obj
 0001:00032850       ??4JDate@@QAEAAV0@ABV0@@Z  00433850 f i dbconnect.obj
 0001:000328f0       ?erase@?$_Tree@V?$_Tmap_traits@V?$basic_string@DU?$char_traits@D@std@@V?$allocator@D@2@@std@@UValue@ConfigSection@@U?$less@V?$basic_string@DU?$char_traits@D@std@@V?$allocator@D@2@@std@@@2@V?$allocator@U?$pair@$$CBV?$basic_string@DU?$char_traits@D@std@@V?$allocator@D@2@@std@@UValue@ConfigSection@@@std@@@2@$0A@@std@@@std@@QAE?AViterator@12@V312@0@Z 004338f0 f i dbconnect.obj
 0001:000329c0       ?_Copy@?$_Tree@V?$_Tmap_traits@V?$basic_string@DU?$char_traits@D@std@@V?$allocator@D@2@@std@@UValue@ConfigSection@@U?$less@V?$basic_string@DU?$char_traits@D@std@@V?$allocator@D@2@@std@@@2@V?$allocator@U?$pair@$$CBV?$basic_string@DU?$char_traits@D@std@@V?$allocator@D@2@@std@@UValue@ConfigSection@@@std@@@2@$0A@@std@@@std@@IAEXABV12@@Z 004339c0 f i dbconnect.obj
 0001:00032a40       ?_Tidy@?$_Tree@V?$_Tmap_traits@V?$basic_string@DU?$char_traits@D@std@@V?$allocator@D@2@@std@@UValue@ConfigSection@@U?$less@V?$basic_string@DU?$char_traits@D@std@@V?$allocator@D@2@@std@@@2@V?$allocator@U?$pair@$$CBV?$basic_string@DU?$char_traits@D@std@@V?$allocator@D@2@@std@@UValue@ConfigSection@@@std@@@2@$0A@@std@@@std@@IAEXXZ 00433a40 f i dbconnect.obj
 0001:00032a80       ??0?$pair@$$CBV?$basic_string@DU?$char_traits@D@std@@V?$allocator@D@2@@std@@V?$vector@V?$basic_string@DU?$char_traits@D@std@@V?$allocator@D@2@@std@@V?$allocator@V?$basic_string@DU?$char_traits@D@std@@V?$allocator@D@2@@std@@@2@@2@@std@@QAE@ABV?$basic_string@DU?$char_traits@D@std@@V?$allocator@D@2@@1@ABV?$vector@V?$basic_string@DU?$char_traits@D@std@@V?$allocator@D@2@@std@@V?$allocator@V?$basic_string@DU?$char_traits@D@std@@V?$allocator@D@2@@std@@@2@@1@@Z 00433a80 f i dbconnect.obj
 0001:00032b00       ??0?$_Tree@V?$_Tmap_traits@V?$basic_string@DU?$char_traits@D@std@@V?$allocator@D@2@@std@@UValue@ConfigSection@@U?$less@V?$basic_string@DU?$char_traits@D@std@@V?$allocator@D@2@@std@@@2@V?$allocator@U?$pair@$$CBV?$basic_string@DU?$char_traits@D@std@@V?$allocator@D@2@@std@@UValue@ConfigSection@@@std@@@2@$0A@@std@@@std@@QAE@ABV01@@Z 00433b00 f i dbconnect.obj
 0001:00032b90       ??4?$vector@V?$basic_string@DU?$char_traits@D@std@@V?$allocator@D@2@@std@@V?$allocator@V?$basic_string@DU?$char_traits@D@std@@V?$allocator@D@2@@std@@@2@@std@@QAEAAV01@ABV01@@Z 00433b90 f i dbconnect.obj
 0001:00032d40       ?_Buynode@?$_Tree@V?$_Tmap_traits@V?$basic_string@DU?$char_traits@D@std@@V?$allocator@D@2@@std@@V?$vector@V?$basic_string@DU?$char_traits@D@std@@V?$allocator@D@2@@std@@V?$allocator@V?$basic_string@DU?$char_traits@D@std@@V?$allocator@D@2@@std@@@2@@2@U?$less@V?$basic_string@DU?$char_traits@D@std@@V?$allocator@D@2@@std@@@2@V?$allocator@U?$pair@$$CBV?$basic_string@DU?$char_traits@D@std@@V?$allocator@D@2@@std@@V?$vector@V?$basic_string@DU?$char_traits@D@std@@V?$allocator@D@2@@std@@V?$allocator@V?$basic_string@DU?$char_traits@D@std@@V?$allocator@D@2@@std@@@2@@2@@std@@@2@$0A@@std@@@std@@IAEPAU_Node@?$_Tree_nod@V?$_Tmap_traits@V?$basic_string@DU?$char_traits@D@std@@V?$allocator@D@2@@std@@V?$vector@V?$basic_string@DU?$char_traits@D@std@@V?$allocator@D@2@@std@@V?$allocator@V?$basic_string@DU?$char_traits@D@std@@V?$allocator@D@2@@std@@@2@@2@U?$less@V?$basic_string@DU?$char_traits@D@std@@V?$allocator@D@2@@std@@@2@V?$allocator@U?$pair@$$CBV?$basic_string@DU?$char_traits@D@std@@V?$allocator@D@2@@std@@V?$vector@V?$basic_string@DU?$char_traits@D@std@@V?$allocator@D@2@@std@@V?$allocator@V?$basic_string@DU?$char_traits@D@std@@V?$allocator@D@2@@std@@@2@@2@@std@@@2@$0A@@std@@@2@PAU342@00ABU?$pair@$$CBV?$basic_string@DU?$char_traits@D@std@@V?$allocator@D@2@@std@@V?$vector@V?$basic_string@DU?$char_traits@D@std@@V?$allocator@D@2@@std@@V?$allocator@V?$basic_string@DU?$char_traits@D@std@@V?$allocator@D@2@@std@@@2@@2@@2@D@Z 00433d40 f i dbconnect.obj
 0001:00032de0       ?_Insert@?$_Tree@V?$_Tmap_traits@V?$basic_string@DU?$char_traits@D@std@@V?$allocator@D@2@@std@@V?$vector@V?$basic_string@DU?$char_traits@D@std@@V?$allocator@D@2@@std@@V?$allocator@V?$basic_string@DU?$char_traits@D@std@@V?$allocator@D@2@@std@@@2@@2@U?$less@V?$basic_string@DU?$char_traits@D@std@@V?$allocator@D@2@@std@@@2@V?$allocator@U?$pair@$$CBV?$basic_string@DU?$char_traits@D@std@@V?$allocator@D@2@@std@@V?$vector@V?$basic_string@DU?$char_traits@D@std@@V?$allocator@D@2@@std@@V?$allocator@V?$basic_string@DU?$char_traits@D@std@@V?$allocator@D@2@@std@@@2@@2@@std@@@2@$0A@@std@@@std@@IAE?AViterator@12@_NPAU_Node@?$_Tree_nod@V?$_Tmap_traits@V?$basic_string@DU?$char_traits@D@std@@V?$allocator@D@2@@std@@V?$vector@V?$basic_string@DU?$char_traits@D@std@@V?$allocator@D@2@@std@@V?$allocator@V?$basic_string@DU?$char_traits@D@std@@V?$allocator@D@2@@std@@@2@@2@U?$less@V?$basic_string@DU?$char_traits@D@std@@V?$allocator@D@2@@std@@@2@V?$allocator@U?$pair@$$CBV?$basic_string@DU?$char_traits@D@std@@V?$allocator@D@2@@std@@V?$vector@V?$basic_string@DU?$char_traits@D@std@@V?$allocator@D@2@@std@@V?$allocator@V?$basic_string@DU?$char_traits@D@std@@V?$allocator@D@2@@std@@@2@@2@@std@@@2@$0A@@std@@@2@ABU?$pair@$$CBV?$basic_string@DU?$char_traits@D@std@@V?$allocator@D@2@@std@@V?$vector@V?$basic_string@DU?$char_traits@D@std@@V?$allocator@D@2@@std@@V?$allocator@V?$basic_string@DU?$char_traits@D@std@@V?$allocator@D@2@@std@@@2@@2@@2@@Z 00433de0 f i dbconnect.obj
 0001:00032fe0       ??1ConfigSection@@QAE@XZ   00433fe0 f i dbconnect.obj
 0001:00033070       ??0ConfigSection@@QAE@ABV0@@Z 00434070 f i dbconnect.obj
 0001:000330f0       ??4ConfigSection@@QAEAAV0@ABV0@@Z 004340f0 f i dbconnect.obj
 0001:00033140       ?insert@?$_Tree@V?$_Tmap_traits@V?$basic_string@DU?$char_traits@D@std@@V?$allocator@D@2@@std@@V?$vector@V?$basic_string@DU?$char_traits@D@std@@V?$allocator@D@2@@std@@V?$allocator@V?$basic_string@DU?$char_traits@D@std@@V?$allocator@D@2@@std@@@2@@2@U?$less@V?$basic_string@DU?$char_traits@D@std@@V?$allocator@D@2@@std@@@2@V?$allocator@U?$pair@$$CBV?$basic_string@DU?$char_traits@D@std@@V?$allocator@D@2@@std@@V?$vector@V?$basic_string@DU?$char_traits@D@std@@V?$allocator@D@2@@std@@V?$allocator@V?$basic_string@DU?$char_traits@D@std@@V?$allocator@D@2@@std@@@2@@2@@std@@@2@$0A@@std@@@std@@QAE?AU?$pair@Viterator@?$_Tree@V?$_Tmap_traits@V?$basic_string@DU?$char_traits@D@std@@V?$allocator@D@2@@std@@V?$vector@V?$basic_string@DU?$char_traits@D@std@@V?$allocator@D@2@@std@@V?$allocator@V?$basic_string@DU?$char_traits@D@std@@V?$allocator@D@2@@std@@@2@@2@U?$less@V?$basic_string@DU?$char_traits@D@std@@V?$allocator@D@2@@std@@@2@V?$allocator@U?$pair@$$CBV?$basic_string@DU?$char_traits@D@std@@V?$allocator@D@2@@std@@V?$vector@V?$basic_string@DU?$char_traits@D@std@@V?$allocator@D@2@@std@@V?$allocator@V?$basic_string@DU?$char_traits@D@std@@V?$allocator@D@2@@std@@@2@@2@@std@@@2@$0A@@std@@@std@@_N@2@ABU?$pair@$$CBV?$basic_string@DU?$char_traits@D@std@@V?$allocator@D@2@@std@@V?$vector@V?$basic_string@DU?$char_traits@D@std@@V?$allocator@D@2@@std@@V?$allocator@V?$basic_string@DU?$char_traits@D@std@@V?$allocator@D@2@@std@@@2@@2@@2@@Z 00434140 f i dbconnect.obj
 0001:00033270       ?erase@?$_Tree@V?$_Tmap_traits@V?$basic_string@DU?$char_traits@D@std@@V?$allocator@D@2@@std@@V?$vector@V?$basic_string@DU?$char_traits@D@std@@V?$allocator@D@2@@std@@V?$allocator@V?$basic_string@DU?$char_traits@D@std@@V?$allocator@D@2@@std@@@2@@2@U?$less@V?$basic_string@DU?$char_traits@D@std@@V?$allocator@D@2@@std@@@2@V?$allocator@U?$pair@$$CBV?$basic_string@DU?$char_traits@D@std@@V?$allocator@D@2@@std@@V?$vector@V?$basic_string@DU?$char_traits@D@std@@V?$allocator@D@2@@std@@V?$allocator@V?$basic_string@DU?$char_traits@D@std@@V?$allocator@D@2@@std@@@2@@2@@std@@@2@$0A@@std@@@std@@QAE?AViterator@12@V312@@Z 00434270 f i dbconnect.obj
 0001:00033590       ?_Erase@?$_Tree@V?$_Tmap_traits@V?$basic_string@DU?$char_traits@D@std@@V?$allocator@D@2@@std@@V?$vector@V?$basic_string@DU?$char_traits@D@std@@V?$allocator@D@2@@std@@V?$allocator@V?$basic_string@DU?$char_traits@D@std@@V?$allocator@D@2@@std@@@2@@2@U?$less@V?$basic_string@DU?$char_traits@D@std@@V?$allocator@D@2@@std@@@2@V?$allocator@U?$pair@$$CBV?$basic_string@DU?$char_traits@D@std@@V?$allocator@D@2@@std@@V?$vector@V?$basic_string@DU?$char_traits@D@std@@V?$allocator@D@2@@std@@V?$allocator@V?$basic_string@DU?$char_traits@D@std@@V?$allocator@D@2@@std@@@2@@2@@std@@@2@$0A@@std@@@std@@IAEXPAU_Node@?$_Tree_nod@V?$_Tmap_traits@V?$basic_string@DU?$char_traits@D@std@@V?$allocator@D@2@@std@@V?$vector@V?$basic_string@DU?$char_traits@D@std@@V?$allocator@D@2@@std@@V?$allocator@V?$basic_string@DU?$char_traits@D@std@@V?$allocator@D@2@@std@@@2@@2@U?$less@V?$basic_string@DU?$char_traits@D@std@@V?$allocator@D@2@@std@@@2@V?$allocator@U?$pair@$$CBV?$basic_string@DU?$char_traits@D@std@@V?$allocator@D@2@@std@@V?$vector@V?$basic_string@DU?$char_traits@D@std@@V?$allocator@D@2@@std@@V?$allocator@V?$basic_string@DU?$char_traits@D@std@@V?$allocator@D@2@@std@@@2@@2@@std@@@2@$0A@@std@@@2@@Z 00434590 f i dbconnect.obj
 0001:00033620       ??0?$pair@$$CBV?$basic_string@DU?$char_traits@D@std@@V?$allocator@D@2@@std@@VConfigSection@@@std@@QAE@ABU01@@Z 00434620 f i dbconnect.obj
 0001:000336a0       ??1?$pair@$$CBV?$basic_string@DU?$char_traits@D@std@@V?$allocator@D@2@@std@@VConfigSection@@@std@@QAE@XZ 004346a0 f i dbconnect.obj
 0001:00033710       ?insert@?$_Tree@V?$_Tmap_traits@V?$basic_string@DU?$char_traits@D@std@@V?$allocator@D@2@@std@@V?$vector@V?$basic_string@DU?$char_traits@D@std@@V?$allocator@D@2@@std@@V?$allocator@V?$basic_string@DU?$char_traits@D@std@@V?$allocator@D@2@@std@@@2@@2@U?$less@V?$basic_string@DU?$char_traits@D@std@@V?$allocator@D@2@@std@@@2@V?$allocator@U?$pair@$$CBV?$basic_string@DU?$char_traits@D@std@@V?$allocator@D@2@@std@@V?$vector@V?$basic_string@DU?$char_traits@D@std@@V?$allocator@D@2@@std@@V?$allocator@V?$basic_string@DU?$char_traits@D@std@@V?$allocator@D@2@@std@@@2@@2@@std@@@2@$0A@@std@@@std@@QAE?AViterator@12@V312@ABU?$pair@$$CBV?$basic_string@DU?$char_traits@D@std@@V?$allocator@D@2@@std@@V?$vector@V?$basic_string@DU?$char_traits@D@std@@V?$allocator@D@2@@std@@V?$allocator@V?$basic_string@DU?$char_traits@D@std@@V?$allocator@D@2@@std@@@2@@2@@2@@Z 00434710 f i dbconnect.obj
 0001:00033910       ??A?$map@V?$basic_string@DU?$char_traits@D@std@@V?$allocator@D@2@@std@@V?$vector@V?$basic_string@DU?$char_traits@D@std@@V?$allocator@D@2@@std@@V?$allocator@V?$basic_string@DU?$char_traits@D@std@@V?$allocator@D@2@@std@@@2@@2@U?$less@V?$basic_string@DU?$char_traits@D@std@@V?$allocator@D@2@@std@@@2@V?$allocator@U?$pair@$$CBV?$basic_string@DU?$char_traits@D@std@@V?$allocator@D@2@@std@@V?$vector@V?$basic_string@DU?$char_traits@D@std@@V?$allocator@D@2@@std@@V?$allocator@V?$basic_string@DU?$char_traits@D@std@@V?$allocator@D@2@@std@@@2@@2@@std@@@2@@std@@QAEAAV?$vector@V?$basic_string@DU?$char_traits@D@std@@V?$allocator@D@2@@std@@V?$allocator@V?$basic_string@DU?$char_traits@D@std@@V?$allocator@D@2@@std@@@2@@1@ABV?$basic_string@DU?$char_traits@D@std@@V?$allocator@D@2@@1@@Z 00434910 f i dbconnect.obj
 0001:00033a20       ?erase@?$_Tree@V?$_Tmap_traits@V?$basic_string@DU?$char_traits@D@std@@V?$allocator@D@2@@std@@V?$vector@V?$basic_string@DU?$char_traits@D@std@@V?$allocator@D@2@@std@@V?$allocator@V?$basic_string@DU?$char_traits@D@std@@V?$allocator@D@2@@std@@@2@@2@U?$less@V?$basic_string@DU?$char_traits@D@std@@V?$allocator@D@2@@std@@@2@V?$allocator@U?$pair@$$CBV?$basic_string@DU?$char_traits@D@std@@V?$allocator@D@2@@std@@V?$vector@V?$basic_string@DU?$char_traits@D@std@@V?$allocator@D@2@@std@@V?$allocator@V?$basic_string@DU?$char_traits@D@std@@V?$allocator@D@2@@std@@@2@@2@@std@@@2@$0A@@std@@@std@@QAE?AViterator@12@V312@0@Z 00434a20 f i dbconnect.obj
 0001:00033af0       ?_Buynode@?$_Tree@V?$_Tmap_traits@V?$basic_string@DU?$char_traits@D@std@@V?$allocator@D@2@@std@@VConfigSection@@U?$less@V?$basic_string@DU?$char_traits@D@std@@V?$allocator@D@2@@std@@@2@V?$allocator@U?$pair@$$CBV?$basic_string@DU?$char_traits@D@std@@V?$allocator@D@2@@std@@VConfigSection@@@std@@@2@$0A@@std@@@std@@IAEPAU_Node@?$_Tree_nod@V?$_Tmap_traits@V?$basic_string@DU?$char_traits@D@std@@V?$allocator@D@2@@std@@VConfigSection@@U?$less@V?$basic_string@DU?$char_traits@D@std@@V?$allocator@D@2@@std@@@2@V?$allocator@U?$pair@$$CBV?$basic_string@DU?$char_traits@D@std@@V?$allocator@D@2@@std@@VConfigSection@@@std@@@2@$0A@@std@@@2@PAU342@00ABU?$pair@$$CBV?$basic_string@DU?$char_traits@D@std@@V?$allocator@D@2@@std@@VConfigSection@@@2@D@Z 00434af0 f i dbconnect.obj
 0001:00033b90       ?_buildCompatibilityTable@DbConnection@@AAEXXZ 00434b90 f   dbconnect.obj
 0001:00033cf0       ?checkCompatibility@DbConnection@@QAE_NABV?$basic_string@DU?$char_traits@D@std@@V?$allocator@D@2@@std@@@Z 00434cf0 f   dbconnect.obj
 0001:00033de0       ?erase@?$_Tree@V?$_Tmap_traits@V?$basic_string@DU?$char_traits@D@std@@V?$allocator@D@2@@std@@VConfigSection@@U?$less@V?$basic_string@DU?$char_traits@D@std@@V?$allocator@D@2@@std@@@2@V?$allocator@U?$pair@$$CBV?$basic_string@DU?$char_traits@D@std@@V?$allocator@D@2@@std@@VConfigSection@@@std@@@2@$0A@@std@@@std@@QAE?AViterator@12@V312@@Z 00434de0 f i dbconnect.obj
 0001:000340b0       ?_Erase@?$_Tree@V?$_Tmap_traits@V?$basic_string@DU?$char_traits@D@std@@V?$allocator@D@2@@std@@VConfigSection@@U?$less@V?$basic_string@DU?$char_traits@D@std@@V?$allocator@D@2@@std@@@2@V?$allocator@U?$pair@$$CBV?$basic_string@DU?$char_traits@D@std@@V?$allocator@D@2@@std@@VConfigSection@@@std@@@2@$0A@@std@@@std@@IAEXPAU_Node@?$_Tree_nod@V?$_Tmap_traits@V?$basic_string@DU?$char_traits@D@std@@V?$allocator@D@2@@std@@VConfigSection@@U?$less@V?$basic_string@DU?$char_traits@D@std@@V?$allocator@D@2@@std@@@2@V?$allocator@U?$pair@$$CBV?$basic_string@DU?$char_traits@D@std@@V?$allocator@D@2@@std@@VConfigSection@@@std@@@2@$0A@@std@@@2@@Z 004350b0 f i dbconnect.obj
 0001:000340f0       ??1?$map@V?$basic_string@DU?$char_traits@D@std@@V?$allocator@D@2@@std@@V?$vector@V?$basic_string@DU?$char_traits@D@std@@V?$allocator@D@2@@std@@V?$allocator@V?$basic_string@DU?$char_traits@D@std@@V?$allocator@D@2@@std@@@2@@2@U?$less@V?$basic_string@DU?$char_traits@D@std@@V?$allocator@D@2@@std@@@2@V?$allocator@U?$pair@$$CBV?$basic_string@DU?$char_traits@D@std@@V?$allocator@D@2@@std@@V?$vector@V?$basic_string@DU?$char_traits@D@std@@V?$allocator@D@2@@std@@V?$allocator@V?$basic_string@DU?$char_traits@D@std@@V?$allocator@D@2@@std@@@2@@2@@std@@@2@@std@@QAE@XZ 004350f0 f i dbconnect.obj
 0001:00034130       ??1DbConnection@@QAE@XZ    00435130 f   dbconnect.obj
 0001:00034260       ?_Copy@?$_Tree@V?$_Tmap_traits@V?$basic_string@DU?$char_traits@D@std@@V?$allocator@D@2@@std@@VConfigSection@@U?$less@V?$basic_string@DU?$char_traits@D@std@@V?$allocator@D@2@@std@@@2@V?$allocator@U?$pair@$$CBV?$basic_string@DU?$char_traits@D@std@@V?$allocator@D@2@@std@@VConfigSection@@@std@@@2@$0A@@std@@@std@@IAEPAU_Node@?$_Tree_nod@V?$_Tmap_traits@V?$basic_string@DU?$char_traits@D@std@@V?$allocator@D@2@@std@@VConfigSection@@U?$less@V?$basic_string@DU?$char_traits@D@std@@V?$allocator@D@2@@std@@@2@V?$allocator@U?$pair@$$CBV?$basic_string@DU?$char_traits@D@std@@V?$allocator@D@2@@std@@VConfigSection@@@std@@@2@$0A@@std@@@2@PAU342@0@Z 00435260 f i dbconnect.obj
 0001:00034320       ??0DbConnection@@QAE@W4Driver@0@ABV?$basic_string@DU?$char_traits@D@std@@V?$allocator@D@2@@std@@@Z 00435320 f   dbconnect.obj
 0001:000355d0       ?erase@?$_Tree@V?$_Tmap_traits@V?$basic_string@DU?$char_traits@D@std@@V?$allocator@D@2@@std@@VConfigSection@@U?$less@V?$basic_string@DU?$char_traits@D@std@@V?$allocator@D@2@@std@@@2@V?$allocator@U?$pair@$$CBV?$basic_string@DU?$char_traits@D@std@@V?$allocator@D@2@@std@@VConfigSection@@@std@@@2@$0A@@std@@@std@@QAE?AViterator@12@V312@0@Z 004365d0 f i dbconnect.obj
 0001:000356a0       ?_Copy@?$_Tree@V?$_Tmap_traits@V?$basic_string@DU?$char_traits@D@std@@V?$allocator@D@2@@std@@VConfigSection@@U?$less@V?$basic_string@DU?$char_traits@D@std@@V?$allocator@D@2@@std@@@2@V?$allocator@U?$pair@$$CBV?$basic_string@DU?$char_traits@D@std@@V?$allocator@D@2@@std@@VConfigSection@@@std@@@2@$0A@@std@@@std@@IAEXABV12@@Z 004366a0 f i dbconnect.obj
 0001:00035720       ??1?$map@V?$basic_string@DU?$char_traits@D@std@@V?$allocator@D@2@@std@@VConfigSection@@U?$less@V?$basic_string@DU?$char_traits@D@std@@V?$allocator@D@2@@std@@@2@V?$allocator@U?$pair@$$CBV?$basic_string@DU?$char_traits@D@std@@V?$allocator@D@2@@std@@VConfigSection@@@std@@@2@@std@@QAE@XZ 00436720 f i dbconnect.obj
 0001:00035720       ?_Tidy@?$_Tree@V?$_Tmap_traits@V?$basic_string@DU?$char_traits@D@std@@V?$allocator@D@2@@std@@VConfigSection@@U?$less@V?$basic_string@DU?$char_traits@D@std@@V?$allocator@D@2@@std@@@2@V?$allocator@U?$pair@$$CBV?$basic_string@DU?$char_traits@D@std@@V?$allocator@D@2@@std@@VConfigSection@@@std@@@2@$0A@@std@@@std@@IAEXXZ 00436720 f i dbconnect.obj
 0001:00035760       ??0?$_Tree@V?$_Tmap_traits@V?$basic_string@DU?$char_traits@D@std@@V?$allocator@D@2@@std@@VConfigSection@@U?$less@V?$basic_string@DU?$char_traits@D@std@@V?$allocator@D@2@@std@@@2@V?$allocator@U?$pair@$$CBV?$basic_string@DU?$char_traits@D@std@@V?$allocator@D@2@@std@@VConfigSection@@@std@@@2@$0A@@std@@@std@@QAE@ABV01@@Z 00436760 f i dbconnect.obj
 0001:000357f0       ??0ConfigFile@@QAE@ABV0@@Z 004367f0 f i dbconnect.obj
 0001:00035880       ??4ConfigFile@@QAEAAV0@ABV0@@Z 00436880 f i dbconnect.obj
 0001:000358f0       _createDriverInstance      004368f0 f   driver_oracle.obj
 0001:00035980       _getAuthor                 00436980 f   driver_oracle.obj
 0001:00035990       _getVendor                 00436990 f   driver_oracle.obj
 0001:000359a0       _getCopyright              004369a0 f   driver_oracle.obj
 0001:000359b0       _getDriverType             004369b0 f   driver_oracle.obj
 0001:000359c0       _getDriverName             004369c0 f   driver_oracle.obj
 0001:000359d0       _getDriverDesc             004369d0 f   driver_oracle.obj
 0001:000359e0       _getDbConnectVersion       004369e0 f   driver_oracle.obj
 0001:000359f0       _destroyDriverInstance     004369f0 f   driver_oracle.obj
 0001:00035a30       ?setOciType@OracleBindParam@@QAEXXZ 00436a30 f   oraclebindparam.obj
 0001:00035b10       ??0OracleBindParam@@QAE@ABV?$basic_string@DU?$char_traits@D@std@@V?$allocator@D@2@@std@@_NH@Z 00436b10 f   oraclebindparam.obj
 0001:00035b90       ??_GOracleBindParam@@UAEPAXI@Z 00436b90 f i oraclebindparam.obj
 0001:00035b90       ??_EOracleBindParam@@UAEPAXI@Z 00436b90 f i oraclebindparam.obj
 0001:00035bb0       ??0OracleBindParam@@QAE@H_NH@Z 00436bb0 f   oraclebindparam.obj
 0001:00035c80       ??1OracleHandle@@QAE@XZ    00436c80 f   oracleconnection.obj
 0001:00035d00       ?_oraclePing@OracleConnection@@AAEXH@Z 00436d00 f   oracleconnection.obj
 0001:00035d00       ?logger@Service@@EAEXH@Z   00436d00 f   Service.obj
 0001:00035d00       ?imbue@?$basic_streambuf@DU?$char_traits@D@std@@@std@@MAEXABVlocale@2@@Z 00436d00 f   FileHandler.obj
 0001:00035d00       ?handleUICommand@Service@@EAEXAAV?$vector@V?$basic_string@DU?$char_traits@D@std@@V?$allocator@D@2@@std@@V?$allocator@V?$basic_string@DU?$char_traits@D@std@@V?$allocator@D@2@@std@@@2@@std@@@Z 00436d00 f   Service.obj
 0001:00035d10       ?_freeCollection@OracleConnection@@AAEXW4CollectionType@1@@Z 00436d10 f   oracleconnection.obj
 0001:00035da0       ?_oracleDisconnect@OracleConnection@@AAEXH@Z 00436da0 f   oracleconnection.obj
 0001:00035f70       ??0OracleConnection@@QAE@HPAPBD@Z 00436f70 f   oracleconnection.obj
 0001:00036030       ?disconnect@OracleConnection@@UAEX_J@Z 00437030 f   oracleconnection.obj
 0001:00036170       ?releaseQueryConnection@OracleConnection@@UAEXPAX@Z 00437170 f   oracleconnection.obj
 0001:00036220       ??1OracleConnection@@UAE@XZ 00437220 f   oracleconnection.obj
 0001:000362b0       ?OciFunctionCheck@@YAXHV?$basic_string@DU?$char_traits@D@std@@V?$allocator@D@2@@std@@PAUOCIError@@H@Z 004372b0 f   oracleconnection.obj
 0001:00036680       ?_oracleConnect@OracleConnection@@AAEXH@Z 00437680 f   oracleconnection.obj
 0001:00036900       ??_GOracleConnection@@UAEPAXI@Z 00437900 f i oracleconnection.obj
 0001:00036900       ??_EOracleConnection@@UAEPAXI@Z 00437900 f i oracleconnection.obj
 0001:00036920       ?connect@OracleConnection@@UAEXABV?$basic_string@DU?$char_traits@D@std@@V?$allocator@D@2@@std@@000HH00@Z 00437920 f   oracleconnection.obj
 0001:00036b10       ?requestQueryConnection@OracleConnection@@UAEPAXXZ 00437b10 f   oracleconnection.obj
 0001:00036dd0       ??0OracleFieldDescription@@QAE@AAV?$basic_string@DU?$char_traits@D@std@@V?$allocator@D@2@@std@@JW4FieldType@@_N222JJHH@Z 00437dd0 f   oraclefielddescription.obj
 0001:00036e90       ?getOciType@OracleBindParam@@QAEHXZ 00437e90 f   oraclebindparam.obj
 0001:00036e90       ?oracleFieldType@OracleFieldDescription@@QAEHXZ 00437e90 f   oraclefielddescription.obj
 0001:00036ea0       ?getFetchBuf@OracleFieldDescription@@QAEPAXXZ 00437ea0 f   oraclefielddescription.obj
 0001:00036eb0       ?clearFetchBuf@OracleFieldDescription@@QAEXXZ 00437eb0 f   oraclefielddescription.obj
 0001:00036ee0       ??_EOracleFieldDescription@@UAEPAXI@Z 00437ee0 f i oraclefielddescription.obj
 0001:00036ee0       ??_GOracleFieldDescription@@UAEPAXI@Z 00437ee0 f i oraclefielddescription.obj
 0001:00036f20       ?_oracleResolveFieldType@OracleQuery@@AAE?AW4FieldType@@H@Z 00437f20 f   oraclequery.obj
 0001:00037060       ?bindParam@OracleQuery@@UAEPAVBaseValue@@HH@Z 00438060 f   oraclequery.obj
 0001:00037100       ?_Max@?$_Tree@V?$_Tmap_traits@HPAVOracleBindParam@@U?$less@H@std@@V?$allocator@U?$pair@$$CBHPAVOracleBindParam@@@std@@@3@$0A@@std@@@std@@KAPAU_Node@?$_Tree_nod@V?$_Tmap_traits@HPAVOracleBindParam@@U?$less@H@std@@V?$allocator@U?$pair@$$CBHPAVOracleBindParam@@@std@@@3@$0A@@std@@@2@PAU342@@Z 00438100 f i oraclequery.obj
 0001:00037100       ?_Max@?$_Tree@V?$_Tmap_traits@KKU?$less@K@std@@V?$allocator@U?$pair@$$CBKK@std@@@2@$0A@@std@@@std@@KAPAU_Node@?$_Tree_nod@V?$_Tmap_traits@KKU?$less@K@std@@V?$allocator@U?$pair@$$CBKK@std@@@2@$0A@@std@@@2@PAU342@@Z 00438100 f i MessageDispatcher.obj
 0001:00037100       ?_Max@?$_Tree@V?$_Tmap_traits@HHU?$less@H@std@@V?$allocator@U?$pair@$$CBHH@std@@@2@$0A@@std@@@std@@KAPAU_Node@?$_Tree_nod@V?$_Tmap_traits@HHU?$less@H@std@@V?$allocator@U?$pair@$$CBHH@std@@@2@$0A@@std@@@2@PAU342@@Z 00438100 f i dbconnect.obj
 0001:00037120       ?_Min@?$_Tree@V?$_Tmap_traits@HHU?$less@H@std@@V?$allocator@U?$pair@$$CBHH@std@@@2@$0A@@std@@@std@@KAPAU_Node@?$_Tree_nod@V?$_Tmap_traits@HHU?$less@H@std@@V?$allocator@U?$pair@$$CBHH@std@@@2@$0A@@std@@@2@PAU342@@Z 00438120 f i dbconnect.obj
 0001:00037120       ?_Min@?$_Tree@V?$_Tmap_traits@HPAVOracleBindParam@@U?$less@H@std@@V?$allocator@U?$pair@$$CBHPAVOracleBindParam@@@std@@@3@$0A@@std@@@std@@KAPAU_Node@?$_Tree_nod@V?$_Tmap_traits@HPAVOracleBindParam@@U?$less@H@std@@V?$allocator@U?$pair@$$CBHPAVOracleBindParam@@@std@@@3@$0A@@std@@@2@PAU342@@Z 00438120 f i oraclequery.obj
 0001:00037120       ?_Min@?$_Tree@V?$_Tmap_traits@KKU?$less@K@std@@V?$allocator@U?$pair@$$CBKK@std@@@2@$0A@@std@@@std@@KAPAU_Node@?$_Tree_nod@V?$_Tmap_traits@KKU?$less@K@std@@V?$allocator@U?$pair@$$CBKK@std@@@2@$0A@@std@@@2@PAU342@@Z 00438120 f i MessageDispatcher.obj
 0001:00037140       ?_Lrotate@?$_Tree@V?$_Tmap_traits@KKU?$less@K@std@@V?$allocator@U?$pair@$$CBKK@std@@@2@$0A@@std@@@std@@IAEXPAU_Node@?$_Tree_nod@V?$_Tmap_traits@KKU?$less@K@std@@V?$allocator@U?$pair@$$CBKK@std@@@2@$0A@@std@@@2@@Z 00438140 f i MessageDispatcher.obj
 0001:00037140       ?_Lrotate@?$_Tree@V?$_Tmap_traits@HPAVOracleBindParam@@U?$less@H@std@@V?$allocator@U?$pair@$$CBHPAVOracleBindParam@@@std@@@3@$0A@@std@@@std@@IAEXPAU_Node@?$_Tree_nod@V?$_Tmap_traits@HPAVOracleBindParam@@U?$less@H@std@@V?$allocator@U?$pair@$$CBHPAVOracleBindParam@@@std@@@3@$0A@@std@@@2@@Z 00438140 f i oraclequery.obj
 0001:00037140       ?_Lrotate@?$_Tree@V?$_Tmap_traits@HHU?$less@H@std@@V?$allocator@U?$pair@$$CBHH@std@@@2@$0A@@std@@@std@@IAEXPAU_Node@?$_Tree_nod@V?$_Tmap_traits@HHU?$less@H@std@@V?$allocator@U?$pair@$$CBHH@std@@@2@$0A@@std@@@2@@Z 00438140 f i dbconnect.obj
 0001:00037190       ?_Rrotate@?$_Tree@V?$_Tmap_traits@KKU?$less@K@std@@V?$allocator@U?$pair@$$CBKK@std@@@2@$0A@@std@@@std@@IAEXPAU_Node@?$_Tree_nod@V?$_Tmap_traits@KKU?$less@K@std@@V?$allocator@U?$pair@$$CBKK@std@@@2@$0A@@std@@@2@@Z 00438190 f i MessageDispatcher.obj
 0001:00037190       ?_Rrotate@?$_Tree@V?$_Tmap_traits@HHU?$less@H@std@@V?$allocator@U?$pair@$$CBHH@std@@@2@$0A@@std@@@std@@IAEXPAU_Node@?$_Tree_nod@V?$_Tmap_traits@HHU?$less@H@std@@V?$allocator@U?$pair@$$CBHH@std@@@2@$0A@@std@@@2@@Z 00438190 f i dbconnect.obj
 0001:00037190       ?_Rrotate@?$_Tree@V?$_Tmap_traits@HPAVOracleBindParam@@U?$less@H@std@@V?$allocator@U?$pair@$$CBHPAVOracleBindParam@@@std@@@3@$0A@@std@@@std@@IAEXPAU_Node@?$_Tree_nod@V?$_Tmap_traits@HPAVOracleBindParam@@U?$less@H@std@@V?$allocator@U?$pair@$$CBHPAVOracleBindParam@@@std@@@3@$0A@@std@@@2@@Z 00438190 f i oraclequery.obj
 0001:000371f0       ?find@?$_Tree@V?$_Tmap_traits@HPAVOracleBindParam@@U?$less@H@std@@V?$allocator@U?$pair@$$CBHPAVOracleBindParam@@@std@@@3@$0A@@std@@@std@@QAE?AViterator@12@ABH@Z 004381f0 f i oraclequery.obj
 0001:00037260       ?_freeCollection@OracleQuery@@AAEXW4CollectionType@1@@Z 00438260 f   oraclequery.obj
 0001:000373a0       ?clearBindParams@OracleQuery@@UAEXXZ 004383a0 f   oraclequery.obj
 0001:000373e0       ?_oracleGetOutParam@OracleQuery@@AAEXXZ 004383e0 f   oraclequery.obj
 0001:00037700       ?_Insert@?$_Tree@V?$_Tmap_traits@HPAVOracleBindParam@@U?$less@H@std@@V?$allocator@U?$pair@$$CBHPAVOracleBindParam@@@std@@@3@$0A@@std@@@std@@IAE?AViterator@12@_NPAU_Node@?$_Tree_nod@V?$_Tmap_traits@HPAVOracleBindParam@@U?$less@H@std@@V?$allocator@U?$pair@$$CBHPAVOracleBindParam@@@std@@@3@$0A@@std@@@2@ABU?$pair@$$CBHPAVOracleBindParam@@@2@@Z 00438700 f i oraclequery.obj
 0001:00037900       ?erase@?$_Tree@V?$_Tmap_traits@HPAVOracleBindParam@@U?$less@H@std@@V?$allocator@U?$pair@$$CBHPAVOracleBindParam@@@std@@@3@$0A@@std@@@std@@QAE?AViterator@12@V312@@Z 00438900 f i oraclequery.obj
 0001:00037bc0       ?_oracleGetFieldsInformation@OracleQuery@@AAEXXZ 00438bc0 f   oraclequery.obj
 0001:00037f90       ?_oracleGetResultSetRow@OracleQuery@@AAEXXZ 00438f90 f   oraclequery.obj
 0001:00038400       ?_oracleParseSql@OracleQuery@@AAE?AV?$basic_string@DU?$char_traits@D@std@@V?$allocator@D@2@@std@@ABV23@@Z 00439400 f   oraclequery.obj
 0001:000386d0       ?_oracleBindParameters@OracleQuery@@AAEXXZ 004396d0 f   oraclequery.obj
 0001:000388c0       ?command@OracleQuery@@UAEXABV?$basic_string@DU?$char_traits@D@std@@V?$allocator@D@2@@std@@@Z 004398c0 f   oraclequery.obj
 0001:00038ae0       ?bindParam@OracleQuery@@UAEPAVBaseValue@@ABV?$basic_string@DU?$char_traits@D@std@@V?$allocator@D@2@@std@@@Z 00439ae0 f   oraclequery.obj
 0001:00038cc0       ?fetchNext@OracleQuery@@UAEXXZ 00439cc0 f   oraclequery.obj
 0001:00038d70       ?transBegin@OracleQuery@@UAEXXZ 00439d70 f   oraclequery.obj
 0001:00038e10       ?commit@OracleQuery@@UAEXXZ 00439e10 f   oraclequery.obj
 0001:00038eb0       ?rollback@OracleQuery@@UAEXXZ 00439eb0 f   oraclequery.obj
 0001:00038f50       ?getFieldInfoByColumn@OracleQuery@@UAEPAVBaseFieldDescription@@H@Z 00439f50 f   oraclequery.obj
 0001:00039000       ?getFieldInfoByName@OracleQuery@@UAEPAVBaseFieldDescription@@ABV?$basic_string@DU?$char_traits@D@std@@V?$allocator@D@2@@std@@@Z 0043a000 f   oraclequery.obj
 0001:000390f0       ?getFieldByColumn@OracleQuery@@UAEPAVBaseValue@@H@Z 0043a0f0 f   oraclequery.obj
 0001:000391a0       ?getFieldByName@OracleQuery@@UAEPAVBaseValue@@ABV?$basic_string@DU?$char_traits@D@std@@V?$allocator@D@2@@std@@@Z 0043a1a0 f   oraclequery.obj
 0001:000392b0       ?getOutParamByIndex@OracleQuery@@UAEPAVBaseValue@@H@Z 0043a2b0 f   oraclequery.obj
 0001:000393a0       ?insert@?$_Tree@V?$_Tmap_traits@HPAVOracleBindParam@@U?$less@H@std@@V?$allocator@U?$pair@$$CBHPAVOracleBindParam@@@std@@@3@$0A@@std@@@std@@QAE?AU?$pair@Viterator@?$_Tree@V?$_Tmap_traits@HPAVOracleBindParam@@U?$less@H@std@@V?$allocator@U?$pair@$$CBHPAVOracleBindParam@@@std@@@3@$0A@@std@@@std@@_N@2@ABU?$pair@$$CBHPAVOracleBindParam@@@2@@Z 0043a3a0 f i oraclequery.obj
 0001:00039460       ?erase@?$_Tree@V?$_Tmap_traits@HPAVOracleBindParam@@U?$less@H@std@@V?$allocator@U?$pair@$$CBHPAVOracleBindParam@@@std@@@3@$0A@@std@@@std@@QAE?AViterator@12@V312@0@Z 0043a460 f i oraclequery.obj
 0001:00039530       ?insert@?$_Tree@V?$_Tmap_traits@HPAVOracleBindParam@@U?$less@H@std@@V?$allocator@U?$pair@$$CBHPAVOracleBindParam@@@std@@@3@$0A@@std@@@std@@QAE?AViterator@12@V312@ABU?$pair@$$CBHPAVOracleBindParam@@@2@@Z 0043a530 f i oraclequery.obj
 0001:000396f0       ?execute@OracleQuery@@UAEXXZ 0043a6f0 f   oraclequery.obj
 0001:00039990       ??A?$map@HPAVOracleBindParam@@U?$less@H@std@@V?$allocator@U?$pair@$$CBHPAVOracleBindParam@@@std@@@3@@std@@QAEAAPAVOracleBindParam@@ABH@Z 0043a990 f i oraclequery.obj
 0001:00039a10       ??1?$map@HPAVOracleBindParam@@U?$less@H@std@@V?$allocator@U?$pair@$$CBHPAVOracleBindParam@@@std@@@3@@std@@QAE@XZ 0043aa10 f i oraclequery.obj
 0001:00039a50       ??1OracleQuery@@UAE@XZ     0043aa50 f   oraclequery.obj
 0001:00039b10       ?registerOutParam@OracleQuery@@UAEXHH@Z 0043ab10 f   oraclequery.obj
 0001:00039d60       ??0OracleQuery@@QAE@PAVOracleConnection@@H@Z 0043ad60 f   oraclequery.obj
 0001:00039e00       ??_GOracleQuery@@UAEPAXI@Z 0043ae00 f i oraclequery.obj
 0001:00039e00       ??_EOracleQuery@@UAEPAXI@Z 0043ae00 f i oraclequery.obj
 0001:00039e20       ??0OracleValue@@QAE@ABV?$basic_string@DU?$char_traits@D@std@@V?$allocator@D@2@@std@@@Z 0043ae20 f   oraclevalue.obj
 0001:00039e40       ??_GOracleValue@@UAEPAXI@Z 0043ae40 f i oraclevalue.obj
 0001:00039e40       ??_EOracleValue@@UAEPAXI@Z 0043ae40 f i oraclevalue.obj
 0001:00039e70       ?setPingInterval@BaseConnection@@UAEX_J@Z 0043ae70 f   baseConnection.obj
 0001:00039eb0       ??1BaseConnection@@UAE@XZ  0043aeb0 f   baseConnection.obj
 0001:00039fb0       ??0BaseConnection@@QAE@ABV?$basic_string@DU?$char_traits@D@std@@V?$allocator@D@2@@std@@@Z 0043afb0 f   baseConnection.obj
 0001:0003a100       ?connect@BaseConnection@@UAEXABV?$basic_string@DU?$char_traits@D@std@@V?$allocator@D@2@@std@@000HH00@Z 0043b100 f   baseConnection.obj
 0001:0003a260       ?_Myptr@?$basic_string@DU?$char_traits@D@std@@V?$allocator@D@2@@std@@IBEPBDXZ 0043b260 f   DllBase.obj
 0001:0003a260       ?c_str@?$basic_string@DU?$char_traits@D@std@@V?$allocator@D@2@@std@@QBEPBDXZ 0043b260 f   KernelException.obj
 0001:0003a260       ??BBaseException@@QAEPBDXZ 0043b260 f   baseException.obj
 0001:0003a260       ??BBaseException@@QAEPADXZ 0043b260 f   baseException.obj
 0001:0003a270       ??1BaseException@@QAE@XZ   0043b270 f   baseException.obj
 0001:0003a2f0       ??BBaseException@@QAE?AV?$basic_string@DU?$char_traits@D@std@@V?$allocator@D@2@@std@@XZ 0043b2f0 f   baseException.obj
 0001:0003a320       ??0BaseException@@QAE@HABV?$basic_string@DU?$char_traits@D@std@@V?$allocator@D@2@@std@@0_J@Z 0043b320 f   baseException.obj
 0001:0003a470       ?name@BaseFieldDescription@@QAEABV?$basic_string@DU?$char_traits@D@std@@V?$allocator@D@2@@std@@XZ 0043b470 f   baseFieldDescription.obj
 0001:0003a480       ?position@BaseFieldDescription@@QAEJXZ 0043b480 f   baseFieldDescription.obj
 0001:0003a490       ?type@BaseFieldDescription@@QAE?AW4FieldType@@XZ 0043b490 f   baseFieldDescription.obj
 0001:0003a490       ?asBinary@BaseValue@@UAEPAXXZ 0043b490 f   baseValue.obj
 0001:0003a490       ?fieldCount@BaseQuery@@UAEIXZ 0043b490 f   baseQuery.obj
 0001:0003a4a0       ?isIncrement@BaseFieldDescription@@QAE_NXZ 0043b4a0 f   baseFieldDescription.obj
 0001:0003a4b0       ?isPriKey@BaseFieldDescription@@QAE_NXZ 0043b4b0 f   baseFieldDescription.obj
 0001:0003a4c0       ?isUnique@BaseFieldDescription@@QAE_NXZ 0043b4c0 f   baseFieldDescription.obj
 0001:0003a4d0       ?isNotNull@BaseFieldDescription@@QAE_NXZ 0043b4d0 f   baseFieldDescription.obj
 0001:0003a4e0       ?precision@BaseFieldDescription@@QAEJXZ 0043b4e0 f   baseFieldDescription.obj
 0001:0003a4e0       ?effectCount@BaseQuery@@UAEIXZ 0043b4e0 f   baseQuery.obj
 0001:0003a4f0       ?scale@BaseFieldDescription@@QAEJXZ 0043b4f0 f   baseFieldDescription.obj
 0001:0003a500       ??1BaseFieldDescription@@UAE@XZ 0043b500 f   baseFieldDescription.obj
 0001:0003a530       ??0BaseFieldDescription@@QAE@AAV?$basic_string@DU?$char_traits@D@std@@V?$allocator@D@2@@std@@JW4FieldType@@_N222JJ@Z 0043b530 f   baseFieldDescription.obj
 0001:0003a5a0       ??0BaseFieldDescription@@QAE@XZ 0043b5a0 f   baseFieldDescription.obj
 0001:0003a5e0       ?execute@BaseQuery@@UAEXXZ 0043b5e0 f   baseQuery.obj
 0001:0003a5f0       ?eof@BaseQuery@@UAE_NXZ    0043b5f0 f   baseQuery.obj
 0001:0003a600       ?_isBindParameterPresent@BaseQuery@@IAE_NABV?$basic_string@DU?$char_traits@D@std@@V?$allocator@D@2@@std@@@Z 0043b600 f   baseQuery.obj
 0001:0003a630       ??0BaseQuery@@QAE@XZ       0043b630 f   baseQuery.obj
 0001:0003a660       ??1BaseQuery@@UAE@XZ       0043b660 f   baseQuery.obj
 0001:0003a690       ?command@BaseQuery@@UAEXABV?$basic_string@DU?$char_traits@D@std@@V?$allocator@D@2@@std@@@Z 0043b690 f   baseQuery.obj
 0001:0003a6d0       ?_strtoll@@YAJPBDH@Z       0043b6d0 f   baseValue.obj
 0001:0003a740       ?_strtoull@@YAKPBDH@Z      0043b740 f   baseValue.obj
 0001:0003a790       ?getSize@BaseValue@@UAEKXZ 0043b790 f   baseValue.obj
 0001:0003a790       ?outputCount@BaseQuery@@UAEIXZ 0043b790 f   baseQuery.obj
 0001:0003a7a0       ?isNULL@BaseValue@@UAE_NXZ 0043b7a0 f   baseValue.obj
 0001:0003a7b0       ?asLong@BaseValue@@UAEJXZ  0043b7b0 f   baseValue.obj
 0001:0003a8f0       ?asUnsignedLong@BaseValue@@UAEKXZ 0043b8f0 f   baseValue.obj
 0001:0003aa40       ?asFloat@BaseValue@@UAENXZ 0043ba40 f   baseValue.obj
 0001:0003aaf0       ?asBoolean@BaseValue@@UAE_NXZ 0043baf0 f   baseValue.obj
 0001:0003abc0       ?_releasePtr@BaseValue@@AAEXXZ 0043bbc0 f   baseValue.obj
 0001:0003ac50       ?setNULL@BaseValue@@UAEXXZ 0043bc50 f   baseValue.obj
 0001:0003ac70       ?setString@BaseValue@@UAEXPBD@Z 0043bc70 f   baseValue.obj
 0001:0003acb0       ?setLong@BaseValue@@UAEXJ@Z 0043bcb0 f   baseValue.obj
 0001:0003ace0       ?setUnsignedLong@BaseValue@@UAEXK@Z 0043bce0 f   baseValue.obj
 0001:0003ad10       ?setFloat@BaseValue@@UAEXN@Z 0043bd10 f   baseValue.obj
 0001:0003ad40       ?setDateTime@BaseValue@@UAEXAAVJDate@@@Z 0043bd40 f   baseValue.obj
 0001:0003add0       ?setDate@BaseValue@@UAEXAAVJDate@@@Z 0043bdd0 f   baseValue.obj
 0001:0003ae60       ?setTime@BaseValue@@UAEXAAVJDate@@@Z 0043be60 f   baseValue.obj
 0001:0003aef0       ?setBoolean@BaseValue@@UAEX_N@Z 0043bef0 f   baseValue.obj
 0001:0003af20       ?setBinary@BaseValue@@UAEXPAXK@Z 0043bf20 f   baseValue.obj
 0001:0003af60       ?setString@BaseValue@@UAEXABV?$basic_string@DU?$char_traits@D@std@@V?$allocator@D@2@@std@@@Z 0043bf60 f   baseValue.obj
 0001:0003afb0       ??1BaseValue@@UAE@XZ       0043bfb0 f   baseValue.obj
 0001:0003b020       ?name@BaseValue@@UAE?AV?$basic_string@DU?$char_traits@D@std@@V?$allocator@D@2@@std@@XZ 0043c020 f   baseValue.obj
 0001:0003b050       ??0BaseValue@@QAE@ABV?$basic_string@DU?$char_traits@D@std@@V?$allocator@D@2@@std@@@Z 0043c050 f   baseValue.obj
 0001:0003b150       ?asString@BaseValue@@UAEPBDXZ 0043c150 f   baseValue.obj
 0001:0003b530       ?asDateTime@BaseValue@@UAE?AVJDate@@XZ 0043c530 f   baseValue.obj
 0001:0003b790       ?write@ConfigFile@@QAEXXZ  0043c790 f   configFile.obj
 0001:0003b7b0       ?_Dec@const_iterator@?$_Tree@V?$_Tmap_traits@V?$basic_string@DU?$char_traits@D@std@@V?$allocator@D@2@@std@@UValue@ConfigSection@@U?$less@V?$basic_string@DU?$char_traits@D@std@@V?$allocator@D@2@@std@@@2@V?$allocator@U?$pair@$$CBV?$basic_string@DU?$char_traits@D@std@@V?$allocator@D@2@@std@@UValue@ConfigSection@@@std@@@2@$0A@@std@@@std@@QAEXXZ 0043c7b0 f i configFile.obj
 0001:0003b840       ?_Dec@const_iterator@?$_Tree@V?$_Tmap_traits@V?$basic_string@DU?$char_traits@D@std@@V?$allocator@D@2@@std@@VConfigSection@@U?$less@V?$basic_string@DU?$char_traits@D@std@@V?$allocator@D@2@@std@@@2@V?$allocator@U?$pair@$$CBV?$basic_string@DU?$char_traits@D@std@@V?$allocator@D@2@@std@@VConfigSection@@@std@@@2@$0A@@std@@@std@@QAEXXZ 0043c840 f i configFile.obj
 0001:0003b8d0       ?_Lbound@?$_Tree@V?$_Tmap_traits@V?$basic_string@DU?$char_traits@D@std@@V?$allocator@D@2@@std@@UValue@ConfigSection@@U?$less@V?$basic_string@DU?$char_traits@D@std@@V?$allocator@D@2@@std@@@2@V?$allocator@U?$pair@$$CBV?$basic_string@DU?$char_traits@D@std@@V?$allocator@D@2@@std@@UValue@ConfigSection@@@std@@@2@$0A@@std@@@std@@IBEPAU_Node@?$_Tree_nod@V?$_Tmap_traits@V?$basic_string@DU?$char_traits@D@std@@V?$allocator@D@2@@std@@UValue@ConfigSection@@U?$less@V?$basic_string@DU?$char_traits@D@std@@V?$allocator@D@2@@std@@@2@V?$allocator@U?$pair@$$CBV?$basic_string@DU?$char_traits@D@std@@V?$allocator@D@2@@std@@UValue@ConfigSection@@@std@@@2@$0A@@std@@@2@ABV?$basic_string@DU?$char_traits@D@std@@V?$allocator@D@2@@2@@Z 0043c8d0 f i configFile.obj
 0001:0003b960       ?_Lbound@?$_Tree@V?$_Tmap_traits@V?$basic_string@DU?$char_traits@D@std@@V?$allocator@D@2@@std@@VConfigSection@@U?$less@V?$basic_string@DU?$char_traits@D@std@@V?$allocator@D@2@@std@@@2@V?$allocator@U?$pair@$$CBV?$basic_string@DU?$char_traits@D@std@@V?$allocator@D@2@@std@@VConfigSection@@@std@@@2@$0A@@std@@@std@@IBEPAU_Node@?$_Tree_nod@V?$_Tmap_traits@V?$basic_string@DU?$char_traits@D@std@@V?$allocator@D@2@@std@@VConfigSection@@U?$less@V?$basic_string@DU?$char_traits@D@std@@V?$allocator@D@2@@std@@@2@V?$allocator@U?$pair@$$CBV?$basic_string@DU?$char_traits@D@std@@V?$allocator@D@2@@std@@VConfigSection@@@std@@@2@$0A@@std@@@2@ABV?$basic_string@DU?$char_traits@D@std@@V?$allocator@D@2@@2@@Z 0043c960 f i configFile.obj
 0001:0003b9f0       ?find@?$_Tree@V?$_Tmap_traits@V?$basic_string@DU?$char_traits@D@std@@V?$allocator@D@2@@std@@UValue@ConfigSection@@U?$less@V?$basic_string@DU?$char_traits@D@std@@V?$allocator@D@2@@std@@@2@V?$allocator@U?$pair@$$CBV?$basic_string@DU?$char_traits@D@std@@V?$allocator@D@2@@std@@UValue@ConfigSection@@@std@@@2@$0A@@std@@@std@@QAE?AViterator@12@ABV?$basic_string@DU?$char_traits@D@std@@V?$allocator@D@2@@2@@Z 0043c9f0 f i configFile.obj
 0001:0003ba70       ?find@?$_Tree@V?$_Tmap_traits@V?$basic_string@DU?$char_traits@D@std@@V?$allocator@D@2@@std@@VConfigSection@@U?$less@V?$basic_string@DU?$char_traits@D@std@@V?$allocator@D@2@@std@@@2@V?$allocator@U?$pair@$$CBV?$basic_string@DU?$char_traits@D@std@@V?$allocator@D@2@@std@@VConfigSection@@@std@@@2@$0A@@std@@@std@@QAE?AViterator@12@ABV?$basic_string@DU?$char_traits@D@std@@V?$allocator@D@2@@2@@Z 0043ca70 f i configFile.obj
 0001:0003baf0       ??$?0V?$basic_string@DU?$char_traits@D@std@@V?$allocator@D@2@@std@@UValue@ConfigSection@@@?$pair@$$CBV?$basic_string@DU?$char_traits@D@std@@V?$allocator@D@2@@std@@UValue@ConfigSection@@@std@@QAE@ABU?$pair@V?$basic_string@DU?$char_traits@D@std@@V?$allocator@D@2@@std@@UValue@ConfigSection@@@1@@Z 0043caf0 f i configFile.obj
 0001:0003bb80       ??0?$pair@V?$basic_string@DU?$char_traits@D@std@@V?$allocator@D@2@@std@@UValue@ConfigSection@@@std@@QAE@ABV?$basic_string@DU?$char_traits@D@std@@V?$allocator@D@2@@1@ABUValue@ConfigSection@@@Z 0043cb80 f i configFile.obj
 0001:0003bc10       ??0NameKeyNotFoundError@ConfigSection@@QAE@V?$basic_string@DU?$char_traits@D@std@@V?$allocator@D@2@@std@@@Z 0043cc10 f i configFile.obj
 0001:0003bcd0       ??0OpenError@ConfigFile@@QAE@V?$basic_string@DU?$char_traits@D@std@@V?$allocator@D@2@@std@@@Z 0043ccd0 f i configFile.obj
 0001:0003bd90       ??0DuplicateNameError@ConfigFile@@QAE@V?$basic_string@DU?$char_traits@D@std@@V?$allocator@D@2@@std@@@Z 0043cd90 f i configFile.obj
 0001:0003be50       ??0SectionNotFoundError@ConfigFile@@QAE@V?$basic_string@DU?$char_traits@D@std@@V?$allocator@D@2@@std@@@Z 0043ce50 f i configFile.obj
 0001:0003bf10       ??AConfigSection@@QAEABV?$basic_string@DU?$char_traits@D@std@@V?$allocator@D@2@@std@@ABV12@@Z 0043cf10 f   configFile.obj
 0001:0003c1a0       ??AConfigFile@@QAEAAVConfigSection@@ABV?$basic_string@DU?$char_traits@D@std@@V?$allocator@D@2@@std@@@Z 0043d1a0 f   configFile.obj
 0001:0003c400       ?hasSection@ConfigFile@@QAE_NABV?$basic_string@DU?$char_traits@D@std@@V?$allocator@D@2@@std@@@Z 0043d400 f   configFile.obj
 0001:0003c470       ?hasKeyName@ConfigFile@@QAE_NABV?$basic_string@DU?$char_traits@D@std@@V?$allocator@D@2@@std@@0@Z 0043d470 f   configFile.obj
 0001:0003c4f0       ?_Insert@?$_Tree@V?$_Tmap_traits@V?$basic_string@DU?$char_traits@D@std@@V?$allocator@D@2@@std@@UValue@ConfigSection@@U?$less@V?$basic_string@DU?$char_traits@D@std@@V?$allocator@D@2@@std@@@2@V?$allocator@U?$pair@$$CBV?$basic_string@DU?$char_traits@D@std@@V?$allocator@D@2@@std@@UValue@ConfigSection@@@std@@@2@$0A@@std@@@std@@IAE?AViterator@12@_NPAU_Node@?$_Tree_nod@V?$_Tmap_traits@V?$basic_string@DU?$char_traits@D@std@@V?$allocator@D@2@@std@@UValue@ConfigSection@@U?$less@V?$basic_string@DU?$char_traits@D@std@@V?$allocator@D@2@@std@@@2@V?$allocator@U?$pair@$$CBV?$basic_string@DU?$char_traits@D@std@@V?$allocator@D@2@@std@@UValue@ConfigSection@@@std@@@2@$0A@@std@@@2@ABU?$pair@$$CBV?$basic_string@DU?$char_traits@D@std@@V?$allocator@D@2@@std@@UValue@ConfigSection@@@2@@Z 0043d4f0 f i configFile.obj
 0001:0003c6f0       ?insert@?$_Tree@V?$_Tmap_traits@V?$basic_string@DU?$char_traits@D@std@@V?$allocator@D@2@@std@@UValue@ConfigSection@@U?$less@V?$basic_string@DU?$char_traits@D@std@@V?$allocator@D@2@@std@@@2@V?$allocator@U?$pair@$$CBV?$basic_string@DU?$char_traits@D@std@@V?$allocator@D@2@@std@@UValue@ConfigSection@@@std@@@2@$0A@@std@@@std@@QAE?AU?$pair@Viterator@?$_Tree@V?$_Tmap_traits@V?$basic_string@DU?$char_traits@D@std@@V?$allocator@D@2@@std@@UValue@ConfigSection@@U?$less@V?$basic_string@DU?$char_traits@D@std@@V?$allocator@D@2@@std@@@2@V?$allocator@U?$pair@$$CBV?$basic_string@DU?$char_traits@D@std@@V?$allocator@D@2@@std@@UValue@ConfigSection@@@std@@@2@$0A@@std@@@std@@_N@2@ABU?$pair@$$CBV?$basic_string@DU?$char_traits@D@std@@V?$allocator@D@2@@std@@UValue@ConfigSection@@@2@@Z 0043d6f0 f i configFile.obj
 0001:0003c820       ?getline@?$basic_istream@DU?$char_traits@D@std@@@std@@QAEAAV12@PADHD@Z 0043d820 f i configFile.obj
 0001:0003c9d0       ??0ConfigSection@@QAE@ABV?$basic_string@DU?$char_traits@D@std@@V?$allocator@D@2@@std@@@Z 0043d9d0 f   configFile.obj
 0001:0003ca60       ??1?$pair@V?$basic_string@DU?$char_traits@D@std@@V?$allocator@D@2@@std@@VConfigSection@@@std@@QAE@XZ 0043da60 f i configFile.obj
 0001:0003cad0       ??0?$pair@V?$basic_string@DU?$char_traits@D@std@@V?$allocator@D@2@@std@@VConfigSection@@@std@@QAE@ABV?$basic_string@DU?$char_traits@D@std@@V?$allocator@D@2@@1@ABVConfigSection@@@Z 0043dad0 f i configFile.obj
 0001:0003cb50       ??$?0V?$basic_string@DU?$char_traits@D@std@@V?$allocator@D@2@@std@@VConfigSection@@@?$pair@$$CBV?$basic_string@DU?$char_traits@D@std@@V?$allocator@D@2@@std@@VConfigSection@@@std@@QAE@ABU?$pair@V?$basic_string@DU?$char_traits@D@std@@V?$allocator@D@2@@std@@VConfigSection@@@1@@Z 0043db50 f i configFile.obj
 0001:0003cbd0       ?getSectionNames@ConfigFile@@QAE?AV?$vector@V?$basic_string@DU?$char_traits@D@std@@V?$allocator@D@2@@std@@V?$allocator@V?$basic_string@DU?$char_traits@D@std@@V?$allocator@D@2@@std@@@2@@std@@XZ 0043dbd0 f   configFile.obj
 0001:0003cd00       ?getSectionKeyNames@ConfigFile@@QAE?AV?$vector@V?$basic_string@DU?$char_traits@D@std@@V?$allocator@D@2@@std@@V?$allocator@V?$basic_string@DU?$char_traits@D@std@@V?$allocator@D@2@@std@@@2@@std@@ABV?$basic_string@DU?$char_traits@D@std@@V?$allocator@D@2@@3@@Z 0043dd00 f   configFile.obj
 0001:0003d080       ?_Insert@?$_Tree@V?$_Tmap_traits@V?$basic_string@DU?$char_traits@D@std@@V?$allocator@D@2@@std@@VConfigSection@@U?$less@V?$basic_string@DU?$char_traits@D@std@@V?$allocator@D@2@@std@@@2@V?$allocator@U?$pair@$$CBV?$basic_string@DU?$char_traits@D@std@@V?$allocator@D@2@@std@@VConfigSection@@@std@@@2@$0A@@std@@@std@@IAE?AViterator@12@_NPAU_Node@?$_Tree_nod@V?$_Tmap_traits@V?$basic_string@DU?$char_traits@D@std@@V?$allocator@D@2@@std@@VConfigSection@@U?$less@V?$basic_string@DU?$char_traits@D@std@@V?$allocator@D@2@@std@@@2@V?$allocator@U?$pair@$$CBV?$basic_string@DU?$char_traits@D@std@@V?$allocator@D@2@@std@@VConfigSection@@@std@@@2@$0A@@std@@@2@ABU?$pair@$$CBV?$basic_string@DU?$char_traits@D@std@@V?$allocator@D@2@@std@@VConfigSection@@@2@@Z 0043e080 f i configFile.obj
 0001:0003d280       ?insert@?$_Tree@V?$_Tmap_traits@V?$basic_string@DU?$char_traits@D@std@@V?$allocator@D@2@@std@@VConfigSection@@U?$less@V?$basic_string@DU?$char_traits@D@std@@V?$allocator@D@2@@std@@@2@V?$allocator@U?$pair@$$CBV?$basic_string@DU?$char_traits@D@std@@V?$allocator@D@2@@std@@VConfigSection@@@std@@@2@$0A@@std@@@std@@QAE?AU?$pair@Viterator@?$_Tree@V?$_Tmap_traits@V?$basic_string@DU?$char_traits@D@std@@V?$allocator@D@2@@std@@VConfigSection@@U?$less@V?$basic_string@DU?$char_traits@D@std@@V?$allocator@D@2@@std@@@2@V?$allocator@U?$pair@$$CBV?$basic_string@DU?$char_traits@D@std@@V?$allocator@D@2@@std@@VConfigSection@@@std@@@2@$0A@@std@@@std@@_N@2@ABU?$pair@$$CBV?$basic_string@DU?$char_traits@D@std@@V?$allocator@D@2@@std@@VConfigSection@@@2@@Z 0043e280 f i configFile.obj
 0001:0003d3b0       ?read@ConfigFile@@QAEXXZ   0043e3b0 f   configFile.obj
 0001:0003e080       ??1ConfigFile@@QAE@XZ      0043f080 f   configFile.obj
 0001:0003e120       ??0ConfigFile@@QAE@ABV?$basic_string@DU?$char_traits@D@std@@V?$allocator@D@2@@std@@@Z 0043f120 f   configFile.obj
 0001:0003e1c0       ??0Error@@QAE@V?$basic_string@DU?$char_traits@D@std@@V?$allocator@D@2@@std@@@Z 0043f1c0 f   dbconnectExceptions.obj
 0001:0003e280       ??0DriverError@@QAE@V?$basic_string@DU?$char_traits@D@std@@V?$allocator@D@2@@std@@@Z 0043f280 f   dbconnectExceptions.obj
 0001:0003e340       ??0NotImplemented@@QAE@V?$basic_string@DU?$char_traits@D@std@@V?$allocator@D@2@@std@@@Z 0043f340 f   dbconnectExceptions.obj
 0001:0003e400       ??0UnknownException@@QAE@V?$basic_string@DU?$char_traits@D@std@@V?$allocator@D@2@@std@@@Z 0043f400 f   dbconnectExceptions.obj
 0001:0003e4c0       ??0NotConnected@@QAE@V?$basic_string@DU?$char_traits@D@std@@V?$allocator@D@2@@std@@@Z 0043f4c0 f   dbconnectExceptions.obj
 0001:0003e580       ??0AlreadyConnected@@QAE@V?$basic_string@DU?$char_traits@D@std@@V?$allocator@D@2@@std@@@Z 0043f580 f   dbconnectExceptions.obj
 0001:0003e640       ??0ErrorConnecting@@QAE@V?$basic_string@DU?$char_traits@D@std@@V?$allocator@D@2@@std@@@Z 0043f640 f   dbconnectExceptions.obj
 0001:0003e700       ??0QueryConnectionTimeout@@QAE@V?$basic_string@DU?$char_traits@D@std@@V?$allocator@D@2@@std@@@Z 0043f700 f   dbconnectExceptions.obj
 0001:0003e7c0       ??0ErrorPingingConnection@@QAE@V?$basic_string@DU?$char_traits@D@std@@V?$allocator@D@2@@std@@@Z 0043f7c0 f   dbconnectExceptions.obj
 0001:0003e880       ??0ErrorQuerying@@QAE@V?$basic_string@DU?$char_traits@D@std@@V?$allocator@D@2@@std@@@Z 0043f880 f   dbconnectExceptions.obj
 0001:0003e940       ??0ErrorQuerying@@QAE@V?$basic_string@DU?$char_traits@D@std@@V?$allocator@D@2@@std@@0@Z 0043f940 f   dbconnectExceptions.obj
 0001:0003ea40       ??0IndexOutOfRange@@QAE@V?$basic_string@DU?$char_traits@D@std@@V?$allocator@D@2@@std@@@Z 0043fa40 f   dbconnectExceptions.obj
 0001:0003eb00       ??0NameNotFound@@QAE@V?$basic_string@DU?$char_traits@D@std@@V?$allocator@D@2@@std@@@Z 0043fb00 f   dbconnectExceptions.obj
 0001:0003ebc0       ??0EndOfResultSet@@QAE@V?$basic_string@DU?$char_traits@D@std@@V?$allocator@D@2@@std@@@Z 0043fbc0 f   dbconnectExceptions.obj
 0001:0003ec80       ??0BindParameterError@@QAE@V?$basic_string@DU?$char_traits@D@std@@V?$allocator@D@2@@std@@@Z 0043fc80 f   dbconnectExceptions.obj
 0001:0003ed40       ??0BindParameterNotPresent@@QAE@V?$basic_string@DU?$char_traits@D@std@@V?$allocator@D@2@@std@@@Z 0043fd40 f   dbconnectExceptions.obj
 0001:0003ee00       ??0BindParameterNotSet@@QAE@V?$basic_string@DU?$char_traits@D@std@@V?$allocator@D@2@@std@@@Z 0043fe00 f   dbconnectExceptions.obj
 0001:0003eec0       ??0TransactionError@@QAE@V?$basic_string@DU?$char_traits@D@std@@V?$allocator@D@2@@std@@@Z 0043fec0 f   dbconnectExceptions.obj
 0001:0003ef80       ??0CommandError@@QAE@V?$basic_string@DU?$char_traits@D@std@@V?$allocator@D@2@@std@@@Z 0043ff80 f   dbconnectExceptions.obj
 0001:0003f040       ??0ResultSetError@@QAE@V?$basic_string@DU?$char_traits@D@std@@V?$allocator@D@2@@std@@@Z 00440040 f   dbconnectExceptions.obj
 0001:0003f100       ??0OpenError@DlLoader@@QAE@V?$basic_string@DU?$char_traits@D@std@@V?$allocator@D@2@@std@@@Z 00440100 f i dlLoader.obj
 0001:0003f1c0       ??0CloseError@DlLoader@@QAE@V?$basic_string@DU?$char_traits@D@std@@V?$allocator@D@2@@std@@@Z 004401c0 f i dlLoader.obj
 0001:0003f280       ??0SymbolLoadError@DlLoader@@QAE@V?$basic_string@DU?$char_traits@D@std@@V?$allocator@D@2@@std@@@Z 00440280 f i dlLoader.obj
 0001:0003f340       ??0DlLoader@@QAE@XZ        00440340 f   dlLoader.obj
 0001:0003f3b0       ?loadLibrary@DlLoader@@QAEXABV?$basic_string@DU?$char_traits@D@std@@V?$allocator@D@2@@std@@@Z 004403b0 f   dlLoader.obj
 0001:0003f540       ?resolveSymbol@DlLoader@@QAEP6GHXZABV?$basic_string@DU?$char_traits@D@std@@V?$allocator@D@2@@std@@@Z 00440540 f   dlLoader.obj
 0001:0003f6c0       ?unloadLibrary@DlLoader@@QAEXXZ 004406c0 f   dlLoader.obj
 0001:0003f840       ??1DlLoader@@QAE@XZ        00440840 f   dlLoader.obj
 0001:0003f8b0       ?encode@HexDigest@@YAXPAEHPAD@Z 004408b0 f   hexDigest.obj
 0001:0003f920       ?_makeJDFromGregorian@JDate@@AAEXHHHHHH@Z 00440920 f   jDate.obj
 0001:0003fa00       ?_makeGregorianFromJD@JDate@@AAEXAAH00000@Z 00440a00 f   jDate.obj
 0001:0003fb60       ?_makeJDFromJulian@JDate@@AAEXHHHHHH@Z 00440b60 f   jDate.obj
 0001:0003fc10       ?_makeDayOfWeek@JDate@@AAEHHHH@Z 00440c10 f   jDate.obj
 0001:0003fca0       ?_makeWeekOfYear@JDate@@AAEHXZ 00440ca0 f   jDate.obj
 0001:0003fd10       ?isJulianLeapYear@JDate@@SA_NJ@Z 00440d10 f   jDate.obj
 0001:0003fd60       ?isGregorianLeapYear@JDate@@SA_NJ@Z 00440d60 f   jDate.obj
 0001:0003fdc0       ?asJulianDayNumber@JDate@@QAENXZ 00440dc0 f   jDate.obj
 0001:0003fdd0       ?asComponents@JDate@@QAEXAAH00000@Z 00440dd0 f   jDate.obj
 0001:0003fde0       ?asComponent@JDate@@QAEHW4Units@1@@Z 00440de0 f   jDate.obj
 0001:0003fe80       ?asJulianDayNumberStruct@JDate@@QAE?AUJulianDayNumber@1@XZ 00440e80 f   jDate.obj
 0001:0003fea0       ?setDate@JDate@@QAEXABV1@@Z 00440ea0 f   jDate.obj
 0001:0003fec0       ?setDate@JDate@@QAEXABUJulianDayNumber@1@@Z 00440ec0 f   jDate.obj
 0001:0003fee0       ??4JDate@@QAEXN@Z          00440ee0 f   jDate.obj
 0001:0003fee0       ?setDate@JDate@@QAEXN@Z    00440ee0 f   jDate.obj
 0001:0003ff20       ??4JDate@@QAEXUJulianDayNumber@0@@Z 00440f20 f   jDate.obj
 0001:0003ff40       ??OJDate@@QAEHABV0@@Z      00440f40 f   jDate.obj
 0001:0003ff70       ??PJDate@@QAEHABV0@@Z      00440f70 f   jDate.obj
 0001:0003ffa0       ??MJDate@@QAEHABV0@@Z      00440fa0 f   jDate.obj
 0001:0003ffd0       ??NJDate@@QAEHABV0@@Z      00440fd0 f   jDate.obj
 0001:00040000       ??8JDate@@QAEHABV0@@Z      00441000 f   jDate.obj
 0001:00040030       ??9JDate@@QAEHABV0@@Z      00441030 f   jDate.obj
 0001:00040060       ?_Dec@const_iterator@?$_Tree@V?$_Tmap_traits@KKU?$less@K@std@@V?$allocator@U?$pair@$$CBKK@std@@@2@$0A@@std@@@std@@QAEXXZ 00441060 f i PeersManager.obj
 0001:00040060       ?_Dec@const_iterator@?$_Tree@V?$_Tmap_traits@HHU?$less@H@std@@V?$allocator@U?$pair@$$CBHH@std@@@2@$0A@@std@@@std@@QAEXXZ 00441060 f i jDate.obj
 0001:00040060       ?_Dec@const_iterator@?$_Tree@V?$_Tmap_traits@HPAVOracleBindParam@@U?$less@H@std@@V?$allocator@U?$pair@$$CBHPAVOracleBindParam@@@std@@@3@$0A@@std@@@std@@QAEXXZ 00441060 f i oraclequery.obj
 0001:000400f0       ?replace@?$basic_string@DU?$char_traits@D@std@@V?$allocator@D@2@@std@@QAEAAV12@IIPBDI@Z 004410f0 f i jDate.obj
 0001:000402e0       ?_Insert@?$_Tree@V?$_Tmap_traits@JNU?$less@J@std@@V?$allocator@U?$pair@$$CBJN@std@@@2@$0A@@std@@@std@@IAE?AViterator@12@_NPAU_Node@?$_Tree_nod@V?$_Tmap_traits@JNU?$less@J@std@@V?$allocator@U?$pair@$$CBJN@std@@@2@$0A@@std@@@2@ABU?$pair@$$CBJN@2@@Z 004412e0 f i jDate.obj
 0001:000404e0       ?_Insert@?$_Tree@V?$_Tmap_traits@HHU?$less@H@std@@V?$allocator@U?$pair@$$CBHH@std@@@2@$0A@@std@@@std@@IAE?AViterator@12@_NPAU_Node@?$_Tree_nod@V?$_Tmap_traits@HHU?$less@H@std@@V?$allocator@U?$pair@$$CBHH@std@@@2@$0A@@std@@@2@ABU?$pair@$$CBHH@2@@Z 004414e0 f i jDate.obj
 0001:000406e0       ??0ConversionError@JDate@@QAE@V?$basic_string@DU?$char_traits@D@std@@V?$allocator@D@2@@std@@@Z 004416e0 f i jDate.obj
 0001:000407a0       ??0OutOfRangeError@JDate@@QAE@V?$basic_string@DU?$char_traits@D@std@@V?$allocator@D@2@@std@@@Z 004417a0 f i jDate.obj
 0001:00040860       ?setTimeOffsetFile@JDate@@SAXABV?$basic_string@DU?$char_traits@D@std@@V?$allocator@D@2@@std@@@Z 00441860 f   jDate.obj
 0001:000408a0       ?asString@JDate@@QAE?AV?$basic_string@DU?$char_traits@D@std@@V?$allocator@D@2@@std@@ABV23@@Z 004418a0 f   jDate.obj
 0001:00040db0       ?asUnixTimeStamp@JDate@@QAE_JXZ 00441db0 f   jDate.obj
 0001:00040eb0       ?convertDatePortion@@YAHABV?$basic_string@DU?$char_traits@D@std@@V?$allocator@D@2@@std@@00@Z 00441eb0 f   jDate.obj
 0001:00041070       ?insert@?$_Tree@V?$_Tmap_traits@JNU?$less@J@std@@V?$allocator@U?$pair@$$CBJN@std@@@2@$0A@@std@@@std@@QAE?AU?$pair@Viterator@?$_Tree@V?$_Tmap_traits@JNU?$less@J@std@@V?$allocator@U?$pair@$$CBJN@std@@@2@$0A@@std@@@std@@_N@2@ABU?$pair@$$CBJN@2@@Z 00442070 f i jDate.obj
 0001:00041130       ?insert@?$_Tree@V?$_Tmap_traits@HHU?$less@H@std@@V?$allocator@U?$pair@$$CBHH@std@@@2@$0A@@std@@@std@@QAE?AU?$pair@Viterator@?$_Tree@V?$_Tmap_traits@HHU?$less@H@std@@V?$allocator@U?$pair@$$CBHH@std@@@2@$0A@@std@@@std@@_N@2@ABU?$pair@$$CBHH@2@@Z 00442130 f i jDate.obj
 0001:000411f0       ?insert@?$_Tree@V?$_Tmap_traits@JNU?$less@J@std@@V?$allocator@U?$pair@$$CBJN@std@@@2@$0A@@std@@@std@@QAE?AViterator@12@V312@ABU?$pair@$$CBJN@2@@Z 004421f0 f i jDate.obj
 0001:000413b0       ?insert@?$_Tree@V?$_Tmap_traits@HHU?$less@H@std@@V?$allocator@U?$pair@$$CBHH@std@@@2@$0A@@std@@@std@@QAE?AViterator@12@V312@ABU?$pair@$$CBHH@2@@Z 004423b0 f i jDate.obj
 0001:00041570       ??1JDate@@QAE@XZ           00442570 f   jDate.obj
 0001:00041640       ??A?$map@JNU?$less@J@std@@V?$allocator@U?$pair@$$CBJN@std@@@2@@std@@QAEAANABJ@Z 00442640 f i jDate.obj
 0001:000416c0       ??A?$map@HHU?$less@H@std@@V?$allocator@U?$pair@$$CBHH@std@@@2@@std@@QAEAAHABH@Z 004426c0 f i jDate.obj
 0001:00041740       ?_initialize@JDate@@AAEXXZ 00442740 f   jDate.obj
 0001:00041b00       ??0JDate@@QAE@N@Z          00442b00 f   jDate.obj
 0001:00041c00       ??0JDate@@QAE@ABUJulianDayNumber@0@@Z 00442c00 f   jDate.obj
 0001:00041ce0       ?modifyDate@JDate@@QAEXW4Units@1@J@Z 00442ce0 f   jDate.obj
 0001:00042340       ??YJDate@@QAE?AV0@ABV0@@Z  00443340 f   jDate.obj
 0001:00042380       ??ZJDate@@QAE?AV0@ABV0@@Z  00443380 f   jDate.obj
 0001:000423d0       ?setDate@JDate@@QAEXABV?$basic_string@DU?$char_traits@D@std@@V?$allocator@D@2@@std@@0@Z 004433d0 f   jDate.obj
 0001:000429a0       ?setDate@JDate@@QAEX_JH@Z  004439a0 f   jDate.obj
 0001:00042a20       ?setDate@JDate@@QAEXHHHHHHH@Z 00443a20 f   jDate.obj
 0001:00042a70       ??4JDate@@QAEXPBD@Z        00443a70 f   jDate.obj
 0001:00042b70       ??4JDate@@QAEXABV?$basic_string@DU?$char_traits@D@std@@V?$allocator@D@2@@std@@@Z 00443b70 f   jDate.obj
 0001:00042c10       ??4JDate@@QAEX_J@Z         00443c10 f   jDate.obj
 0001:00042c80       ?_getTimeOffsetParameters@JDate@@CA_NAAK0@Z 00443c80 f   jDate.obj
 0001:00042ee0       ??0JDate@@QAE@XZ           00443ee0 f   jDate.obj
 0001:00043060       ??0JDate@@QAE@ABV?$basic_string@DU?$char_traits@D@std@@V?$allocator@D@2@@std@@0@Z 00444060 f   jDate.obj
 0001:00043140       ??0JDate@@QAE@_JH@Z        00444140 f   jDate.obj
 0001:00043230       ??0JDate@@QAE@HHHHHHH@Z    00444230 f   jDate.obj
 0001:00043340       ?getRealSecondsForVirtualSeconds@JDate@@SAKJ@Z 00444340 f   jDate.obj
 0001:00043370       ??HJDate@@QAE?AV0@ABV0@@Z  00444370 f   jDate.obj
 0001:00043400       ??GJDate@@QAE?AV0@ABV0@@Z  00444400 f   jDate.obj
 0001:000434a0       ??0SimpleThread@@QAE@XZ    004444a0 f   simpleThreads.obj
 0001:000434b0       ?sleep@SimpleThread@@SAXI@Z 004444b0 f   simpleThreads.obj
 0001:000434c0       ?isLocked@SimpleThread_Mutex@@QAE_NXZ 004444c0 f   simpleThreads.obj
 0001:000434d0       ?getLockTime@SimpleThread_Mutex@@QAE_JXZ 004444d0 f   simpleThreads.obj
 0001:000434e0       ??0MutexError@SimpleThread_Mutex@@QAE@V?$basic_string@DU?$char_traits@D@std@@V?$allocator@D@2@@std@@@Z 004444e0 f i simpleThreads.obj
 0001:000435a0       ??0SimpleThread_Mutex@@QAE@XZ 004445a0 f   simpleThreads.obj
 0001:00043700       ??1SimpleThread_Mutex@@QAE@XZ 00444700 f   simpleThreads.obj
 0001:00043880       ?lock@SimpleThread_Mutex@@QAEXXZ 00444880 f   simpleThreads.obj
 0001:000439f0       ?unlock@SimpleThread_Mutex@@QAEXXZ 004449f0 f   simpleThreads.obj
 0001:00043b60       ??0SimpleThread_Synchronize@@QAE@AAVSimpleThread_Mutex@@@Z 00444b60 f   simpleThreads.obj
 0001:00043b80       ??1SimpleThread_Synchronize@@QAE@XZ 00444b80 f   simpleThreads.obj
 0001:00043ba0       ??$checked_delete@VDAGW@@@boost@@YAXPAVDAGW@@@Z 00444ba0 f i dagw.obj
 0001:00043bc0       ??$?0VDAGW@@@shared_count@detail@boost@@QAE@PAVDAGW@@@Z 00444bc0 f i dagw.obj
 0001:00043c50       ?dispose@?$sp_counted_impl_p@VDAGW@@@detail@boost@@UAEXXZ 00444c50 f i dagw.obj
 0001:00043c70       ??0DAGW@@QAE@XZ            00444c70 f i dagw.obj
 0001:00043d40       ?createService@@YA?AV?$shared_ptr@VService@@@boost@@XZ 00444d40 f   dagw.obj
 0001:00043dc0       ??1MessageDispatcher@cacti@@QAE@XZ 00444dc0 f i dagw.obj
 0001:00043f70       ?stop@DAGW@@UAEXXZ         00444f70 f   dagw.obj
 0001:00043fd0       ?start@DAGW@@UAE_NXZ       00444fd0 f   dagw.obj
 0001:00044120       ?dbfindex@@YAHPBD@Z        00445120 f   dagwservice.obj
 0001:000441a0       ?size@?$vector@UCConnectionCfg@@V?$allocator@UCConnectionCfg@@@std@@@std@@QBEIXZ 004451a0 f i dagwservice.obj
 0001:000441c0       ?_Min@?$_Tree@V?$_Tmap_traits@V?$basic_string@DU?$char_traits@D@std@@V?$allocator@D@2@@std@@PAUCDBProcInfo@@U?$less@V?$basic_string@DU?$char_traits@D@std@@V?$allocator@D@2@@std@@@2@V?$allocator@U?$pair@$$CBV?$basic_string@DU?$char_traits@D@std@@V?$allocator@D@2@@std@@PAUCDBProcInfo@@@std@@@2@$0A@@std@@@std@@KAPAU_Node@?$_Tree_nod@V?$_Tmap_traits@V?$basic_string@DU?$char_traits@D@std@@V?$allocator@D@2@@std@@PAUCDBProcInfo@@U?$less@V?$basic_string@DU?$char_traits@D@std@@V?$allocator@D@2@@std@@@2@V?$allocator@U?$pair@$$CBV?$basic_string@DU?$char_traits@D@std@@V?$allocator@D@2@@std@@PAUCDBProcInfo@@@std@@@2@$0A@@std@@@2@PAU342@@Z 004451c0 f i dagwservice.obj
 0001:000441c0       ?_Min@?$_Tree@V?$_Tmap_traits@V?$basic_string@DU?$char_traits@D@std@@V?$allocator@D@2@@std@@PAVLineFrame@cacti@@Uicaseless@4@V?$allocator@U?$pair@$$CBV?$basic_string@DU?$char_traits@D@std@@V?$allocator@D@2@@std@@PAVLineFrame@cacti@@@std@@@2@$0A@@std@@@std@@KAPAU_Node@?$_Tree_nod@V?$_Tmap_traits@V?$basic_string@DU?$char_traits@D@std@@V?$allocator@D@2@@std@@PAVLineFrame@cacti@@Uicaseless@4@V?$allocator@U?$pair@$$CBV?$basic_string@DU?$char_traits@D@std@@V?$allocator@D@2@@std@@PAVLineFrame@cacti@@@std@@@2@$0A@@std@@@2@PAU342@@Z 004451c0 f i IniFile.obj
 0001:000441e0       ?_Rrotate@?$_Tree@V?$_Tmap_traits@V?$basic_string@DU?$char_traits@D@std@@V?$allocator@D@2@@std@@PAVLineFrame@cacti@@Uicaseless@4@V?$allocator@U?$pair@$$CBV?$basic_string@DU?$char_traits@D@std@@V?$allocator@D@2@@std@@PAVLineFrame@cacti@@@std@@@2@$0A@@std@@@std@@IAEXPAU_Node@?$_Tree_nod@V?$_Tmap_traits@V?$basic_string@DU?$char_traits@D@std@@V?$allocator@D@2@@std@@PAVLineFrame@cacti@@Uicaseless@4@V?$allocator@U?$pair@$$CBV?$basic_string@DU?$char_traits@D@std@@V?$allocator@D@2@@std@@PAVLineFrame@cacti@@@std@@@2@$0A@@std@@@2@@Z 004451e0 f i IniFile.obj
 0001:000441e0       ?_Rrotate@?$_Tree@V?$_Tmap_traits@V?$basic_string@DU?$char_traits@D@std@@V?$allocator@D@2@@std@@PAUCDBProcInfo@@U?$less@V?$basic_string@DU?$char_traits@D@std@@V?$allocator@D@2@@std@@@2@V?$allocator@U?$pair@$$CBV?$basic_string@DU?$char_traits@D@std@@V?$allocator@D@2@@std@@PAUCDBProcInfo@@@std@@@2@$0A@@std@@@std@@IAEXPAU_Node@?$_Tree_nod@V?$_Tmap_traits@V?$basic_string@DU?$char_traits@D@std@@V?$allocator@D@2@@std@@PAUCDBProcInfo@@U?$less@V?$basic_string@DU?$char_traits@D@std@@V?$allocator@D@2@@std@@@2@V?$allocator@U?$pair@$$CBV?$basic_string@DU?$char_traits@D@std@@V?$allocator@D@2@@std@@PAUCDBProcInfo@@@std@@@2@$0A@@std@@@2@@Z 004451e0 f i dagwservice.obj
 0001:00044240       ?_Max@?$_Tree@V?$_Tmap_traits@V?$basic_string@DU?$char_traits@D@std@@V?$allocator@D@2@@std@@PAVLineFrame@cacti@@Uicaseless@4@V?$allocator@U?$pair@$$CBV?$basic_string@DU?$char_traits@D@std@@V?$allocator@D@2@@std@@PAVLineFrame@cacti@@@std@@@2@$0A@@std@@@std@@KAPAU_Node@?$_Tree_nod@V?$_Tmap_traits@V?$basic_string@DU?$char_traits@D@std@@V?$allocator@D@2@@std@@PAVLineFrame@cacti@@Uicaseless@4@V?$allocator@U?$pair@$$CBV?$basic_string@DU?$char_traits@D@std@@V?$allocator@D@2@@std@@PAVLineFrame@cacti@@@std@@@2@$0A@@std@@@2@PAU342@@Z 00445240 f i IniFile.obj
 0001:00044240       ?_Max@?$_Tree@V?$_Tmap_traits@V?$basic_string@DU?$char_traits@D@std@@V?$allocator@D@2@@std@@PAUCDBProcInfo@@U?$less@V?$basic_string@DU?$char_traits@D@std@@V?$allocator@D@2@@std@@@2@V?$allocator@U?$pair@$$CBV?$basic_string@DU?$char_traits@D@std@@V?$allocator@D@2@@std@@PAUCDBProcInfo@@@std@@@2@$0A@@std@@@std@@KAPAU_Node@?$_Tree_nod@V?$_Tmap_traits@V?$basic_string@DU?$char_traits@D@std@@V?$allocator@D@2@@std@@PAUCDBProcInfo@@U?$less@V?$basic_string@DU?$char_traits@D@std@@V?$allocator@D@2@@std@@@2@V?$allocator@U?$pair@$$CBV?$basic_string@DU?$char_traits@D@std@@V?$allocator@D@2@@std@@PAUCDBProcInfo@@@std@@@2@$0A@@std@@@2@PAU342@@Z 00445240 f i dagwservice.obj
 0001:00044260       ?_Dec@const_iterator@?$_Tree@V?$_Tmap_traits@V?$basic_string@DU?$char_traits@D@std@@V?$allocator@D@2@@std@@PAUCDBProcInfo@@U?$less@V?$basic_string@DU?$char_traits@D@std@@V?$allocator@D@2@@std@@@2@V?$allocator@U?$pair@$$CBV?$basic_string@DU?$char_traits@D@std@@V?$allocator@D@2@@std@@PAUCDBProcInfo@@@std@@@2@$0A@@std@@@std@@QAEXXZ 00445260 f i dagwservice.obj
 0001:00044260       ?_Dec@const_iterator@?$_Tree@V?$_Tmap_traits@V?$basic_string@DU?$char_traits@D@std@@V?$allocator@D@2@@std@@PAVLineFrame@cacti@@Uicaseless@4@V?$allocator@U?$pair@$$CBV?$basic_string@DU?$char_traits@D@std@@V?$allocator@D@2@@std@@PAVLineFrame@cacti@@@std@@@2@$0A@@std@@@std@@QAEXXZ 00445260 f i IniFile.obj
 0001:000442f0       ??$_Allocate@UCConnectionCfg@@@std@@YAPAUCConnectionCfg@@IPAU1@@Z 004452f0 f i dagwservice.obj
 0001:00044350       ?GetProcess@CDBProcInfo@@QAEPAVTDBProcess@@XZ 00445350 f i dagwservice.obj
 0001:000443b0       ?GetProcess@CDBProcInfo@@QAEPAVTDBProcess@@K@Z 004453b0 f i dagwservice.obj
 0001:00044410       ?_Inc@const_iterator@?$_Tree@V?$_Tmap_traits@V?$basic_string@DU?$char_traits@D@std@@V?$allocator@D@2@@std@@PAUCDBProcInfo@@U?$less@V?$basic_string@DU?$char_traits@D@std@@V?$allocator@D@2@@std@@@2@V?$allocator@U?$pair@$$CBV?$basic_string@DU?$char_traits@D@std@@V?$allocator@D@2@@std@@PAUCDBProcInfo@@@std@@@2@$0A@@std@@@std@@QAEXXZ 00445410 f i dagwservice.obj
 0001:00044410       ?_Inc@const_iterator@?$_Tree@V?$_Tmap_traits@V?$basic_string@DU?$char_traits@D@std@@V?$allocator@D@2@@std@@PAVLineFrame@cacti@@Uicaseless@4@V?$allocator@U?$pair@$$CBV?$basic_string@DU?$char_traits@D@std@@V?$allocator@D@2@@std@@PAVLineFrame@cacti@@@std@@@2@$0A@@std@@@std@@QAEXXZ 00445410 f i IniFile.obj
 0001:00044480       ?_Buynode@?$_Tree@V?$_Tmap_traits@V?$basic_string@DU?$char_traits@D@std@@V?$allocator@D@2@@std@@PAVLineFrame@cacti@@Uicaseless@4@V?$allocator@U?$pair@$$CBV?$basic_string@DU?$char_traits@D@std@@V?$allocator@D@2@@std@@PAVLineFrame@cacti@@@std@@@2@$0A@@std@@@std@@IAEPAU_Node@?$_Tree_nod@V?$_Tmap_traits@V?$basic_string@DU?$char_traits@D@std@@V?$allocator@D@2@@std@@PAVLineFrame@cacti@@Uicaseless@4@V?$allocator@U?$pair@$$CBV?$basic_string@DU?$char_traits@D@std@@V?$allocator@D@2@@std@@PAVLineFrame@cacti@@@std@@@2@$0A@@std@@@2@XZ 00445480 f i IniFile.obj
 0001:00044480       ?_Buynode@?$_Tree@V?$_Tmap_traits@V?$basic_string@DU?$char_traits@D@std@@V?$allocator@D@2@@std@@PAUCDBProcInfo@@U?$less@V?$basic_string@DU?$char_traits@D@std@@V?$allocator@D@2@@std@@@2@V?$allocator@U?$pair@$$CBV?$basic_string@DU?$char_traits@D@std@@V?$allocator@D@2@@std@@PAUCDBProcInfo@@@std@@@2@$0A@@std@@@std@@IAEPAU_Node@?$_Tree_nod@V?$_Tmap_traits@V?$basic_string@DU?$char_traits@D@std@@V?$allocator@D@2@@std@@PAUCDBProcInfo@@U?$less@V?$basic_string@DU?$char_traits@D@std@@V?$allocator@D@2@@std@@@2@V?$allocator@U?$pair@$$CBV?$basic_string@DU?$char_traits@D@std@@V?$allocator@D@2@@std@@PAUCDBProcInfo@@@std@@@2@$0A@@std@@@2@XZ 00445480 f i dagwservice.obj
 0001:000444c0       ??$_Unchecked_move_backward@PAPAUTimerList@cacti@@PAPAU12@@stdext@@YAPAPAUTimerList@cacti@@PAPAU12@00@Z 004454c0 f i Timer.obj
 0001:000444c0       ??$_Unchecked_move_backward@PAPAVTDBProcess@@PAPAV1@@stdext@@YAPAPAVTDBProcess@@PAPAV1@00@Z 004454c0 f i dagwservice.obj
 0001:000444c0       ??$_Unchecked_move_backward@PAKPAK@stdext@@YAPAKPAK00@Z 004454c0 f i TLV.obj
 0001:000444f0       ?_Lbound@?$_Tree@V?$_Tmap_traits@V?$basic_string@DU?$char_traits@D@std@@V?$allocator@D@2@@std@@PAUCDBProcInfo@@U?$less@V?$basic_string@DU?$char_traits@D@std@@V?$allocator@D@2@@std@@@2@V?$allocator@U?$pair@$$CBV?$basic_string@DU?$char_traits@D@std@@V?$allocator@D@2@@std@@PAUCDBProcInfo@@@std@@@2@$0A@@std@@@std@@IBEPAU_Node@?$_Tree_nod@V?$_Tmap_traits@V?$basic_string@DU?$char_traits@D@std@@V?$allocator@D@2@@std@@PAUCDBProcInfo@@U?$less@V?$basic_string@DU?$char_traits@D@std@@V?$allocator@D@2@@std@@@2@V?$allocator@U?$pair@$$CBV?$basic_string@DU?$char_traits@D@std@@V?$allocator@D@2@@std@@PAUCDBProcInfo@@@std@@@2@$0A@@std@@@2@ABV?$basic_string@DU?$char_traits@D@std@@V?$allocator@D@2@@2@@Z 004454f0 f i dagwservice.obj
 0001:00044580       ??1ServiceSkeleton@cacti@@QAE@XZ 00445580 f i dagwservice.obj
 0001:000445f0       ??1CConnectionCfg@@QAE@XZ  004455f0 f i dagwservice.obj
 0001:000446c0       ?find@?$_Tree@V?$_Tmap_traits@V?$basic_string@DU?$char_traits@D@std@@V?$allocator@D@2@@std@@PAUCDBProcInfo@@U?$less@V?$basic_string@DU?$char_traits@D@std@@V?$allocator@D@2@@std@@@2@V?$allocator@U?$pair@$$CBV?$basic_string@DU?$char_traits@D@std@@V?$allocator@D@2@@std@@PAUCDBProcInfo@@@std@@@2@$0A@@std@@@std@@QAE?AViterator@12@ABV?$basic_string@DU?$char_traits@D@std@@V?$allocator@D@2@@2@@Z 004456c0 f i dagwservice.obj
 0001:00044740       ??0CConnectionCfg@@QAE@ABU0@@Z 00445740 f i dagwservice.obj
 0001:00044840       ?uninit@TDBGWService@@MAEXXZ 00445840 f   dagwservice.obj
 0001:00044a40       ?reconnect@TDBGWService@@QAEXV?$basic_string@DU?$char_traits@D@std@@V?$allocator@D@2@@std@@@Z 00445a40 f   dagwservice.obj
 0001:00045270       ?_Xlen@?$vector@UCConnectionCfg@@V?$allocator@UCConnectionCfg@@@std@@@std@@KAXXZ 00446270 f i dagwservice.obj
 0001:000452f0       ?_Xlen@?$vector@PAVTDBProcess@@V?$allocator@PAVTDBProcess@@@std@@@std@@KAXXZ 004462f0 f i dagwservice.obj
 0001:00045370       ??4CConnectionCfg@@QAEAAU0@ABU0@@Z 00446370 f i dagwservice.obj
 0001:000453f0       ??$_Copy_backward_opt@PAUCConnectionCfg@@PAU1@Uforward_iterator_tag@std@@@std@@YAPAUCConnectionCfg@@PAU1@00Uforward_iterator_tag@0@U_Nonscalar_ptr_iterator_tag@0@U_Range_checked_iterator_tag@0@@Z 004463f0 f i dagwservice.obj
 0001:00045430       ??$_Uninit_copy@PAUCConnectionCfg@@PAU1@V?$allocator@UCConnectionCfg@@@std@@@std@@YAPAUCConnectionCfg@@PAU1@00AAV?$allocator@UCConnectionCfg@@@0@U_Nonscalar_ptr_iterator_tag@0@U_Range_checked_iterator_tag@0@@Z 00446430 f i dagwservice.obj
 0001:000454e0       ?HandleExecSQL@TDBGWService@@AAEXABUServiceIdentifier@cacti@@AAVUserTransferMessage@3@@Z 004464e0 f   dagwservice.obj
 0001:000459f0       ?registerToSLEE@TDBGWService@@AAEXABUServiceIdentifier@cacti@@AAVUserTransferMessage@3@@Z 004469f0 f   dagwservice.obj
 0001:00045bc0       ?HandleRespRegister@TDBGWService@@AAEXABUServiceIdentifier@cacti@@AAVUserTransferMessage@3@@Z 00446bc0 f   dagwservice.obj
 0001:00045d20       ?_Insert_n@?$vector@PAVTDBProcess@@V?$allocator@PAVTDBProcess@@@std@@@std@@IAEXV?$_Vector_iterator@PAVTDBProcess@@V?$allocator@PAVTDBProcess@@@std@@@2@IABQAVTDBProcess@@@Z 00446d20 f i dagwservice.obj
 0001:00045ee0       ?erase@?$_Tree@V?$_Tmap_traits@V?$basic_string@DU?$char_traits@D@std@@V?$allocator@D@2@@std@@PAUCDBProcInfo@@U?$less@V?$basic_string@DU?$char_traits@D@std@@V?$allocator@D@2@@std@@@2@V?$allocator@U?$pair@$$CBV?$basic_string@DU?$char_traits@D@std@@V?$allocator@D@2@@std@@PAUCDBProcInfo@@@std@@@2@$0A@@std@@@std@@QAE?AViterator@12@V312@@Z 00446ee0 f i dagwservice.obj
 0001:000461d0       ?_Buynode@?$_Tree@V?$_Tmap_traits@V?$basic_string@DU?$char_traits@D@std@@V?$allocator@D@2@@std@@PAUCDBProcInfo@@U?$less@V?$basic_string@DU?$char_traits@D@std@@V?$allocator@D@2@@std@@@2@V?$allocator@U?$pair@$$CBV?$basic_string@DU?$char_traits@D@std@@V?$allocator@D@2@@std@@PAUCDBProcInfo@@@std@@@2@$0A@@std@@@std@@IAEPAU_Node@?$_Tree_nod@V?$_Tmap_traits@V?$basic_string@DU?$char_traits@D@std@@V?$allocator@D@2@@std@@PAUCDBProcInfo@@U?$less@V?$basic_string@DU?$char_traits@D@std@@V?$allocator@D@2@@std@@@2@V?$allocator@U?$pair@$$CBV?$basic_string@DU?$char_traits@D@std@@V?$allocator@D@2@@std@@PAUCDBProcInfo@@@std@@@2@$0A@@std@@@2@PAU342@00ABU?$pair@$$CBV?$basic_string@DU?$char_traits@D@std@@V?$allocator@D@2@@std@@PAUCDBProcInfo@@@2@D@Z 004471d0 f i dagwservice.obj
 0001:00046270       ?_Erase@?$_Tree@V?$_Tmap_traits@V?$basic_string@DU?$char_traits@D@std@@V?$allocator@D@2@@std@@PAVLineFrame@cacti@@Uicaseless@4@V?$allocator@U?$pair@$$CBV?$basic_string@DU?$char_traits@D@std@@V?$allocator@D@2@@std@@PAVLineFrame@cacti@@@std@@@2@$0A@@std@@@std@@IAEXPAU_Node@?$_Tree_nod@V?$_Tmap_traits@V?$basic_string@DU?$char_traits@D@std@@V?$allocator@D@2@@std@@PAVLineFrame@cacti@@Uicaseless@4@V?$allocator@U?$pair@$$CBV?$basic_string@DU?$char_traits@D@std@@V?$allocator@D@2@@std@@PAVLineFrame@cacti@@@std@@@2@$0A@@std@@@2@@Z 00447270 f i IniFile.obj
 0001:00046270       ?_Erase@?$_Tree@V?$_Tmap_traits@V?$basic_string@DU?$char_traits@D@std@@V?$allocator@D@2@@std@@PAUCDBProcInfo@@U?$less@V?$basic_string@DU?$char_traits@D@std@@V?$allocator@D@2@@std@@@2@V?$allocator@U?$pair@$$CBV?$basic_string@DU?$char_traits@D@std@@V?$allocator@D@2@@std@@PAUCDBProcInfo@@@std@@@2@$0A@@std@@@std@@IAEXPAU_Node@?$_Tree_nod@V?$_Tmap_traits@V?$basic_string@DU?$char_traits@D@std@@V?$allocator@D@2@@std@@PAUCDBProcInfo@@U?$less@V?$basic_string@DU?$char_traits@D@std@@V?$allocator@D@2@@std@@@2@V?$allocator@U?$pair@$$CBV?$basic_string@DU?$char_traits@D@std@@V?$allocator@D@2@@std@@PAUCDBProcInfo@@@std@@@2@$0A@@std@@@2@@Z 00447270 f i dagwservice.obj
 0001:000462d0       ??$_Uninit_fill_n@PAUCConnectionCfg@@IU1@V?$allocator@UCConnectionCfg@@@std@@@std@@YAXPAUCConnectionCfg@@IABU1@AAV?$allocator@UCConnectionCfg@@@0@U_Nonscalar_ptr_iterator_tag@0@U_Range_checked_iterator_tag@0@@Z 004472d0 f i dagwservice.obj
 0001:00046380       ??$_Copy_backward_opt@PAUCConnectionCfg@@PAU1@@std@@YAPAUCConnectionCfg@@PAU1@00Urandom_access_iterator_tag@0@U_Nonscalar_ptr_iterator_tag@0@U_Range_checked_iterator_tag@0@@Z 00447380 f i dagwservice.obj
 0001:000463e0       ?onDefaultMessage@TDBGWService@@AAEXABUServiceIdentifier@cacti@@AAVUserTransferMessage@3@@Z 004473e0 f   dagwservice.obj
 0001:00046440       ?insert@?$vector@PAVTDBProcess@@V?$allocator@PAVTDBProcess@@@std@@@std@@QAE?AV?$_Vector_iterator@PAVTDBProcess@@V?$allocator@PAVTDBProcess@@@std@@@2@V32@ABQAVTDBProcess@@@Z 00447440 f i dagwservice.obj
 0001:000464d0       ?_Insert@?$_Tree@V?$_Tmap_traits@V?$basic_string@DU?$char_traits@D@std@@V?$allocator@D@2@@std@@PAUCDBProcInfo@@U?$less@V?$basic_string@DU?$char_traits@D@std@@V?$allocator@D@2@@std@@@2@V?$allocator@U?$pair@$$CBV?$basic_string@DU?$char_traits@D@std@@V?$allocator@D@2@@std@@PAUCDBProcInfo@@@std@@@2@$0A@@std@@@std@@IAE?AViterator@12@_NPAU_Node@?$_Tree_nod@V?$_Tmap_traits@V?$basic_string@DU?$char_traits@D@std@@V?$allocator@D@2@@std@@PAUCDBProcInfo@@U?$less@V?$basic_string@DU?$char_traits@D@std@@V?$allocator@D@2@@std@@@2@V?$allocator@U?$pair@$$CBV?$basic_string@DU?$char_traits@D@std@@V?$allocator@D@2@@std@@PAUCDBProcInfo@@@std@@@2@$0A@@std@@@2@ABU?$pair@$$CBV?$basic_string@DU?$char_traits@D@std@@V?$allocator@D@2@@std@@PAUCDBProcInfo@@@2@@Z 004474d0 f i dagwservice.obj
 0001:000466d0       ??$fill@PAUCConnectionCfg@@U1@@std@@YAXPAUCConnectionCfg@@0ABU1@@Z 004476d0 f i dagwservice.obj
 0001:00046700       ?onMessage@TDBGWService@@EAEXABUServiceIdentifier@cacti@@AAVUserTransferMessage@3@@Z 00447700 f   dagwservice.obj
 0001:00046760       ?push_back@?$vector@PAVTDBProcess@@V?$allocator@PAVTDBProcess@@@std@@@std@@QAEXABQAVTDBProcess@@@Z 00447760 f i dagwservice.obj
 0001:000467d0       ?_Ufill@?$vector@UCConnectionCfg@@V?$allocator@UCConnectionCfg@@@std@@@std@@IAEPAUCConnectionCfg@@PAU3@IABU3@@Z 004477d0 f i dagwservice.obj
 0001:00046810       ?_Destroy@?$vector@UCConnectionCfg@@V?$allocator@UCConnectionCfg@@@std@@@std@@IAEXPAUCConnectionCfg@@0@Z 00447810 f i dagwservice.obj
 0001:00046840       ?insert@?$_Tree@V?$_Tmap_traits@V?$basic_string@DU?$char_traits@D@std@@V?$allocator@D@2@@std@@PAUCDBProcInfo@@U?$less@V?$basic_string@DU?$char_traits@D@std@@V?$allocator@D@2@@std@@@2@V?$allocator@U?$pair@$$CBV?$basic_string@DU?$char_traits@D@std@@V?$allocator@D@2@@std@@PAUCDBProcInfo@@@std@@@2@$0A@@std@@@std@@QAE?AU?$pair@Viterator@?$_Tree@V?$_Tmap_traits@V?$basic_string@DU?$char_traits@D@std@@V?$allocator@D@2@@std@@PAUCDBProcInfo@@U?$less@V?$basic_string@DU?$char_traits@D@std@@V?$allocator@D@2@@std@@@2@V?$allocator@U?$pair@$$CBV?$basic_string@DU?$char_traits@D@std@@V?$allocator@D@2@@std@@PAUCDBProcInfo@@@std@@@2@$0A@@std@@@std@@_N@2@ABU?$pair@$$CBV?$basic_string@DU?$char_traits@D@std@@V?$allocator@D@2@@std@@PAUCDBProcInfo@@@2@@Z 00447840 f i dagwservice.obj
 0001:00046970       ?erase@?$_Tree@V?$_Tmap_traits@V?$basic_string@DU?$char_traits@D@std@@V?$allocator@D@2@@std@@PAUCDBProcInfo@@U?$less@V?$basic_string@DU?$char_traits@D@std@@V?$allocator@D@2@@std@@@2@V?$allocator@U?$pair@$$CBV?$basic_string@DU?$char_traits@D@std@@V?$allocator@D@2@@std@@PAUCDBProcInfo@@@std@@@2@$0A@@std@@@std@@QAE?AViterator@12@V312@0@Z 00447970 f i dagwservice.obj
 0001:00046a40       ??$_Unchecked_move_backward@PAUCConnectionCfg@@PAU1@@stdext@@YAPAUCConnectionCfg@@PAU1@00@Z 00447a40 f i dagwservice.obj
 0001:00046a70       ?_Tidy@?$vector@UCConnectionCfg@@V?$allocator@UCConnectionCfg@@@std@@@std@@IAEXXZ 00447a70 f i dagwservice.obj
 0001:00046ac0       ?insert@?$_Tree@V?$_Tmap_traits@V?$basic_string@DU?$char_traits@D@std@@V?$allocator@D@2@@std@@PAUCDBProcInfo@@U?$less@V?$basic_string@DU?$char_traits@D@std@@V?$allocator@D@2@@std@@@2@V?$allocator@U?$pair@$$CBV?$basic_string@DU?$char_traits@D@std@@V?$allocator@D@2@@std@@PAUCDBProcInfo@@@std@@@2@$0A@@std@@@std@@QAE?AViterator@12@V312@ABU?$pair@$$CBV?$basic_string@DU?$char_traits@D@std@@V?$allocator@D@2@@std@@PAUCDBProcInfo@@@2@@Z 00447ac0 f i dagwservice.obj
 0001:00046cc0       ??$_Umove@PAUCConnectionCfg@@@?$vector@UCConnectionCfg@@V?$allocator@UCConnectionCfg@@@std@@@std@@IAEPAUCConnectionCfg@@PAU2@00@Z 00447cc0 f i dagwservice.obj
 0001:00046cf0       ??A?$map@V?$basic_string@DU?$char_traits@D@std@@V?$allocator@D@2@@std@@PAUCDBProcInfo@@U?$less@V?$basic_string@DU?$char_traits@D@std@@V?$allocator@D@2@@std@@@2@V?$allocator@U?$pair@$$CBV?$basic_string@DU?$char_traits@D@std@@V?$allocator@D@2@@std@@PAUCDBProcInfo@@@std@@@2@@std@@QAEAAPAUCDBProcInfo@@ABV?$basic_string@DU?$char_traits@D@std@@V?$allocator@D@2@@1@@Z 00447cf0 f i dagwservice.obj
 0001:00046df0       ?_Insert_n@?$vector@UCConnectionCfg@@V?$allocator@UCConnectionCfg@@@std@@@std@@IAEXV?$_Vector_iterator@UCConnectionCfg@@V?$allocator@UCConnectionCfg@@@std@@@2@IABUCConnectionCfg@@@Z 00447df0 f i dagwservice.obj
 0001:00047120       ??0CDAGWCfgData@@QAE@XZ    00448120 f i dagwservice.obj
 0001:00047180       ??1?$map@V?$basic_string@DU?$char_traits@D@std@@V?$allocator@D@2@@std@@PAUCDBProcInfo@@U?$less@V?$basic_string@DU?$char_traits@D@std@@V?$allocator@D@2@@std@@@2@V?$allocator@U?$pair@$$CBV?$basic_string@DU?$char_traits@D@std@@V?$allocator@D@2@@std@@PAUCDBProcInfo@@@std@@@2@@std@@QAE@XZ 00448180 f i dagwservice.obj
 0001:000471c0       ??1TDBGWService@@QAE@XZ    004481c0 f   dagwservice.obj
 0001:00047280       ?init@TDBGWService@@MAE_NXZ 00448280 f   dagwservice.obj
 0001:00047970       ?insert@?$vector@UCConnectionCfg@@V?$allocator@UCConnectionCfg@@@std@@@std@@QAE?AV?$_Vector_iterator@UCConnectionCfg@@V?$allocator@UCConnectionCfg@@@std@@@2@V32@ABUCConnectionCfg@@@Z 00448970 f i dagwservice.obj
 0001:00047a20       ?push_back@?$vector@UCConnectionCfg@@V?$allocator@UCConnectionCfg@@@std@@@std@@QAEXABUCConnectionCfg@@@Z 00448a20 f i dagwservice.obj
 0001:00047ad0       ?Load@CDAGWCfgData@@QAEXPBD@Z 00448ad0 f   dagwservice.obj
 0001:00047f60       ??0TDBGWService@@QAE@PAVMessageDispatcher@cacti@@@Z 00448f60 f   dagwservice.obj
 0001:00048010       ??$_Allocate@VUserTransferMessage@cacti@@@std@@YAPAVUserTransferMessage@cacti@@IPAV12@@Z 00449010 f i dbprocess.obj
 0001:00048070       ?purePut@?$BoundedQueue@VUserTransferMessage@cacti@@@cacti@@AAEXABVUserTransferMessage@2@@Z 00449070 f i dbprocess.obj
 0001:000480f0       ?put@?$BoundedQueue@VUserTransferMessage@cacti@@@cacti@@QAEXABVUserTransferMessage@2@@Z 004490f0 f i dbprocess.obj
 0001:000481b0       ?tryPut@?$BoundedQueue@VUserTransferMessage@cacti@@@cacti@@QAE_NABVUserTransferMessage@2@@Z 004491b0 f i dbprocess.obj
 0001:00048270       ?Process@TDBProcess@@QAE_NAAVUserTransferMessage@cacti@@@Z 00449270 f   dbprocess.obj
 0001:00048280       ?PrintLog@TDBProcess@@AAAXPBDZZ 00449280 f   dbprocess.obj
 0001:00048330       ?PreExecSQL@TDBProcess@@AAE_NABUServiceIdentifier@cacti@@AAVUserTransferMessage@3@AAV?$basic_string@DU?$char_traits@D@std@@V?$allocator@D@2@@std@@@Z 00449330 f   dbprocess.obj
 0001:00048390       ?errProcess@TDBProcess@@QAEXAAVBaseException@@V?$basic_string@DU?$char_traits@D@std@@V?$allocator@D@2@@std@@@Z 00449390 f   dbprocess.obj
 0001:00048530       ?_Xlen@?$vector@VUserTransferMessage@cacti@@V?$allocator@VUserTransferMessage@cacti@@@std@@@std@@KAXXZ 00449530 f i dbprocess.obj
 0001:000485b0       ?Stop@TDBProcess@@QAEXXZ   004495b0 f   dbprocess.obj
 0001:00048660       ??$swap@VUserTransferMessage@cacti@@@std@@YAXAAVUserTransferMessage@cacti@@0@Z 00449660 f i dbprocess.obj
 0001:000486f0       ?pureGet@?$BoundedQueue@VUserTransferMessage@cacti@@@cacti@@AAEXAAVUserTransferMessage@2@@Z 004496f0 f i dbprocess.obj
 0001:00048800       ?tryGet@?$BoundedQueue@VUserTransferMessage@cacti@@@cacti@@QAE_NAAVUserTransferMessage@2@@Z 00449800 f i dbprocess.obj
 0001:000488a0       ?destroy@?$allocator@VUserTransferMessage@cacti@@@std@@QAEXPAVUserTransferMessage@cacti@@@Z 004498a0 f i dbprocess.obj
 0001:000488d0       ?run@TDBProcess@@EAEXXZ    004498d0 f   dbprocess.obj
 0001:00048a00       ??$_Destroy_range@VUserTransferMessage@cacti@@V?$allocator@VUserTransferMessage@cacti@@@std@@@std@@YAXPAVUserTransferMessage@cacti@@0AAV?$allocator@VUserTransferMessage@cacti@@@0@U_Nonscalar_ptr_iterator_tag@0@@Z 00449a00 f i dbprocess.obj
 0001:00048a40       ??$_Uninit_fill_n@PAVUserTransferMessage@cacti@@IV12@V?$allocator@VUserTransferMessage@cacti@@@std@@@std@@YAXPAVUserTransferMessage@cacti@@IABV12@AAV?$allocator@VUserTransferMessage@cacti@@@0@U_Nonscalar_ptr_iterator_tag@0@U_Range_checked_iterator_tag@0@@Z 00449a40 f i dbprocess.obj
 0001:00048af0       ?OnExecSQL@TDBProcess@@AAEXABUServiceIdentifier@cacti@@AAVUserTransferMessage@3@@Z 00449af0 f   dbprocess.obj
 0001:00049130       ?onMessage@TDBProcess@@EAEXABUServiceIdentifier@cacti@@AAVUserTransferMessage@3@@Z 0044a130 f   dbprocess.obj
 0001:00049170       ?_Construct_n@?$vector@VUserTransferMessage@cacti@@V?$allocator@VUserTransferMessage@cacti@@@std@@@std@@QAEXIABVUserTransferMessage@cacti@@@Z 0044a170 f i dbprocess.obj
 0001:00049230       ??1?$vector@VUserTransferMessage@cacti@@V?$allocator@VUserTransferMessage@cacti@@@std@@@std@@QAE@XZ 0044a230 f i dbprocess.obj
 0001:00049230       ?_Tidy@?$vector@VUserTransferMessage@cacti@@V?$allocator@VUserTransferMessage@cacti@@@std@@@std@@IAEXXZ 0044a230 f i dbprocess.obj
 0001:00049270       ??0?$vector@VUserTransferMessage@cacti@@V?$allocator@VUserTransferMessage@cacti@@@std@@@std@@QAE@I@Z 0044a270 f i dbprocess.obj
 0001:000492f0       ??1?$BoundedQueue@VUserTransferMessage@cacti@@@cacti@@QAE@XZ 0044a2f0 f i dbprocess.obj
 0001:00049390       ??1TDBProcess@@UAE@XZ      0044a390 f   dbprocess.obj
 0001:00049410       ??0?$BoundedQueue@VUserTransferMessage@cacti@@@cacti@@QAE@H@Z 0044a410 f i dbprocess.obj
 0001:000494a0       ??0TDBProcess@@QAE@PAVTDBGWService@@PAVBaseQuery@@H@Z 0044a4a0 f   dbprocess.obj
 0001:00049550       ??_GTDBProcess@@UAEPAXI@Z  0044a550 f i dbprocess.obj
 0001:00049550       ??_ETDBProcess@@UAEPAXI@Z  0044a550 f i dbprocess.obj
 0001:0004956e       _OCILogoff                 0044a56e f   oci:OCI.dll
 0001:00049574       _OCIHandleFree             0044a574 f   oci:OCI.dll
 0001:0004957a       _OCITerminate              0044a57a f   oci:OCI.dll
 0001:00049580       _OCIErrorGet               0044a580 f   oci:OCI.dll
 0001:00049586       _OCILogon                  0044a586 f   oci:OCI.dll
 0001:0004958c       _OCIHandleAlloc            0044a58c f   oci:OCI.dll
 0001:00049592       _OCIEnvCreate              0044a592 f   oci:OCI.dll
 0001:00049598       _OCINumberToReal           0044a598 f   oci:OCI.dll
 0001:0004959e       _OCINumberToInt            0044a59e f   oci:OCI.dll
 0001:000495a4       _OCIDefineByPos            0044a5a4 f   oci:OCI.dll
 0001:000495aa       _OCIParamGet               0044a5aa f   oci:OCI.dll
 0001:000495b0       _OCIAttrGet                0044a5b0 f   oci:OCI.dll
 0001:000495b6       _OCIBindByPos              0044a5b6 f   oci:OCI.dll
 0001:000495bc       _OCIBindByName             0044a5bc f   oci:OCI.dll
 0001:000495c2       _OCIStmtPrepare            0044a5c2 f   oci:OCI.dll
 0001:000495c8       _OCIStmtFetch2             0044a5c8 f   oci:OCI.dll
 0001:000495ce       _OCIStmtExecute            0044a5ce f   oci:OCI.dll
 0001:000495d4       ?_Xlen@_String_base@std@@SAXXZ 0044a5d4 f   libcpmt:string.obj
 0001:00049613       ?_Xran@_String_base@std@@SAXXZ 0044a613 f   libcpmt:string.obj
 0001:00049652       ??0_Mutex@std@@QAE@XZ      0044a652 f   libcpmt:xmutex.obj
 0001:0004966a       ??1_Mutex@std@@QAE@XZ      0044a66a f   libcpmt:xmutex.obj
 0001:0004967f       ?_Lock@_Mutex@std@@QAEXXZ  0044a67f f   libcpmt:xmutex.obj
 0001:00049688       ?_Unlock@_Mutex@std@@QAEXXZ 0044a688 f   libcpmt:xmutex.obj
 0001:00049691       ?uncaught_exception@std@@YA_NXZ 0044a691 f   libcpmt:uncaught.obj
 0001:00049696       ??0_Init_cout@std@@QAE@XZ  0044a696 f i libcpmt:cout.obj
 0001:000496eb       __Tolower                  0044a6eb f   libcpmt:_tolower.obj
 0001:000497fa       __Getctype                 0044a7fa f   libcpmt:_tolower.obj
 0001:00049855       __Wcrtomb                  0044a855 f   libcpmt:xwctomb.obj
 0001:000498d6       __Getcvt                   0044a8d6 f   libcpmt:xwctomb.obj
 0001:000498ea       ??0_Init_locks@std@@QAE@XZ 0044a8ea f   libcpmt:xlock.obj
 0001:00049919       ??1_Init_locks@std@@QAE@XZ 0044a919 f   libcpmt:xlock.obj
 0001:00049942       ??0_Lockit@std@@QAE@H@Z    0044a942 f   libcpmt:xlock.obj
 0001:00049963       ??1_Lockit@std@@QAE@XZ     0044a963 f   libcpmt:xlock.obj
 0001:00049975       ??1_Fac_node@std@@QAE@XZ   0044a975 f i libcpmt:locale0.obj
 0001:0004998a       __Deletegloballocale       0044a98a f   libcpmt:locale0.obj
 0001:000499d0       ?_Getgloballocale@locale@std@@CAPAV_Locimp@12@XZ 0044a9d0 f   libcpmt:locale0.obj
 0001:000499d6       ?_Setgloballocale@locale@std@@CAXPAX@Z 0044a9d6 f   libcpmt:locale0.obj
 0001:000499fb       ?_Locimp_dtor@_Locimp@locale@std@@CAXPAV123@@Z 0044a9fb f   libcpmt:locale0.obj
 0001:00049a5b       __Fac_tidy                 0044aa5b f   libcpmt:locale0.obj
 0001:00049a9e       ?facet_Register@facet@locale@std@@CAXPAV123@@Z 0044aa9e f   libcpmt:locale0.obj
 0001:00049ad7       ?_Locinfo_dtor@_Locinfo@std@@SAXPAV12@@Z 0044aad7 f   libcpmt:locale0.obj
 0001:00049afa       ?_Init@locale@std@@CAPAV_Locimp@12@XZ 0044aafa f   libcpmt:locale0.obj
 0001:00049b94       ?_Locinfo_ctor@_Locinfo@std@@SAXPAV12@PBD@Z 0044ab94 f   libcpmt:locale0.obj
 0001:00049bde       ?_Callfns@ios_base@std@@AAEXW4event@12@@Z 0044abde f i libcpmt:ios.obj
 0001:00049c00       ?_Tidy@ios_base@std@@AAAXXZ 0044ac00 f i libcpmt:ios.obj
 0001:00049c46       ?_Addstd@ios_base@std@@SAXPAV12@@Z 0044ac46 f   libcpmt:ios.obj
 0001:00049c96       ?_Ios_base_dtor@ios_base@std@@CAXPAV12@@Z 0044ac96 f   libcpmt:ios.obj
 0001:00049cd4       __Toupper                  0044acd4 f   libcpmt:_toupper.obj
 0001:00049de8       ??_U@YAPAXI@Z              0044ade8 f   libcpmt:newaop.obj
 0001:00049ded       ?_Xfsopen@std@@YAPAU_iobuf@@PB_W0H@Z 0044aded f   libcpmt:fiopen.obj
 0001:00049ea2       ?_Fiopen@std@@YAPAU_iobuf@@PB_WHH@Z 0044aea2 f   libcpmt:fiopen.obj
 0001:00049f57       ?_Fiopen@std@@YAPAU_iobuf@@PBDHH@Z 0044af57 f   libcpmt:fiopen.obj
 0001:00049fbe       ?setw@std@@YA?AU?$_Smanip@H@1@H@Z 0044afbe f   libcpmt:iomanip.obj
 0001:00049fd0       ??0bad_alloc@std@@QAE@XZ   0044afd0 f i libcpmt:locale.obj
 0001:00049fe9       ??0?$ctype@D@std@@QAE@ABV_Locinfo@1@I@Z 0044afe9 f i libcpmt:locale.obj
 0001:0004a008       ?_Locimp_Addfac@_Locimp@locale@std@@CAXPAV123@PAVfacet@23@I@Z 0044b008 f   libcpmt:locale.obj
 0001:0004a0ed       ??0?$num_get@DV?$istreambuf_iterator@DU?$char_traits@D@std@@@std@@@std@@QAE@ABV_Locinfo@1@I@Z 0044b0ed f i libcpmt:locale.obj
 0001:0004a10e       ??0?$num_put@DV?$ostreambuf_iterator@DU?$char_traits@D@std@@@std@@@std@@QAE@ABV_Locinfo@1@I@Z 0044b10e f i libcpmt:locale.obj
 0001:0004a12f       ?global@locale@std@@SA?AV12@ABV12@@Z 0044b12f f   libcpmt:locale.obj
 0001:0004a1f8       ??0?$numpunct@D@std@@QAE@ABV_Locinfo@1@I@Z 0044b1f8 f i libcpmt:locale.obj
 0001:0004a22b       ?_Locinfo_Addcats@_Locinfo@std@@SAAAV12@PAV12@HPBD@Z 0044b22b f   libcpmt:locale.obj
 0001:0004a2b0       ?_Locinfo_ctor@_Locinfo@std@@SAXPAV12@HPBD@Z 0044b2b0 f   libcpmt:locale.obj
 0001:0004a2e5       ?_Makeloc@_Locimp@locale@std@@CAPAV123@ABV_Locinfo@3@HPAV123@PBV23@@Z 0044b2e5 f   libcpmt:locale.obj
 0001:0004a548       __Stoulx                   0044b548 f   libcpmt:xstoul.obj
 0001:0004a6de       __Stolx                    0044b6de f   libcpmt:xstol.obj
 0001:0004a781       __Stofx                    0044b781 f   libcpmt:xstof.obj
 0001:0004a7a1       __Stodx                    0044b7a1 f   libcpmt:xstod.obj
 0001:0004a808       __Stoldx                   0044b808 f   libcpmt:xstold.obj
 0001:0004a80d       ??0_Init_cin@std@@QAE@XZ   0044b80d f i libcpmt:cin.obj
 0001:0004a82f       __Mtxinit                  0044b82f f   libcpmt:xmtx.obj
 0001:0004a83a       __Mtxdst                   0044b83a f   libcpmt:xmtx.obj
 0001:0004a845       __Mtxlock                  0044b845 f   libcpmt:xmtx.obj
 0001:0004a850       __Mtxunlock                0044b850 f   libcpmt:xmtx.obj
 0001:0004a85b       ?_Atexit@@YAXP6AXXZ@Z      0044b85b f   libcpmt:iosptrs.obj
 0001:0004a87b       ??1_Init_atexit@@QAE@XZ    0044b87b f i libcpmt:iosptrs.obj
 0001:0004a8e0       __GetLocaleForCP           0044b8e0 f   libcpmt:xmbtowc.obj
 0001:0004a9c3       __Mbrtowc                  0044b9c3 f   libcpmt:xmbtowc.obj
 0001:0004ab34       ??1_Timevec@std@@QAE@XZ    0044bb34 f i libcpmt:wlocale.obj
 0001:0004ab3d       ?_Gettnames@_Locinfo@std@@QBE?AV_Timevec@2@XZ 0044bb3d f i libcpmt:wlocale.obj
 0001:0004ab55       ??$_Maklocchr@G@std@@YAGDPAGABU_Cvtvec@@@Z 0044bb55 f i libcpmt:wlocale.obj
 0001:0004ab55       ??$_Maklocchr@_W@std@@YA_WDPA_WABU_Cvtvec@@@Z 0044bb55 f i libcpmt:wlocale.obj
 0001:0004ab81       ??$_Maklocstr@_W@std@@YAPA_WPBDPA_WABU_Cvtvec@@@Z 0044bb81 f i libcpmt:wlocale.obj
 0001:0004ab81       ??$_Maklocstr@G@std@@YAPAGPBDPAGABU_Cvtvec@@@Z 0044bb81 f i libcpmt:wlocale.obj
 0001:0004ac1b       ?_Init@?$ctype@_W@std@@IAEXABV_Locinfo@2@@Z 0044bc1b f i libcpmt:wlocale.obj
 0001:0004ac1b       ?_Init@?$ctype@G@std@@IAEXABV_Locinfo@2@@Z 0044bc1b f i libcpmt:wlocale.obj
 0001:0004ac4d       ??1messages_base@std@@UAE@XZ 0044bc4d f i libcpmt:wlocale.obj
 0001:0004ac4d       ??1time_base@std@@UAE@XZ   0044bc4d f i libcpmt:wlocale.obj
 0001:0004ac4d       ??1money_base@std@@UAE@XZ  0044bc4d f i libcpmt:wlocale.obj
 0001:0004ac54       ?_Tidy@?$numpunct@G@std@@AAEXXZ 0044bc54 f i libcpmt:wlocale.obj
 0001:0004ac54       ?_Tidy@?$numpunct@_W@std@@AAEXXZ 0044bc54 f i libcpmt:wlocale.obj
 0001:0004ac74       ?_Tidy@?$time_get@GV?$istreambuf_iterator@GU?$char_traits@G@std@@@std@@@std@@AAEXXZ 0044bc74 f i libcpmt:wlocale.obj
 0001:0004ac74       ?_Tidy@?$time_get@DV?$istreambuf_iterator@DU?$char_traits@D@std@@@std@@@std@@AAEXXZ 0044bc74 f i libcpmt:xlocale.obj
 0001:0004ac74       ?_Tidy@?$time_get@_WV?$istreambuf_iterator@_WU?$char_traits@_W@std@@@std@@@std@@AAEXXZ 0044bc74 f i libcpmt:wlocale.obj
 0001:0004ac8b       ?_Tidy@?$_Mpunct@_W@std@@AAEXXZ 0044bc8b f i libcpmt:wlocale.obj
 0001:0004ac8b       ?_Tidy@?$_Mpunct@G@std@@AAEXXZ 0044bc8b f i libcpmt:wlocale.obj
 0001:0004ac8b       ?_Tidy@?$_Mpunct@D@std@@AAEXXZ 0044bc8b f i libcpmt:xlocale.obj
 0001:0004acb3       ??0?$codecvt@_WDH@std@@QAE@ABV_Locinfo@1@I@Z 0044bcb3 f i libcpmt:wlocale.obj
 0001:0004acd4       ?do_out@?$codecvt@GDH@std@@MBEHAAHPBG1AAPBGPAD3AAPAD@Z 0044bcd4 f i libcpmt:wlocale.obj
 0001:0004acd4       ?do_out@?$codecvt@_WDH@std@@MBEHAAHPB_W1AAPB_WPAD3AAPAD@Z 0044bcd4 f i libcpmt:wlocale.obj
 0001:0004adc6       ?do_unshift@?$codecvt@GDH@std@@MBEHAAHPAD1AAPAD@Z 0044bdc6 f i libcpmt:wlocale.obj
 0001:0004adc6       ?do_unshift@?$codecvt@_WDH@std@@MBEHAAHPAD1AAPAD@Z 0044bdc6 f i libcpmt:wlocale.obj
 0001:0004ae5a       ?do_length@?$codecvt@GDH@std@@MBEHABHPBD1I@Z 0044be5a f i libcpmt:wlocale.obj
 0001:0004ae5a       ?do_length@?$codecvt@_WDH@std@@MBEHABHPBD1I@Z 0044be5a f i libcpmt:wlocale.obj
 0001:0004aec9       ?do_always_noconv@?$codecvt@_WDH@std@@MBE_NXZ 0044bec9 f i libcpmt:wlocale.obj
 0001:0004aec9       ?do_always_noconv@?$codecvt@GDH@std@@MBE_NXZ 0044bec9 f i libcpmt:wlocale.obj
 0001:0004aecc       ?do_max_length@?$codecvt@GDH@std@@MBEHXZ 0044becc f i libcpmt:wlocale.obj
 0001:0004aecc       ?do_max_length@?$codecvt@_WDH@std@@MBEHXZ 0044becc f i libcpmt:wlocale.obj
 0001:0004aed0       ??_E?$money_get@DV?$istreambuf_iterator@DU?$char_traits@D@std@@@std@@@std@@MAEPAXI@Z 0044bed0 f i libcpmt:xlocale.obj
 0001:0004aed0       ??_E?$collate@G@std@@MAEPAXI@Z 0044bed0 f i libcpmt:wlocale.obj
 0001:0004aed0       ??_G?$num_get@GV?$istreambuf_iterator@GU?$char_traits@G@std@@@std@@@std@@MAEPAXI@Z 0044bed0 f i libcpmt:wlocale.obj
 0001:0004aed0       ??_G?$money_put@DV?$ostreambuf_iterator@DU?$char_traits@D@std@@@std@@@std@@MAEPAXI@Z 0044bed0 f i libcpmt:xlocale.obj
 0001:0004aed0       ??_G?$messages@_W@std@@MAEPAXI@Z 0044bed0 f i libcpmt:wlocale.obj
 0001:0004aed0       ??_E?$money_put@DV?$ostreambuf_iterator@DU?$char_traits@D@std@@@std@@@std@@MAEPAXI@Z 0044bed0 f i libcpmt:xlocale.obj
 0001:0004aed0       ??_E?$codecvt@_WDH@std@@MAEPAXI@Z 0044bed0 f i libcpmt:wlocale.obj
 0001:0004aed0       ??_E?$money_get@GV?$istreambuf_iterator@GU?$char_traits@G@std@@@std@@@std@@MAEPAXI@Z 0044bed0 f i libcpmt:wlocale.obj
 0001:0004aed0       ??_G?$num_put@_WV?$ostreambuf_iterator@_WU?$char_traits@_W@std@@@std@@@std@@MAEPAXI@Z 0044bed0 f i libcpmt:wlocale.obj
 0001:0004aed0       ??_E?$codecvt@GDH@std@@MAEPAXI@Z 0044bed0 f i libcpmt:wlocale.obj
 0001:0004aed0       ??_E?$messages@G@std@@MAEPAXI@Z 0044bed0 f i libcpmt:wlocale.obj
 0001:0004aed0       ??_G?$money_get@GV?$istreambuf_iterator@GU?$char_traits@G@std@@@std@@@std@@MAEPAXI@Z 0044bed0 f i libcpmt:wlocale.obj
 0001:0004aed0       ??_G?$money_get@DV?$istreambuf_iterator@DU?$char_traits@D@std@@@std@@@std@@MAEPAXI@Z 0044bed0 f i libcpmt:xlocale.obj
 0001:0004aed0       ??_G?$money_get@_WV?$istreambuf_iterator@_WU?$char_traits@_W@std@@@std@@@std@@MAEPAXI@Z 0044bed0 f i libcpmt:wlocale.obj
 0001:0004aed0       ??_G?$messages@D@std@@MAEPAXI@Z 0044bed0 f i libcpmt:xlocale.obj
 0001:0004aed0       ??_E?$num_get@GV?$istreambuf_iterator@GU?$char_traits@G@std@@@std@@@std@@MAEPAXI@Z 0044bed0 f i libcpmt:wlocale.obj
 0001:0004aed0       ??_E?$num_put@_WV?$ostreambuf_iterator@_WU?$char_traits@_W@std@@@std@@@std@@MAEPAXI@Z 0044bed0 f i libcpmt:wlocale.obj
 0001:0004aed0       ??_E?$money_put@GV?$ostreambuf_iterator@GU?$char_traits@G@std@@@std@@@std@@MAEPAXI@Z 0044bed0 f i libcpmt:wlocale.obj
 0001:0004aed0       ??_E?$num_put@GV?$ostreambuf_iterator@GU?$char_traits@G@std@@@std@@@std@@MAEPAXI@Z 0044bed0 f i libcpmt:wlocale.obj
 0001:0004aed0       ??_E?$collate@_W@std@@MAEPAXI@Z 0044bed0 f i libcpmt:wlocale.obj
 0001:0004aed0       ??_G?$money_put@GV?$ostreambuf_iterator@GU?$char_traits@G@std@@@std@@@std@@MAEPAXI@Z 0044bed0 f i libcpmt:wlocale.obj
 0001:0004aed0       ??_G?$collate@_W@std@@MAEPAXI@Z 0044bed0 f i libcpmt:wlocale.obj
 0001:0004aed0       ??_E?$messages@D@std@@MAEPAXI@Z 0044bed0 f i libcpmt:xlocale.obj
 0001:0004aed0       ??_G?$num_get@_WV?$istreambuf_iterator@_WU?$char_traits@_W@std@@@std@@@std@@MAEPAXI@Z 0044bed0 f i libcpmt:wlocale.obj
 0001:0004aed0       ??_E?$messages@_W@std@@MAEPAXI@Z 0044bed0 f i libcpmt:wlocale.obj
 0001:0004aed0       ??_E?$collate@D@std@@MAEPAXI@Z 0044bed0 f i libcpmt:xlocale.obj
 0001:0004aed0       ??_G?$codecvt@GDH@std@@MAEPAXI@Z 0044bed0 f i libcpmt:wlocale.obj
 0001:0004aed0       ??_G?$collate@G@std@@MAEPAXI@Z 0044bed0 f i libcpmt:wlocale.obj
 0001:0004aed0       ??_G?$codecvt@_WDH@std@@MAEPAXI@Z 0044bed0 f i libcpmt:wlocale.obj
 0001:0004aed0       ??_G?$messages@G@std@@MAEPAXI@Z 0044bed0 f i libcpmt:wlocale.obj
 0001:0004aed0       ??_E?$money_put@_WV?$ostreambuf_iterator@_WU?$char_traits@_W@std@@@std@@@std@@MAEPAXI@Z 0044bed0 f i libcpmt:wlocale.obj
 0001:0004aed0       ??_G?$money_put@_WV?$ostreambuf_iterator@_WU?$char_traits@_W@std@@@std@@@std@@MAEPAXI@Z 0044bed0 f i libcpmt:wlocale.obj
 0001:0004aed0       ??_E?$num_get@_WV?$istreambuf_iterator@_WU?$char_traits@_W@std@@@std@@@std@@MAEPAXI@Z 0044bed0 f i libcpmt:wlocale.obj
 0001:0004aed0       ??_E?$money_get@_WV?$istreambuf_iterator@_WU?$char_traits@_W@std@@@std@@@std@@MAEPAXI@Z 0044bed0 f i libcpmt:wlocale.obj
 0001:0004aed0       ??_G?$num_put@GV?$ostreambuf_iterator@GU?$char_traits@G@std@@@std@@@std@@MAEPAXI@Z 0044bed0 f i libcpmt:wlocale.obj
 0001:0004aed0       ??_G?$collate@D@std@@MAEPAXI@Z 0044bed0 f i libcpmt:xlocale.obj
 0001:0004aeed       ??0?$codecvt@GDH@std@@QAE@ABV_Locinfo@1@I@Z 0044beed f i libcpmt:wlocale.obj
 0001:0004af0e       ?do_in@?$codecvt@GDH@std@@MBEHAAHPBD1AAPBDPAG3AAPAG@Z 0044bf0e f i libcpmt:wlocale.obj
 0001:0004af0e       ?do_in@?$codecvt@_WDH@std@@MBEHAAHPBD1AAPBDPA_W3AAPA_W@Z 0044bf0e f i libcpmt:wlocale.obj
 0001:0004afa2       ___init_dummy              0044bfa2 f i LIBCMT:setlocal.obj
 0001:0004afa2       ?do_encoding@?$codecvt@GDH@std@@MBEHXZ 0044bfa2 f i libcpmt:wlocale.obj
 0001:0004afa2       ?do_encoding@?$codecvt@_WDH@std@@MBEHXZ 0044bfa2 f i libcpmt:wlocale.obj
 0001:0004afa2       ___init_collate            0044bfa2 f i LIBCMT:initcoll.obj
 0001:0004afa5       ??0?$ctype@_W@std@@QAE@ABV_Locinfo@1@I@Z 0044bfa5 f i libcpmt:wlocale.obj
 0001:0004afc4       ??1?$ctype@_W@std@@MAE@XZ  0044bfc4 f i libcpmt:wlocale.obj
 0001:0004afe4       ?do_is@?$ctype@_W@std@@MBE_NF_W@Z 0044bfe4 f i libcpmt:wlocale.obj
 0001:0004afe4       ?do_is@?$ctype@G@std@@MBE_NFG@Z 0044bfe4 f i libcpmt:wlocale.obj
 0001:0004b002       ?do_is@?$ctype@_W@std@@MBEPB_WPB_W0PAF@Z 0044c002 f i libcpmt:wlocale.obj
 0001:0004b002       ?do_is@?$ctype@G@std@@MBEPBGPBG0PAF@Z 0044c002 f i libcpmt:wlocale.obj
 0001:0004b01d       ?do_scan_not@?$ctype@G@std@@MBEPBGFPBG0@Z 0044c01d f i libcpmt:wlocale.obj
 0001:0004b01d       ?do_scan_not@?$ctype@_W@std@@MBEPB_WFPB_W0@Z 0044c01d f i libcpmt:wlocale.obj
 0001:0004b049       ?do_tolower@?$ctype@_W@std@@MBEPB_WPA_WPB_W@Z 0044c049 f i libcpmt:wlocale.obj
 0001:0004b049       ?do_tolower@?$ctype@G@std@@MBEPBGPAGPBG@Z 0044c049 f i libcpmt:wlocale.obj
 0001:0004b076       ?_Dowiden@?$ctype@G@std@@IBEGD@Z 0044c076 f i libcpmt:wlocale.obj
 0001:0004b076       ?_Dowiden@?$ctype@_W@std@@IBE_WD@Z 0044c076 f i libcpmt:wlocale.obj
 0001:0004b0aa       ?do_widen@?$ctype@_W@std@@MBE_WD@Z 0044c0aa f i libcpmt:wlocale.obj
 0001:0004b0aa       ?do_widen@?$ctype@G@std@@MBEGD@Z 0044c0aa f i libcpmt:wlocale.obj
 0001:0004b0af       ?do_widen@?$ctype@G@std@@MBEPBDPBD0PAG@Z 0044c0af f i libcpmt:wlocale.obj
 0001:0004b0af       ?do_widen@?$ctype@_W@std@@MBEPBDPBD0PA_W@Z 0044c0af f i libcpmt:wlocale.obj
 0001:0004b0cb       ?_Do_widen_s@?$ctype@G@std@@MBEPBDPBD0PAGI@Z 0044c0cb f i libcpmt:wlocale.obj
 0001:0004b0cb       ?_Do_widen_s@?$ctype@_W@std@@MBEPBDPBD0PA_WI@Z 0044c0cb f i libcpmt:wlocale.obj
 0001:0004b10c       ?_Donarrow@?$ctype@G@std@@IBEDGD@Z 0044c10c f i libcpmt:wlocale.obj
 0001:0004b10c       ?_Donarrow@?$ctype@_W@std@@IBED_WD@Z 0044c10c f i libcpmt:wlocale.obj
 0001:0004b152       ?do_narrow@?$ctype@_W@std@@MBED_WD@Z 0044c152 f i libcpmt:wlocale.obj
 0001:0004b152       ?do_narrow@?$ctype@G@std@@MBEDGD@Z 0044c152 f i libcpmt:wlocale.obj
 0001:0004b157       ?do_narrow@?$ctype@_W@std@@MBEPB_WPB_W0DPAD@Z 0044c157 f i libcpmt:wlocale.obj
 0001:0004b157       ?do_narrow@?$ctype@G@std@@MBEPBGPBG0DPAD@Z 0044c157 f i libcpmt:wlocale.obj
 0001:0004b178       ??_G?$ctype@_W@std@@MAEPAXI@Z 0044c178 f i libcpmt:wlocale.obj
 0001:0004b178       ??_E?$ctype@_W@std@@MAEPAXI@Z 0044c178 f i libcpmt:wlocale.obj
 0001:0004b194       ??0?$ctype@G@std@@QAE@ABV_Locinfo@1@I@Z 0044c194 f i libcpmt:wlocale.obj
 0001:0004b1b3       ??1?$ctype@G@std@@MAE@XZ   0044c1b3 f i libcpmt:wlocale.obj
 0001:0004b1d3       ?do_scan_is@?$ctype@G@std@@MBEPBGFPBG0@Z 0044c1d3 f i libcpmt:wlocale.obj
 0001:0004b1d3       ?do_scan_is@?$ctype@_W@std@@MBEPB_WFPB_W0@Z 0044c1d3 f i libcpmt:wlocale.obj
 0001:0004b1ff       ?do_tolower@?$ctype@_W@std@@MBE_W_W@Z 0044c1ff f i libcpmt:wlocale.obj
 0001:0004b1ff       ?do_tolower@?$ctype@G@std@@MBEGG@Z 0044c1ff f i libcpmt:wlocale.obj
 0001:0004b211       ?do_toupper@?$ctype@G@std@@MBEGG@Z 0044c211 f i libcpmt:wlocale.obj
 0001:0004b211       ?do_toupper@?$ctype@_W@std@@MBE_W_W@Z 0044c211 f i libcpmt:wlocale.obj
 0001:0004b223       ?do_toupper@?$ctype@_W@std@@MBEPB_WPA_WPB_W@Z 0044c223 f i libcpmt:wlocale.obj
 0001:0004b223       ?do_toupper@?$ctype@G@std@@MBEPBGPAGPBG@Z 0044c223 f i libcpmt:wlocale.obj
 0001:0004b250       ?_Do_narrow_s@?$ctype@G@std@@MBEPBGPBG0DPADI@Z 0044c250 f i libcpmt:wlocale.obj
 0001:0004b250       ?_Do_narrow_s@?$ctype@_W@std@@MBEPB_WPB_W0DPADI@Z 0044c250 f i libcpmt:wlocale.obj
 0001:0004b295       ??_G?$ctype@G@std@@MAEPAXI@Z 0044c295 f i libcpmt:wlocale.obj
 0001:0004b295       ??_E?$ctype@G@std@@MAEPAXI@Z 0044c295 f i libcpmt:wlocale.obj
 0001:0004b2b1       ??0?$time_put@_WV?$ostreambuf_iterator@_WU?$char_traits@_W@std@@@std@@@std@@QAE@ABV_Locinfo@1@I@Z 0044c2b1 f i libcpmt:wlocale.obj
 0001:0004b2d4       ??1?$time_put@_WV?$ostreambuf_iterator@_WU?$char_traits@_W@std@@@std@@@std@@MAE@XZ 0044c2d4 f i libcpmt:wlocale.obj
 0001:0004b2ee       ??_E?$time_put@_WV?$ostreambuf_iterator@_WU?$char_traits@_W@std@@@std@@@std@@MAEPAXI@Z 0044c2ee f i libcpmt:wlocale.obj
 0001:0004b2ee       ??_G?$time_put@_WV?$ostreambuf_iterator@_WU?$char_traits@_W@std@@@std@@@std@@MAEPAXI@Z 0044c2ee f i libcpmt:wlocale.obj
 0001:0004b30a       ??0?$num_get@_WV?$istreambuf_iterator@_WU?$char_traits@_W@std@@@std@@@std@@QAE@ABV_Locinfo@1@I@Z 0044c30a f i libcpmt:wlocale.obj
 0001:0004b32b       ??$_Maklocbyte@_W@std@@YAD_WABU_Cvtvec@@@Z 0044c32b f i libcpmt:wlocale.obj
 0001:0004b32b       ??$_Maklocbyte@G@std@@YADGABU_Cvtvec@@@Z 0044c32b f i libcpmt:wlocale.obj
 0001:0004b353       ?sgetc@?$basic_streambuf@GU?$char_traits@G@std@@@std@@QAEGXZ 0044c353 f i libcpmt:wlocale.obj
 0001:0004b353       ?sgetc@?$basic_streambuf@_WU?$char_traits@_W@std@@@std@@QAEGXZ 0044c353 f i libcpmt:wlocale.obj
 0001:0004b377       ??0?$num_put@_WV?$ostreambuf_iterator@_WU?$char_traits@_W@std@@@std@@@std@@QAE@ABV_Locinfo@1@I@Z 0044c377 f i libcpmt:wlocale.obj
 0001:0004b398       ??0?$collate@_W@std@@QAE@ABV_Locinfo@1@I@Z 0044c398 f i libcpmt:wlocale.obj
 0001:0004b3b9       ?do_compare@?$collate@_W@std@@MBEHPB_W000@Z 0044c3b9 f i libcpmt:wlocale.obj
 0001:0004b3d8       ??D?$_String_const_iterator@_WU?$char_traits@_W@std@@V?$allocator@_W@2@@std@@QBEAB_WXZ 0044c3d8 f i libcpmt:wlocale.obj
 0001:0004b3d8       ??D?$_String_const_iterator@GU?$char_traits@G@std@@V?$allocator@G@2@@std@@QBEABGXZ 0044c3d8 f i libcpmt:wlocale.obj
 0001:0004b410       ?do_open@?$messages@_W@std@@MBEHABV?$basic_string@DU?$char_traits@D@std@@V?$allocator@D@2@@2@ABVlocale@2@@Z 0044c410 f i libcpmt:wlocale.obj
 0001:0004b410       ?do_open@?$messages@D@std@@MBEHABV?$basic_string@DU?$char_traits@D@std@@V?$allocator@D@2@@2@ABVlocale@2@@Z 0044c410 f i libcpmt:xlocale.obj
 0001:0004b410       ?do_open@?$messages@G@std@@MBEHABV?$basic_string@DU?$char_traits@D@std@@V?$allocator@D@2@@2@ABVlocale@2@@Z 0044c410 f i libcpmt:wlocale.obj
 0001:0004b416       ??0?$money_get@_WV?$istreambuf_iterator@_WU?$char_traits@_W@std@@@std@@@std@@QAE@ABV_Locinfo@1@I@Z 0044c416 f i libcpmt:wlocale.obj
 0001:0004b437       ??0?$money_put@_WV?$ostreambuf_iterator@_WU?$char_traits@_W@std@@@std@@@std@@QAE@ABV_Locinfo@1@I@Z 0044c437 f i libcpmt:wlocale.obj
 0001:0004b458       ??1?$_Mpunct@_W@std@@MAE@XZ 0044c458 f i libcpmt:wlocale.obj
 0001:0004b46e       ?do_frac_digits@?$_Mpunct@_W@std@@MBEHXZ 0044c46e f i libcpmt:wlocale.obj
 0001:0004b46e       ?do_frac_digits@?$_Mpunct@G@std@@MBEHXZ 0044c46e f i libcpmt:wlocale.obj
 0001:0004b46e       ?do_frac_digits@?$_Mpunct@D@std@@MBEHXZ 0044c46e f i libcpmt:xlocale.obj
 0001:0004b472       ??0?$num_get@GV?$istreambuf_iterator@GU?$char_traits@G@std@@@std@@@std@@QAE@ABV_Locinfo@1@I@Z 0044c472 f i libcpmt:wlocale.obj
 0001:0004b493       ?_Copy_s@?$char_traits@G@std@@SAPAGPAGIPBGI@Z 0044c493 f i libcpmt:wlocale.obj
 0001:0004b4af       ??$_Allocate@G@std@@YAPAGIPAG@Z 0044c4af f i libcpmt:wlocale.obj
 0001:0004b4fc       ??0?$num_put@GV?$ostreambuf_iterator@GU?$char_traits@G@std@@@std@@@std@@QAE@ABV_Locinfo@1@I@Z 0044c4fc f i libcpmt:wlocale.obj
 0001:0004b51d       ?_Move_s@?$char_traits@G@std@@SAPAGPAGIPBGI@Z 0044c51d f i libcpmt:wlocale.obj
 0001:0004b539       ?_Ffmt@?$num_put@GV?$ostreambuf_iterator@GU?$char_traits@G@std@@@std@@@std@@ABAPADPADDH@Z 0044c539 f i libcpmt:wlocale.obj
 0001:0004b539       ?_Ffmt@?$num_put@_WV?$ostreambuf_iterator@_WU?$char_traits@_W@std@@@std@@@std@@ABAPADPADDH@Z 0044c539 f i libcpmt:wlocale.obj
 0001:0004b594       ?_Ifmt@?$num_put@GV?$ostreambuf_iterator@GU?$char_traits@G@std@@@std@@@std@@ABAPADPADPBDH@Z 0044c594 f i libcpmt:wlocale.obj
 0001:0004b594       ?_Ifmt@?$num_put@_WV?$ostreambuf_iterator@_WU?$char_traits@_W@std@@@std@@@std@@ABAPADPADPBDH@Z 0044c594 f i libcpmt:wlocale.obj
 0001:0004b608       ??0?$collate@G@std@@QAE@ABV_Locinfo@1@I@Z 0044c608 f i libcpmt:wlocale.obj
 0001:0004b629       ?do_hash@?$collate@G@std@@MBEJPBG0@Z 0044c629 f i libcpmt:wlocale.obj
 0001:0004b629       ?do_hash@?$collate@_W@std@@MBEJPB_W0@Z 0044c629 f i libcpmt:wlocale.obj
 0001:0004b644       ??0?$_String_const_iterator@_WU?$char_traits@_W@std@@V?$allocator@_W@2@@std@@QAE@PB_WPBU_Container_base@1@@Z 0044c644 f i libcpmt:wlocale.obj
 0001:0004b644       ??0?$_String_const_iterator@GU?$char_traits@G@std@@V?$allocator@G@2@@std@@QAE@PBGPBU_Container_base@1@@Z 0044c644 f i libcpmt:wlocale.obj
 0001:0004b694       ??$_LStrcoll@G@std@@YAHPBG000PBU_Collvec@@@Z 0044c694 f i libcpmt:wlocale.obj
 0001:0004b6d5       ??$_LStrxfrm@G@std@@YAIPAG0PBG1PBU_Collvec@@@Z 0044c6d5 f i libcpmt:wlocale.obj
 0001:0004b707       ?do_compare@?$collate@G@std@@MBEHPBG000@Z 0044c707 f i libcpmt:wlocale.obj
 0001:0004b726       ??0?$money_get@GV?$istreambuf_iterator@GU?$char_traits@G@std@@@std@@@std@@QAE@ABV_Locinfo@1@I@Z 0044c726 f i libcpmt:wlocale.obj
 0001:0004b747       ??E?$_String_const_iterator@_WU?$char_traits@_W@std@@V?$allocator@_W@2@@std@@QAEAAV01@XZ 0044c747 f i libcpmt:wlocale.obj
 0001:0004b747       ??E?$_String_const_iterator@GU?$char_traits@G@std@@V?$allocator@G@2@@std@@QAEAAV01@XZ 0044c747 f i libcpmt:wlocale.obj
 0001:0004b782       ??8?$_String_const_iterator@_WU?$char_traits@_W@std@@V?$allocator@_W@2@@std@@QBE_NABV01@@Z 0044c782 f i libcpmt:wlocale.obj
 0001:0004b782       ??8?$_String_const_iterator@GU?$char_traits@G@std@@V?$allocator@G@2@@std@@QBE_NABV01@@Z 0044c782 f i libcpmt:wlocale.obj
 0001:0004b7ae       ??0?$money_put@GV?$ostreambuf_iterator@GU?$char_traits@G@std@@@std@@@std@@QAE@ABV_Locinfo@1@I@Z 0044c7ae f i libcpmt:wlocale.obj
 0001:0004b7cf       ?_Inside@?$basic_string@GU?$char_traits@G@std@@V?$allocator@G@2@@std@@IAE_NPBG@Z 0044c7cf f i libcpmt:wlocale.obj
 0001:0004b7cf       ?_Inside@?$basic_string@_WU?$char_traits@_W@std@@V?$allocator@_W@2@@std@@IAE_NPB_W@Z 0044c7cf f i libcpmt:wlocale.obj
 0001:0004b804       ??Y?$_String_const_iterator@_WU?$char_traits@_W@std@@V?$allocator@_W@2@@std@@QAEAAV01@H@Z 0044c804 f i libcpmt:wlocale.obj
 0001:0004b804       ??Y?$_String_const_iterator@GU?$char_traits@G@std@@V?$allocator@G@2@@std@@QAEAAV01@H@Z 0044c804 f i libcpmt:wlocale.obj
 0001:0004b862       ??1?$_Mpunct@G@std@@MAE@XZ 0044c862 f i libcpmt:wlocale.obj
 0001:0004b878       ??0?$time_put@GV?$ostreambuf_iterator@GU?$char_traits@G@std@@@std@@@std@@QAE@ABV_Locinfo@1@I@Z 0044c878 f i libcpmt:wlocale.obj
 0001:0004b89b       ??1?$time_put@GV?$ostreambuf_iterator@GU?$char_traits@G@std@@@std@@@std@@MAE@XZ 0044c89b f i libcpmt:wlocale.obj
 0001:0004b8b5       ??_G?$time_put@GV?$ostreambuf_iterator@GU?$char_traits@G@std@@@std@@@std@@MAEPAXI@Z 0044c8b5 f i libcpmt:wlocale.obj
 0001:0004b8b5       ??_E?$time_put@GV?$ostreambuf_iterator@GU?$char_traits@G@std@@@std@@@std@@MAEPAXI@Z 0044c8b5 f i libcpmt:wlocale.obj
 0001:0004b8d1       ??_E?$_Mpunct@_W@std@@MAEPAXI@Z 0044c8d1 f i libcpmt:wlocale.obj
 0001:0004b8d1       ??_G?$_Mpunct@_W@std@@MAEPAXI@Z 0044c8d1 f i libcpmt:wlocale.obj
 0001:0004b8ed       ??_G?$_Mpunct@G@std@@MAEPAXI@Z 0044c8ed f i libcpmt:wlocale.obj
 0001:0004b8ed       ??_E?$_Mpunct@G@std@@MAEPAXI@Z 0044c8ed f i libcpmt:wlocale.obj
 0001:0004b909       ?sbumpc@?$basic_streambuf@GU?$char_traits@G@std@@@std@@QAEGXZ 0044c909 f i libcpmt:wlocale.obj
 0001:0004b909       ?sbumpc@?$basic_streambuf@_WU?$char_traits@_W@std@@@std@@QAEGXZ 0044c909 f i libcpmt:wlocale.obj
 0001:0004b93a       ?sputc@?$basic_streambuf@GU?$char_traits@G@std@@@std@@QAEGG@Z 0044c93a f i libcpmt:wlocale.obj
 0001:0004b93a       ?sputc@?$basic_streambuf@_WU?$char_traits@_W@std@@@std@@QAEG_W@Z 0044c93a f i libcpmt:wlocale.obj
 0001:0004b976       ??4?$ostreambuf_iterator@_WU?$char_traits@_W@std@@@std@@QAEAAV01@_W@Z 0044c976 f i libcpmt:wlocale.obj
 0001:0004b976       ??4?$ostreambuf_iterator@GU?$char_traits@G@std@@@std@@QAEAAV01@G@Z 0044c976 f i libcpmt:wlocale.obj
 0001:0004b999       ?_Init@?$numpunct@_W@std@@IAEXABV_Locinfo@2@@Z 0044c999 f i libcpmt:wlocale.obj
 0001:0004ba73       ?_Put@?$num_put@_WV?$ostreambuf_iterator@_WU?$char_traits@_W@std@@@std@@@std@@ABA?AV?$ostreambuf_iterator@_WU?$char_traits@_W@std@@@2@V32@PB_WI@Z 0044ca73 f i libcpmt:wlocale.obj
 0001:0004ba73       ?_Put@?$num_put@GV?$ostreambuf_iterator@GU?$char_traits@G@std@@@std@@@std@@ABA?AV?$ostreambuf_iterator@GU?$char_traits@G@std@@@2@V32@PBGI@Z 0044ca73 f i libcpmt:wlocale.obj
 0001:0004baa7       ?_Rep@?$num_put@_WV?$ostreambuf_iterator@_WU?$char_traits@_W@std@@@std@@@std@@ABA?AV?$ostreambuf_iterator@_WU?$char_traits@_W@std@@@2@V32@_WI@Z 0044caa7 f i libcpmt:wlocale.obj
 0001:0004baa7       ?_Rep@?$num_put@GV?$ostreambuf_iterator@GU?$char_traits@G@std@@@std@@@std@@ABA?AV?$ostreambuf_iterator@GU?$char_traits@G@std@@@2@V32@GI@Z 0044caa7 f i libcpmt:wlocale.obj
 0001:0004bad1       ?_Init@?$numpunct@G@std@@IAEXABV_Locinfo@2@@Z 0044cad1 f i libcpmt:wlocale.obj
 0001:0004bbab       ??A?$basic_string@GU?$char_traits@G@std@@V?$allocator@G@2@@std@@QAEAAGI@Z 0044cbab f i libcpmt:wlocale.obj
 0001:0004bbd3       ??Y?$_String_const_iterator@DU?$char_traits@D@std@@V?$allocator@D@2@@std@@QAEAAV01@H@Z 0044cbd3 f i libcpmt:wlocale.obj
 0001:0004bc2c       ?_Put@?$money_put@GV?$ostreambuf_iterator@GU?$char_traits@G@std@@@std@@@std@@CA?AV?$ostreambuf_iterator@GU?$char_traits@G@std@@@2@V32@V?$_String_const_iterator@GU?$char_traits@G@std@@V?$allocator@G@2@@2@I@Z 0044cc2c f i libcpmt:wlocale.obj
 0001:0004bc2c       ?_Put@?$money_put@_WV?$ostreambuf_iterator@_WU?$char_traits@_W@std@@@std@@@std@@CA?AV?$ostreambuf_iterator@_WU?$char_traits@_W@std@@@2@V32@V?$_String_const_iterator@_WU?$char_traits@_W@std@@V?$allocator@_W@2@@2@I@Z 0044cc2c f i libcpmt:wlocale.obj
 0001:0004bc67       ?_Rep@?$money_put@_WV?$ostreambuf_iterator@_WU?$char_traits@_W@std@@@std@@@std@@CA?AV?$ostreambuf_iterator@_WU?$char_traits@_W@std@@@2@V32@_WI@Z 0044cc67 f i libcpmt:wlocale.obj
 0001:0004bc67       ?_Rep@?$money_put@GV?$ostreambuf_iterator@GU?$char_traits@G@std@@@std@@@std@@CA?AV?$ostreambuf_iterator@GU?$char_traits@G@std@@@2@V32@GI@Z 0044cc67 f i libcpmt:wlocale.obj
 0001:0004bc91       ?_Init@?$_Mpunct@_W@std@@IAEXABV_Locinfo@2@@Z 0044cc91 f i libcpmt:wlocale.obj
 0001:0004bdc6       ?_Putc@?$num_put@_WV?$ostreambuf_iterator@_WU?$char_traits@_W@std@@@std@@@std@@ABA?AV?$ostreambuf_iterator@_WU?$char_traits@_W@std@@@2@V32@PBDI@Z 0044cdc6 f i libcpmt:wlocale.obj
 0001:0004bdc6       ?_Putc@?$num_put@GV?$ostreambuf_iterator@GU?$char_traits@G@std@@@std@@@std@@ABA?AV?$ostreambuf_iterator@GU?$char_traits@G@std@@@2@V32@PBDI@Z 0044cdc6 f i libcpmt:wlocale.obj
 0001:0004be0b       ?_Putgrouped@?$num_put@_WV?$ostreambuf_iterator@_WU?$char_traits@_W@std@@@std@@@std@@ABA?AV?$ostreambuf_iterator@_WU?$char_traits@_W@std@@@2@V32@PBDI_W@Z 0044ce0b f i libcpmt:wlocale.obj
 0001:0004be0b       ?_Putgrouped@?$num_put@GV?$ostreambuf_iterator@GU?$char_traits@G@std@@@std@@@std@@ABA?AV?$ostreambuf_iterator@GU?$char_traits@G@std@@@2@V32@PBDIG@Z 0044ce0b f i libcpmt:wlocale.obj
 0001:0004bea0       ?_Chassign@?$basic_string@GU?$char_traits@G@std@@V?$allocator@G@2@@std@@IAEXIIG@Z 0044cea0 f i libcpmt:wlocale.obj
 0001:0004beeb       ?_Eos@?$basic_string@GU?$char_traits@G@std@@V?$allocator@G@2@@std@@IAEXI@Z 0044ceeb f i libcpmt:wlocale.obj
 0001:0004bf08       ?_Init@?$_Mpunct@G@std@@IAEXABV_Locinfo@2@@Z 0044cf08 f i libcpmt:wlocale.obj
 0001:0004c03d       ?_Peek@?$istreambuf_iterator@_WU?$char_traits@_W@std@@@std@@AAE_WXZ 0044d03d f i libcpmt:wlocale.obj
 0001:0004c03d       ?_Peek@?$istreambuf_iterator@GU?$char_traits@G@std@@@std@@AAEGXZ 0044d03d f i libcpmt:wlocale.obj
 0001:0004c069       ?_Inc@?$istreambuf_iterator@_WU?$char_traits@_W@std@@@std@@AAEXXZ 0044d069 f i libcpmt:wlocale.obj
 0001:0004c069       ?_Inc@?$istreambuf_iterator@GU?$char_traits@G@std@@@std@@AAEXXZ 0044d069 f i libcpmt:wlocale.obj
 0001:0004c08e       ?equal@?$istreambuf_iterator@GU?$char_traits@G@std@@@std@@QBE_NABV12@@Z 0044d08e f i libcpmt:wlocale.obj
 0001:0004c08e       ?equal@?$istreambuf_iterator@_WU?$char_traits@_W@std@@@std@@QBE_NABV12@@Z 0044d08e f i libcpmt:wlocale.obj
 0001:0004c0d0       ??0?$numpunct@_W@std@@QAE@ABV_Locinfo@1@I@Z 0044d0d0 f i libcpmt:wlocale.obj
 0001:0004c103       ?do_decimal_point@?$numpunct@_W@std@@MBE_WXZ 0044d103 f i libcpmt:wlocale.obj
 0001:0004c103       ?do_decimal_point@?$numpunct@G@std@@MBEGXZ 0044d103 f i libcpmt:wlocale.obj
 0001:0004c103       ?do_decimal_point@?$_Mpunct@_W@std@@MBE_WXZ 0044d103 f i libcpmt:wlocale.obj
 0001:0004c103       ?do_decimal_point@?$_Mpunct@G@std@@MBEGXZ 0044d103 f i libcpmt:wlocale.obj
 0001:0004c108       ?do_thousands_sep@?$_Mpunct@_W@std@@MBE_WXZ 0044d108 f i libcpmt:wlocale.obj
 0001:0004c108       ?do_thousands_sep@?$numpunct@_W@std@@MBE_WXZ 0044d108 f i libcpmt:wlocale.obj
 0001:0004c108       ?do_thousands_sep@?$_Mpunct@G@std@@MBEGXZ 0044d108 f i libcpmt:wlocale.obj
 0001:0004c108       ?do_thousands_sep@?$numpunct@G@std@@MBEGXZ 0044d108 f i libcpmt:wlocale.obj
 0001:0004c10d       ??1?$numpunct@_W@std@@MAE@XZ 0044d10d f i libcpmt:wlocale.obj
 0001:0004c123       ??_E?$numpunct@_W@std@@MAEPAXI@Z 0044d123 f i libcpmt:wlocale.obj
 0001:0004c123       ??_G?$numpunct@_W@std@@MAEPAXI@Z 0044d123 f i libcpmt:wlocale.obj
 0001:0004c13f       ??0?$numpunct@G@std@@QAE@ABV_Locinfo@1@I@Z 0044d13f f i libcpmt:wlocale.obj
 0001:0004c172       ??1?$numpunct@G@std@@MAE@XZ 0044d172 f i libcpmt:wlocale.obj
 0001:0004c188       ??_G?$numpunct@G@std@@MAEPAXI@Z 0044d188 f i libcpmt:wlocale.obj
 0001:0004c188       ??_E?$numpunct@G@std@@MAEPAXI@Z 0044d188 f i libcpmt:wlocale.obj
 0001:0004c1a4       ??0?$_Mpunct@_W@std@@QAE@ABV_Locinfo@1@I_N@Z 0044d1a4 f i libcpmt:wlocale.obj
 0001:0004c1dd       ?begin@?$basic_string@_WU?$char_traits@_W@std@@V?$allocator@_W@2@@std@@QAE?AV?$_String_iterator@_WU?$char_traits@_W@std@@V?$allocator@_W@2@@2@XZ 0044d1dd f i libcpmt:wlocale.obj
 0001:0004c1dd       ?begin@?$basic_string@GU?$char_traits@G@std@@V?$allocator@G@2@@std@@QAE?AV?$_String_iterator@GU?$char_traits@G@std@@V?$allocator@G@2@@2@XZ 0044d1dd f i libcpmt:wlocale.obj
 0001:0004c1fd       ??0?$_Mpunct@G@std@@QAE@ABV_Locinfo@1@I_N@Z 0044d1fd f i libcpmt:wlocale.obj
 0001:0004c236       ??H?$_String_iterator@DU?$char_traits@D@std@@V?$allocator@D@2@@std@@QBE?AV01@H@Z 0044d236 f i libcpmt:wlocale.obj
 0001:0004c263       ??D?$istreambuf_iterator@GU?$char_traits@G@std@@@std@@QBEGXZ 0044d263 f i libcpmt:wlocale.obj
 0001:0004c263       ??D?$istreambuf_iterator@_WU?$char_traits@_W@std@@@std@@QBE_WXZ 0044d263 f i libcpmt:wlocale.obj
 0001:0004c277       ?erase@?$basic_string@GU?$char_traits@G@std@@V?$allocator@G@2@@std@@QAEAAV12@II@Z 0044d277 f i libcpmt:wlocale.obj
 0001:0004c2f7       ?end@?$basic_string@GU?$char_traits@G@std@@V?$allocator@G@2@@std@@QAE?AV?$_String_iterator@GU?$char_traits@G@std@@V?$allocator@G@2@@2@XZ 0044d2f7 f i libcpmt:wlocale.obj
 0001:0004c2f7       ?end@?$basic_string@_WU?$char_traits@_W@std@@V?$allocator@_W@2@@std@@QAE?AV?$_String_iterator@_WU?$char_traits@_W@std@@V?$allocator@_W@2@@2@XZ 0044d2f7 f i libcpmt:wlocale.obj
 0001:0004c31d       ?_Tidy@?$basic_string@GU?$char_traits@G@std@@V?$allocator@G@2@@std@@IAEX_NI@Z 0044d31d f i libcpmt:wlocale.obj
 0001:0004c368       ??G?$_String_iterator@GU?$char_traits@G@std@@V?$allocator@G@2@@std@@QBE?AV01@H@Z 0044d368 f i libcpmt:wlocale.obj
 0001:0004c368       ??G?$_String_iterator@_WU?$char_traits@_W@std@@V?$allocator@_W@2@@std@@QBE?AV01@H@Z 0044d368 f i libcpmt:wlocale.obj
 0001:0004c398       ??H?$_String_iterator@GU?$char_traits@G@std@@V?$allocator@G@2@@std@@QBE?AV01@H@Z 0044d398 f i libcpmt:wlocale.obj
 0001:0004c398       ??H?$_String_iterator@_WU?$char_traits@_W@std@@V?$allocator@_W@2@@std@@QBE?AV01@H@Z 0044d398 f i libcpmt:wlocale.obj
 0001:0004c3c5       ?_Copy@?$basic_string@GU?$char_traits@G@std@@V?$allocator@G@2@@std@@IAEXII@Z 0044d3c5 f i libcpmt:wlocale.obj
 0001:0004c4ac       ??0?$moneypunct@_W$0A@@std@@QAE@ABV_Locinfo@1@I@Z 0044d4ac f i libcpmt:wlocale.obj
 0001:0004c4ca       ??_G?$moneypunct@_W$0A@@std@@MAEPAXI@Z 0044d4ca f i libcpmt:wlocale.obj
 0001:0004c4ca       ??_E?$moneypunct@_W$0A@@std@@MAEPAXI@Z 0044d4ca f i libcpmt:wlocale.obj
 0001:0004c4ec       ??0?$moneypunct@_W$00@std@@QAE@ABV_Locinfo@1@I@Z 0044d4ec f i libcpmt:wlocale.obj
 0001:0004c50a       ??_E?$moneypunct@_W$00@std@@MAEPAXI@Z 0044d50a f i libcpmt:wlocale.obj
 0001:0004c50a       ??_G?$moneypunct@_W$00@std@@MAEPAXI@Z 0044d50a f i libcpmt:wlocale.obj
 0001:0004c52c       ??0?$moneypunct@G$0A@@std@@QAE@ABV_Locinfo@1@I@Z 0044d52c f i libcpmt:wlocale.obj
 0001:0004c54a       ??_G?$moneypunct@G$0A@@std@@MAEPAXI@Z 0044d54a f i libcpmt:wlocale.obj
 0001:0004c54a       ??_E?$moneypunct@G$0A@@std@@MAEPAXI@Z 0044d54a f i libcpmt:wlocale.obj
 0001:0004c56c       ??0?$moneypunct@G$00@std@@QAE@ABV_Locinfo@1@I@Z 0044d56c f i libcpmt:wlocale.obj
 0001:0004c58a       ??_G?$moneypunct@G$00@std@@MAEPAXI@Z 0044d58a f i libcpmt:wlocale.obj
 0001:0004c58a       ??_E?$moneypunct@G$00@std@@MAEPAXI@Z 0044d58a f i libcpmt:wlocale.obj
 0001:0004c5ac       ??0?$basic_string@_WU?$char_traits@_W@std@@V?$allocator@_W@2@@std@@QAE@XZ 0044d5ac f i libcpmt:wlocale.obj
 0001:0004c5c1       ??0?$basic_string@GU?$char_traits@G@std@@V?$allocator@G@2@@std@@QAE@XZ 0044d5c1 f i libcpmt:wlocale.obj
 0001:0004c5d6       ??1?$basic_string@GU?$char_traits@G@std@@V?$allocator@G@2@@std@@QAE@XZ 0044d5d6 f i libcpmt:wlocale.obj
 0001:0004c5e0       ?negative_sign@?$_Mpunct@_W@std@@QBE?AV?$basic_string@_WU?$char_traits@_W@std@@V?$allocator@_W@2@@2@XZ 0044d5e0 f i libcpmt:wlocale.obj
 0001:0004c5e0       ?negative_sign@?$_Mpunct@G@std@@QBE?AV?$basic_string@GU?$char_traits@G@std@@V?$allocator@G@2@@2@XZ 0044d5e0 f i libcpmt:wlocale.obj
 0001:0004c5e0       ?negative_sign@?$_Mpunct@D@std@@QBE?AV?$basic_string@DU?$char_traits@D@std@@V?$allocator@D@2@@2@XZ 0044d5e0 f i libcpmt:xlocale.obj
 0001:0004c5f7       ?_Grow@?$basic_string@GU?$char_traits@G@std@@V?$allocator@G@2@@std@@IAE_NI_N@Z 0044d5f7 f i libcpmt:wlocale.obj
 0001:0004c658       ?grouping@?$_Mpunct@G@std@@QBE?AV?$basic_string@DU?$char_traits@D@std@@V?$allocator@D@2@@2@XZ 0044d658 f i libcpmt:wlocale.obj
 0001:0004c658       ?grouping@?$_Mpunct@_W@std@@QBE?AV?$basic_string@DU?$char_traits@D@std@@V?$allocator@D@2@@2@XZ 0044d658 f i libcpmt:wlocale.obj
 0001:0004c658       ?grouping@?$_Mpunct@D@std@@QBE?AV?$basic_string@DU?$char_traits@D@std@@V?$allocator@D@2@@2@XZ 0044d658 f i libcpmt:xlocale.obj
 0001:0004c658       ?grouping@?$numpunct@_W@std@@QBE?AV?$basic_string@DU?$char_traits@D@std@@V?$allocator@D@2@@2@XZ 0044d658 f i libcpmt:wlocale.obj
 0001:0004c658       ?grouping@?$numpunct@G@std@@QBE?AV?$basic_string@DU?$char_traits@D@std@@V?$allocator@D@2@@2@XZ 0044d658 f i libcpmt:wlocale.obj
 0001:0004c66f       ?append@?$basic_string@_WU?$char_traits@_W@std@@V?$allocator@_W@2@@std@@QAEAAV12@ABV12@II@Z 0044d66f f i libcpmt:wlocale.obj
 0001:0004c718       ?append@?$basic_string@GU?$char_traits@G@std@@V?$allocator@G@2@@std@@QAEAAV12@ABV12@II@Z 0044d718 f i libcpmt:wlocale.obj
 0001:0004c7c1       ?append@?$basic_string@_WU?$char_traits@_W@std@@V?$allocator@_W@2@@std@@QAEAAV12@I_W@Z 0044d7c1 f i libcpmt:wlocale.obj
 0001:0004c80f       ?falsename@?$numpunct@_W@std@@QBE?AV?$basic_string@_WU?$char_traits@_W@std@@V?$allocator@_W@2@@2@XZ 0044d80f f i libcpmt:wlocale.obj
 0001:0004c80f       ?curr_symbol@?$_Mpunct@D@std@@QBE?AV?$basic_string@DU?$char_traits@D@std@@V?$allocator@D@2@@2@XZ 0044d80f f i libcpmt:xlocale.obj
 0001:0004c80f       ?curr_symbol@?$_Mpunct@G@std@@QBE?AV?$basic_string@GU?$char_traits@G@std@@V?$allocator@G@2@@2@XZ 0044d80f f i libcpmt:wlocale.obj
 0001:0004c80f       ?curr_symbol@?$_Mpunct@_W@std@@QBE?AV?$basic_string@_WU?$char_traits@_W@std@@V?$allocator@_W@2@@2@XZ 0044d80f f i libcpmt:wlocale.obj
 0001:0004c80f       ?falsename@?$numpunct@G@std@@QBE?AV?$basic_string@GU?$char_traits@G@std@@V?$allocator@G@2@@2@XZ 0044d80f f i libcpmt:wlocale.obj
 0001:0004c826       ?positive_sign@?$_Mpunct@G@std@@QBE?AV?$basic_string@GU?$char_traits@G@std@@V?$allocator@G@2@@2@XZ 0044d826 f i libcpmt:wlocale.obj
 0001:0004c826       ?truename@?$numpunct@_W@std@@QBE?AV?$basic_string@_WU?$char_traits@_W@std@@V?$allocator@_W@2@@2@XZ 0044d826 f i libcpmt:wlocale.obj
 0001:0004c826       ?truename@?$numpunct@G@std@@QBE?AV?$basic_string@GU?$char_traits@G@std@@V?$allocator@G@2@@2@XZ 0044d826 f i libcpmt:wlocale.obj
 0001:0004c826       ?positive_sign@?$_Mpunct@D@std@@QBE?AV?$basic_string@DU?$char_traits@D@std@@V?$allocator@D@2@@2@XZ 0044d826 f i libcpmt:xlocale.obj
 0001:0004c826       ?positive_sign@?$_Mpunct@_W@std@@QBE?AV?$basic_string@_WU?$char_traits@_W@std@@V?$allocator@_W@2@@2@XZ 0044d826 f i libcpmt:wlocale.obj
 0001:0004c83d       ?append@?$basic_string@GU?$char_traits@G@std@@V?$allocator@G@2@@std@@QAEAAV12@IG@Z 0044d83d f i libcpmt:wlocale.obj
 0001:0004c88b       ?assign@?$basic_string@_WU?$char_traits@_W@std@@V?$allocator@_W@2@@std@@QAEAAV12@PB_WI@Z 0044d88b f i libcpmt:wlocale.obj
 0001:0004c8ff       ?assign@?$basic_string@_WU?$char_traits@_W@std@@V?$allocator@_W@2@@std@@QAEAAV12@PB_W@Z 0044d8ff f i libcpmt:wlocale.obj
 0001:0004c91c       ?insert@?$basic_string@_WU?$char_traits@_W@std@@V?$allocator@_W@2@@std@@QAEAAV12@II_W@Z 0044d91c f i libcpmt:wlocale.obj
 0001:0004c9ba       ?resize@?$basic_string@_WU?$char_traits@_W@std@@V?$allocator@_W@2@@std@@QAEXI_W@Z 0044d9ba f i libcpmt:wlocale.obj
 0001:0004c9de       ?assign@?$basic_string@GU?$char_traits@G@std@@V?$allocator@G@2@@std@@QAEAAV12@ABV12@II@Z 0044d9de f i libcpmt:wlocale.obj
 0001:0004ca71       ?assign@?$basic_string@GU?$char_traits@G@std@@V?$allocator@G@2@@std@@QAEAAV12@PBGI@Z 0044da71 f i libcpmt:wlocale.obj
 0001:0004cae5       ?assign@?$basic_string@GU?$char_traits@G@std@@V?$allocator@G@2@@std@@QAEAAV12@PBG@Z 0044dae5 f i libcpmt:wlocale.obj
 0001:0004cb02       ?assign@?$basic_string@GU?$char_traits@G@std@@V?$allocator@G@2@@std@@QAEAAV12@IG@Z 0044db02 f i libcpmt:wlocale.obj
 0001:0004cb3f       ?insert@?$basic_string@GU?$char_traits@G@std@@V?$allocator@G@2@@std@@QAEAAV12@IIG@Z 0044db3f f i libcpmt:wlocale.obj
 0001:0004cbdd       ?resize@?$basic_string@GU?$char_traits@G@std@@V?$allocator@G@2@@std@@QAEXIG@Z 0044dbdd f i libcpmt:wlocale.obj
 0001:0004cc01       ??$_Getloctxt@_WV?$istreambuf_iterator@_WU?$char_traits@_W@std@@@std@@@std@@YAHAAV?$istreambuf_iterator@_WU?$char_traits@_W@std@@@0@0IPB_W@Z 0044dc01 f i libcpmt:wlocale.obj
 0001:0004cd62       ??$_Getloctxt@GV?$istreambuf_iterator@GU?$char_traits@G@std@@@std@@@std@@YAHAAV?$istreambuf_iterator@GU?$char_traits@G@std@@@0@0IPBG@Z 0044dd62 f i libcpmt:wlocale.obj
 0001:0004cec3       ?do_put@?$time_put@_WV?$ostreambuf_iterator@_WU?$char_traits@_W@std@@@std@@@std@@MBE?AV?$ostreambuf_iterator@_WU?$char_traits@_W@std@@@2@V32@AAVios_base@2@_WPBUtm@@DD@Z 0044dec3 f i libcpmt:wlocale.obj
 0001:0004d00a       ?do_put@?$time_put@GV?$ostreambuf_iterator@GU?$char_traits@G@std@@@std@@@std@@MBE?AV?$ostreambuf_iterator@GU?$char_traits@G@std@@@2@V32@AAVios_base@2@GPBUtm@@DD@Z 0044e00a f i libcpmt:wlocale.obj
 0001:0004d151       ??0?$basic_string@_WU?$char_traits@_W@std@@V?$allocator@_W@2@@std@@QAE@PB_WI@Z 0044e151 f i libcpmt:wlocale.obj
 0001:0004d177       ??0?$basic_string@_WU?$char_traits@_W@std@@V?$allocator@_W@2@@std@@QAE@PB_W@Z 0044e177 f i libcpmt:wlocale.obj
 0001:0004d199       ??0?$basic_string@GU?$char_traits@G@std@@V?$allocator@G@2@@std@@QAE@PBGI@Z 0044e199 f i libcpmt:wlocale.obj
 0001:0004d1bf       ??0?$basic_string@GU?$char_traits@G@std@@V?$allocator@G@2@@std@@QAE@PBG@Z 0044e1bf f i libcpmt:wlocale.obj
 0001:0004d1e1       ??0?$basic_string@GU?$char_traits@G@std@@V?$allocator@G@2@@std@@QAE@IG@Z 0044e1e1 f i libcpmt:wlocale.obj
 0001:0004d207       ??0?$basic_string@GU?$char_traits@G@std@@V?$allocator@G@2@@std@@QAE@ABV01@@Z 0044e207 f i libcpmt:wlocale.obj
 0001:0004d22d       ?do_positive_sign@?$_Mpunct@_W@std@@MBE?AV?$basic_string@_WU?$char_traits@_W@std@@V?$allocator@_W@2@@2@XZ 0044e22d f i libcpmt:wlocale.obj
 0001:0004d22d       ?do_truename@?$numpunct@_W@std@@MBE?AV?$basic_string@_WU?$char_traits@_W@std@@V?$allocator@_W@2@@2@XZ 0044e22d f i libcpmt:wlocale.obj
 0001:0004d247       ?do_transform@?$collate@_W@std@@MBE?AV?$basic_string@_WU?$char_traits@_W@std@@V?$allocator@_W@2@@2@PB_W0@Z 0044e247 f i libcpmt:wlocale.obj
 0001:0004d2f5       ?do_get@?$messages@_W@std@@MBE?AV?$basic_string@_WU?$char_traits@_W@std@@V?$allocator@_W@2@@2@HHHABV32@@Z 0044e2f5 f i libcpmt:wlocale.obj
 0001:0004d30f       ?do_curr_symbol@?$_Mpunct@_W@std@@MBE?AV?$basic_string@_WU?$char_traits@_W@std@@V?$allocator@_W@2@@2@XZ 0044e30f f i libcpmt:wlocale.obj
 0001:0004d30f       ?do_falsename@?$numpunct@_W@std@@MBE?AV?$basic_string@_WU?$char_traits@_W@std@@V?$allocator@_W@2@@2@XZ 0044e30f f i libcpmt:wlocale.obj
 0001:0004d329       ?do_negative_sign@?$_Mpunct@_W@std@@MBE?AV?$basic_string@_WU?$char_traits@_W@std@@V?$allocator@_W@2@@2@XZ 0044e329 f i libcpmt:wlocale.obj
 0001:0004d343       ?do_falsename@?$numpunct@G@std@@MBE?AV?$basic_string@GU?$char_traits@G@std@@V?$allocator@G@2@@2@XZ 0044e343 f i libcpmt:wlocale.obj
 0001:0004d343       ?do_curr_symbol@?$_Mpunct@G@std@@MBE?AV?$basic_string@GU?$char_traits@G@std@@V?$allocator@G@2@@2@XZ 0044e343 f i libcpmt:wlocale.obj
 0001:0004d35d       ?do_transform@?$collate@G@std@@MBE?AV?$basic_string@GU?$char_traits@G@std@@V?$allocator@G@2@@2@PBG0@Z 0044e35d f i libcpmt:wlocale.obj
 0001:0004d40b       ?do_get@?$messages@G@std@@MBE?AV?$basic_string@GU?$char_traits@G@std@@V?$allocator@G@2@@2@HHHABV32@@Z 0044e40b f i libcpmt:wlocale.obj
 0001:0004d425       ?do_positive_sign@?$_Mpunct@G@std@@MBE?AV?$basic_string@GU?$char_traits@G@std@@V?$allocator@G@2@@2@XZ 0044e425 f i libcpmt:wlocale.obj
 0001:0004d425       ?do_truename@?$numpunct@G@std@@MBE?AV?$basic_string@GU?$char_traits@G@std@@V?$allocator@G@2@@2@XZ 0044e425 f i libcpmt:wlocale.obj
 0001:0004d43f       ?do_negative_sign@?$_Mpunct@G@std@@MBE?AV?$basic_string@GU?$char_traits@G@std@@V?$allocator@G@2@@2@XZ 0044e43f f i libcpmt:wlocale.obj
 0001:0004d459       ?_Getdays@_Locinfo@std@@QBEPBDXZ 0044e459 f i libcpmt:wlocale.obj
 0001:0004d496       ?_Getmonths@_Locinfo@std@@QBEPBDXZ 0044e496 f i libcpmt:wlocale.obj
 0001:0004d4d3       ??0?$codecvt@_WDH@std@@QAE@I@Z 0044e4d3 f i libcpmt:wlocale.obj
 0001:0004d527       ?_Getcat@?$codecvt@_WDH@std@@SAIPAPBVfacet@locale@2@@Z 0044e527 f i libcpmt:wlocale.obj
 0001:0004d56a       ??0?$codecvt@GDH@std@@QAE@I@Z 0044e56a f i libcpmt:wlocale.obj
 0001:0004d5be       ?_Getcat@?$codecvt@GDH@std@@SAIPAPBVfacet@locale@2@@Z 0044e5be f i libcpmt:wlocale.obj
 0001:0004d601       ??0?$ctype@_W@std@@QAE@I@Z 0044e601 f i libcpmt:wlocale.obj
 0001:0004d658       ?_Getcat@?$ctype@_W@std@@SAIPAPBVfacet@locale@2@@Z 0044e658 f i libcpmt:wlocale.obj
 0001:0004d69b       ??0?$ctype@G@std@@QAE@I@Z  0044e69b f i libcpmt:wlocale.obj
 0001:0004d6f2       ?_Getcat@?$ctype@G@std@@SAIPAPBVfacet@locale@2@@Z 0044e6f2 f i libcpmt:wlocale.obj
 0001:0004d735       ??0?$time_put@_WV?$ostreambuf_iterator@_WU?$char_traits@_W@std@@@std@@@std@@QAE@I@Z 0044e735 f i libcpmt:wlocale.obj
 0001:0004d794       ??0?$num_get@_WV?$istreambuf_iterator@_WU?$char_traits@_W@std@@@std@@@std@@QAE@I@Z 0044e794 f i libcpmt:wlocale.obj
 0001:0004d7e8       ??0?$num_put@_WV?$ostreambuf_iterator@_WU?$char_traits@_W@std@@@std@@@std@@QAE@I@Z 0044e7e8 f i libcpmt:wlocale.obj
 0001:0004d83c       ??0?$numpunct@_W@std@@QAE@I@Z 0044e83c f i libcpmt:wlocale.obj
 0001:0004d8cd       ??0?$collate@_W@std@@QAE@I@Z 0044e8cd f i libcpmt:wlocale.obj
 0001:0004d921       ??0?$messages@_W@std@@QAE@I@Z 0044e921 f i libcpmt:wlocale.obj
 0001:0004d96a       ??0?$money_get@_WV?$istreambuf_iterator@_WU?$char_traits@_W@std@@@std@@@std@@QAE@I@Z 0044e96a f i libcpmt:wlocale.obj
 0001:0004d9be       ??0?$money_put@_WV?$ostreambuf_iterator@_WU?$char_traits@_W@std@@@std@@@std@@QAE@I@Z 0044e9be f i libcpmt:wlocale.obj
 0001:0004da12       ?_Init@?$time_get@_WV?$istreambuf_iterator@_WU?$char_traits@_W@std@@@std@@@std@@IAEXABV_Locinfo@2@@Z 0044ea12 f i libcpmt:wlocale.obj
 0001:0004da89       ??0?$num_get@GV?$istreambuf_iterator@GU?$char_traits@G@std@@@std@@@std@@QAE@I@Z 0044ea89 f i libcpmt:wlocale.obj
 0001:0004dadd       ??0?$num_put@GV?$ostreambuf_iterator@GU?$char_traits@G@std@@@std@@@std@@QAE@I@Z 0044eadd f i libcpmt:wlocale.obj
 0001:0004db31       ??0?$numpunct@G@std@@QAE@I@Z 0044eb31 f i libcpmt:wlocale.obj
 0001:0004dbc2       ??0?$collate@G@std@@QAE@I@Z 0044ebc2 f i libcpmt:wlocale.obj
 0001:0004dc16       ??0?$messages@G@std@@QAE@I@Z 0044ec16 f i libcpmt:wlocale.obj
 0001:0004dc5f       ??0?$money_get@GV?$istreambuf_iterator@GU?$char_traits@G@std@@@std@@@std@@QAE@I@Z 0044ec5f f i libcpmt:wlocale.obj
 0001:0004dcb3       ??0?$money_put@GV?$ostreambuf_iterator@GU?$char_traits@G@std@@@std@@@std@@QAE@I@Z 0044ecb3 f i libcpmt:wlocale.obj
 0001:0004dd07       ?_Init@?$time_get@GV?$istreambuf_iterator@GU?$char_traits@G@std@@@std@@@std@@IAEXABV_Locinfo@2@@Z 0044ed07 f i libcpmt:wlocale.obj
 0001:0004dd7e       ??0?$time_put@GV?$ostreambuf_iterator@GU?$char_traits@G@std@@@std@@@std@@QAE@I@Z 0044ed7e f i libcpmt:wlocale.obj
 0001:0004dddd       ??0?$_Mpunct@_W@std@@QAE@I_N@Z 0044eddd f i libcpmt:wlocale.obj
 0001:0004de42       ??0?$_Mpunct@G@std@@QAE@I_N@Z 0044ee42 f i libcpmt:wlocale.obj
 0001:0004dea7       ??$use_facet@V?$ctype@_W@std@@@std@@YAABV?$ctype@_W@0@ABVlocale@0@@Z 0044eea7 f i libcpmt:wlocale.obj
 0001:0004df40       ??$use_facet@V?$ctype@G@std@@@std@@YAABV?$ctype@G@0@ABVlocale@0@@Z 0044ef40 f i libcpmt:wlocale.obj
 0001:0004dfd9       ??$use_facet@V?$codecvt@_WDH@std@@@std@@YAABV?$codecvt@_WDH@0@ABVlocale@0@@Z 0044efd9 f i libcpmt:wlocale.obj
 0001:0004e072       ??$use_facet@V?$codecvt@GDH@std@@@std@@YAABV?$codecvt@GDH@0@ABVlocale@0@@Z 0044f072 f i libcpmt:wlocale.obj
 0001:0004e10b       ?_Getcat@?$time_put@_WV?$ostreambuf_iterator@_WU?$char_traits@_W@std@@@std@@@std@@SAIPAPBVfacet@locale@2@@Z 0044f10b f i libcpmt:wlocale.obj
 0001:0004e14e       ?_Getcat@?$num_get@_WV?$istreambuf_iterator@_WU?$char_traits@_W@std@@@std@@@std@@SAIPAPBVfacet@locale@2@@Z 0044f14e f i libcpmt:wlocale.obj
 0001:0004e191       ?_Getcat@?$num_put@_WV?$ostreambuf_iterator@_WU?$char_traits@_W@std@@@std@@@std@@SAIPAPBVfacet@locale@2@@Z 0044f191 f i libcpmt:wlocale.obj
 0001:0004e1d4       ?_Getcat@?$numpunct@_W@std@@SAIPAPBVfacet@locale@2@@Z 0044f1d4 f i libcpmt:wlocale.obj
 0001:0004e217       ?_Getcat@?$collate@_W@std@@SAIPAPBVfacet@locale@2@@Z 0044f217 f i libcpmt:wlocale.obj
 0001:0004e25a       ?_Getcat@?$messages@_W@std@@SAIPAPBVfacet@locale@2@@Z 0044f25a f i libcpmt:wlocale.obj
 0001:0004e29d       ?_Getcat@?$money_get@_WV?$istreambuf_iterator@_WU?$char_traits@_W@std@@@std@@@std@@SAIPAPBVfacet@locale@2@@Z 0044f29d f i libcpmt:wlocale.obj
 0001:0004e2e0       ?_Getcat@?$money_put@_WV?$ostreambuf_iterator@_WU?$char_traits@_W@std@@@std@@@std@@SAIPAPBVfacet@locale@2@@Z 0044f2e0 f i libcpmt:wlocale.obj
 0001:0004e323       ??0?$time_get@_WV?$istreambuf_iterator@_WU?$char_traits@_W@std@@@std@@@std@@QAE@ABV_Locinfo@1@I@Z 0044f323 f i libcpmt:wlocale.obj
 0001:0004e356       ?get_monthname@?$time_get@DV?$istreambuf_iterator@DU?$char_traits@D@std@@@std@@@std@@QBE?AV?$istreambuf_iterator@DU?$char_traits@D@std@@@2@V32@0AAVios_base@2@AAHPAUtm@@@Z 0044f356 f i libcpmt:xlocale.obj
 0001:0004e356       ?get_monthname@?$time_get@GV?$istreambuf_iterator@GU?$char_traits@G@std@@@std@@@std@@QBE?AV?$istreambuf_iterator@GU?$char_traits@G@std@@@2@V32@0AAVios_base@2@AAHPAUtm@@@Z 0044f356 f i libcpmt:wlocale.obj
 0001:0004e356       ?get_monthname@?$time_get@_WV?$istreambuf_iterator@_WU?$char_traits@_W@std@@@std@@@std@@QBE?AV?$istreambuf_iterator@_WU?$char_traits@_W@std@@@2@V32@0AAVios_base@2@AAHPAUtm@@@Z 0044f356 f i libcpmt:wlocale.obj
 0001:0004e38b       ?get_year@?$time_get@GV?$istreambuf_iterator@GU?$char_traits@G@std@@@std@@@std@@QBE?AV?$istreambuf_iterator@GU?$char_traits@G@std@@@2@V32@0AAVios_base@2@AAHPAUtm@@@Z 0044f38b f i libcpmt:wlocale.obj
 0001:0004e38b       ?get_year@?$time_get@_WV?$istreambuf_iterator@_WU?$char_traits@_W@std@@@std@@@std@@QBE?AV?$istreambuf_iterator@_WU?$char_traits@_W@std@@@2@V32@0AAVios_base@2@AAHPAUtm@@@Z 0044f38b f i libcpmt:wlocale.obj
 0001:0004e38b       ?get_year@?$time_get@DV?$istreambuf_iterator@DU?$char_traits@D@std@@@std@@@std@@QBE?AV?$istreambuf_iterator@DU?$char_traits@D@std@@@2@V32@0AAVios_base@2@AAHPAUtm@@@Z 0044f38b f i libcpmt:xlocale.obj
 0001:0004e3c0       ??1?$time_get@_WV?$istreambuf_iterator@_WU?$char_traits@_W@std@@@std@@@std@@MAE@XZ 0044f3c0 f i libcpmt:wlocale.obj
 0001:0004e3d6       ??_E?$time_get@_WV?$istreambuf_iterator@_WU?$char_traits@_W@std@@@std@@@std@@MAEPAXI@Z 0044f3d6 f i libcpmt:wlocale.obj
 0001:0004e3d6       ??_G?$time_get@_WV?$istreambuf_iterator@_WU?$char_traits@_W@std@@@std@@@std@@MAEPAXI@Z 0044f3d6 f i libcpmt:wlocale.obj
 0001:0004e3f2       ?do_get_weekday@?$time_get@_WV?$istreambuf_iterator@_WU?$char_traits@_W@std@@@std@@@std@@MBE?AV?$istreambuf_iterator@_WU?$char_traits@_W@std@@@2@V32@0AAVios_base@2@AAHPAUtm@@@Z 0044f3f2 f i libcpmt:wlocale.obj
 0001:0004e431       ?do_get_monthname@?$time_get@_WV?$istreambuf_iterator@_WU?$char_traits@_W@std@@@std@@@std@@MBE?AV?$istreambuf_iterator@_WU?$char_traits@_W@std@@@2@V32@0AAVios_base@2@AAHPAUtm@@@Z 0044f431 f i libcpmt:wlocale.obj
 0001:0004e470       ?_Getcat@?$num_get@GV?$istreambuf_iterator@GU?$char_traits@G@std@@@std@@@std@@SAIPAPBVfacet@locale@2@@Z 0044f470 f i libcpmt:wlocale.obj
 0001:0004e4b3       ?_Getcat@?$num_put@GV?$ostreambuf_iterator@GU?$char_traits@G@std@@@std@@@std@@SAIPAPBVfacet@locale@2@@Z 0044f4b3 f i libcpmt:wlocale.obj
 0001:0004e4f6       ?_Getcat@?$numpunct@G@std@@SAIPAPBVfacet@locale@2@@Z 0044f4f6 f i libcpmt:wlocale.obj
 0001:0004e539       ?_Getcat@?$collate@G@std@@SAIPAPBVfacet@locale@2@@Z 0044f539 f i libcpmt:wlocale.obj
 0001:0004e57c       ?_Getcat@?$messages@G@std@@SAIPAPBVfacet@locale@2@@Z 0044f57c f i libcpmt:wlocale.obj
 0001:0004e5bf       ?_Getcat@?$money_get@GV?$istreambuf_iterator@GU?$char_traits@G@std@@@std@@@std@@SAIPAPBVfacet@locale@2@@Z 0044f5bf f i libcpmt:wlocale.obj
 0001:0004e602       ?_Getcat@?$money_put@GV?$ostreambuf_iterator@GU?$char_traits@G@std@@@std@@@std@@SAIPAPBVfacet@locale@2@@Z 0044f602 f i libcpmt:wlocale.obj
 0001:0004e645       ??0?$time_get@GV?$istreambuf_iterator@GU?$char_traits@G@std@@@std@@@std@@QAE@ABV_Locinfo@1@I@Z 0044f645 f i libcpmt:wlocale.obj
 0001:0004e678       ?do_date_order@?$time_get@DV?$istreambuf_iterator@DU?$char_traits@D@std@@@std@@@std@@MBE?AW4dateorder@time_base@2@XZ 0044f678 f i libcpmt:xlocale.obj
 0001:0004e678       ?do_date_order@?$time_get@_WV?$istreambuf_iterator@_WU?$char_traits@_W@std@@@std@@@std@@MBE?AW4dateorder@time_base@2@XZ 0044f678 f i libcpmt:wlocale.obj
 0001:0004e678       ?do_date_order@?$time_get@GV?$istreambuf_iterator@GU?$char_traits@G@std@@@std@@@std@@MBE?AW4dateorder@time_base@2@XZ 0044f678 f i libcpmt:wlocale.obj
 0001:0004e67c       ??1?$time_get@GV?$istreambuf_iterator@GU?$char_traits@G@std@@@std@@@std@@MAE@XZ 0044f67c f i libcpmt:wlocale.obj
 0001:0004e692       ??_E?$time_get@GV?$istreambuf_iterator@GU?$char_traits@G@std@@@std@@@std@@MAEPAXI@Z 0044f692 f i libcpmt:wlocale.obj
 0001:0004e692       ??_G?$time_get@GV?$istreambuf_iterator@GU?$char_traits@G@std@@@std@@@std@@MAEPAXI@Z 0044f692 f i libcpmt:wlocale.obj
 0001:0004e6ae       ?_Getint@?$time_get@GV?$istreambuf_iterator@GU?$char_traits@G@std@@@std@@@std@@ABAHAAV?$istreambuf_iterator@GU?$char_traits@G@std@@@2@0HHAAH@Z 0044f6ae f i libcpmt:wlocale.obj
 0001:0004e6ae       ?_Getint@?$time_get@_WV?$istreambuf_iterator@_WU?$char_traits@_W@std@@@std@@@std@@ABAHAAV?$istreambuf_iterator@_WU?$char_traits@_W@std@@@2@0HHAAH@Z 0044f6ae f i libcpmt:wlocale.obj
 0001:0004e843       ?do_get_time@?$time_get@_WV?$istreambuf_iterator@_WU?$char_traits@_W@std@@@std@@@std@@MBE?AV?$istreambuf_iterator@_WU?$char_traits@_W@std@@@2@V32@0AAVios_base@2@AAHPAUtm@@@Z 0044f843 f i libcpmt:wlocale.obj
 0001:0004e843       ?do_get_time@?$time_get@GV?$istreambuf_iterator@GU?$char_traits@G@std@@@std@@@std@@MBE?AV?$istreambuf_iterator@GU?$char_traits@G@std@@@2@V32@0AAVios_base@2@AAHPAUtm@@@Z 0044f843 f i libcpmt:wlocale.obj
 0001:0004e916       ?do_get_date@?$time_get@GV?$istreambuf_iterator@GU?$char_traits@G@std@@@std@@@std@@MBE?AV?$istreambuf_iterator@GU?$char_traits@G@std@@@2@V32@0AAVios_base@2@AAHPAUtm@@@Z 0044f916 f i libcpmt:wlocale.obj
 0001:0004e916       ?do_get_date@?$time_get@_WV?$istreambuf_iterator@_WU?$char_traits@_W@std@@@std@@@std@@MBE?AV?$istreambuf_iterator@_WU?$char_traits@_W@std@@@2@V32@0AAVios_base@2@AAHPAUtm@@@Z 0044f916 f i libcpmt:wlocale.obj
 0001:0004ed9f       ?do_get_year@?$time_get@_WV?$istreambuf_iterator@_WU?$char_traits@_W@std@@@std@@@std@@MBE?AV?$istreambuf_iterator@_WU?$char_traits@_W@std@@@2@V32@0AAVios_base@2@AAHPAUtm@@@Z 0044fd9f f i libcpmt:wlocale.obj
 0001:0004ed9f       ?do_get_year@?$time_get@GV?$istreambuf_iterator@GU?$char_traits@G@std@@@std@@@std@@MBE?AV?$istreambuf_iterator@GU?$char_traits@G@std@@@2@V32@0AAVios_base@2@AAHPAUtm@@@Z 0044fd9f f i libcpmt:wlocale.obj
 0001:0004ee0c       ?do_get_weekday@?$time_get@GV?$istreambuf_iterator@GU?$char_traits@G@std@@@std@@@std@@MBE?AV?$istreambuf_iterator@GU?$char_traits@G@std@@@2@V32@0AAVios_base@2@AAHPAUtm@@@Z 0044fe0c f i libcpmt:wlocale.obj
 0001:0004ee4b       ?do_get_monthname@?$time_get@GV?$istreambuf_iterator@GU?$char_traits@G@std@@@std@@@std@@MBE?AV?$istreambuf_iterator@GU?$char_traits@G@std@@@2@V32@0AAVios_base@2@AAHPAUtm@@@Z 0044fe4b f i libcpmt:wlocale.obj
 0001:0004ee8a       ?_Getcat@?$time_put@GV?$ostreambuf_iterator@GU?$char_traits@G@std@@@std@@@std@@SAIPAPBVfacet@locale@2@@Z 0044fe8a f i libcpmt:wlocale.obj
 0001:0004eecd       ??0?$moneypunct@_W$0A@@std@@QAE@I@Z 0044fecd f i libcpmt:wlocale.obj
 0001:0004eee7       ??0?$moneypunct@_W$00@std@@QAE@I@Z 0044fee7 f i libcpmt:wlocale.obj
 0001:0004ef01       ??0?$time_get@_WV?$istreambuf_iterator@_WU?$char_traits@_W@std@@@std@@@std@@QAE@I@Z 0044ff01 f i libcpmt:wlocale.obj
 0001:0004ef60       ??0?$moneypunct@G$0A@@std@@QAE@I@Z 0044ff60 f i libcpmt:wlocale.obj
 0001:0004ef7a       ??0?$moneypunct@G$00@std@@QAE@I@Z 0044ff7a f i libcpmt:wlocale.obj
 0001:0004ef94       ??0?$time_get@GV?$istreambuf_iterator@GU?$char_traits@G@std@@@std@@@std@@QAE@I@Z 0044ff94 f i libcpmt:wlocale.obj
 0001:0004eff3       ??$use_facet@V?$num_get@_WV?$istreambuf_iterator@_WU?$char_traits@_W@std@@@std@@@std@@@std@@YAABV?$num_get@_WV?$istreambuf_iterator@_WU?$char_traits@_W@std@@@std@@@0@ABVlocale@0@@Z 0044fff3 f i libcpmt:wlocale.obj
 0001:0004f08c       ??$use_facet@V?$num_put@_WV?$ostreambuf_iterator@_WU?$char_traits@_W@std@@@std@@@std@@@std@@YAABV?$num_put@_WV?$ostreambuf_iterator@_WU?$char_traits@_W@std@@@std@@@0@ABVlocale@0@@Z 0045008c f i libcpmt:wlocale.obj
 0001:0004f125       ??$use_facet@V?$numpunct@_W@std@@@std@@YAABV?$numpunct@_W@0@ABVlocale@0@@Z 00450125 f i libcpmt:wlocale.obj
 0001:0004f1be       ??$use_facet@V?$collate@_W@std@@@std@@YAABV?$collate@_W@0@ABVlocale@0@@Z 004501be f i libcpmt:wlocale.obj
 0001:0004f257       ??$use_facet@V?$messages@_W@std@@@std@@YAABV?$messages@_W@0@ABVlocale@0@@Z 00450257 f i libcpmt:wlocale.obj
 0001:0004f2f0       ??$use_facet@V?$money_get@_WV?$istreambuf_iterator@_WU?$char_traits@_W@std@@@std@@@std@@@std@@YAABV?$money_get@_WV?$istreambuf_iterator@_WU?$char_traits@_W@std@@@std@@@0@ABVlocale@0@@Z 004502f0 f i libcpmt:wlocale.obj
 0001:0004f389       ??$use_facet@V?$money_put@_WV?$ostreambuf_iterator@_WU?$char_traits@_W@std@@@std@@@std@@@std@@YAABV?$money_put@_WV?$ostreambuf_iterator@_WU?$char_traits@_W@std@@@std@@@0@ABVlocale@0@@Z 00450389 f i libcpmt:wlocale.obj
 0001:0004f422       ??$use_facet@V?$time_put@_WV?$ostreambuf_iterator@_WU?$char_traits@_W@std@@@std@@@std@@@std@@YAABV?$time_put@_WV?$ostreambuf_iterator@_WU?$char_traits@_W@std@@@std@@@0@ABVlocale@0@@Z 00450422 f i libcpmt:wlocale.obj
 0001:0004f4bb       ??$use_facet@V?$num_get@GV?$istreambuf_iterator@GU?$char_traits@G@std@@@std@@@std@@@std@@YAABV?$num_get@GV?$istreambuf_iterator@GU?$char_traits@G@std@@@std@@@0@ABVlocale@0@@Z 004504bb f i libcpmt:wlocale.obj
 0001:0004f554       ??$use_facet@V?$num_put@GV?$ostreambuf_iterator@GU?$char_traits@G@std@@@std@@@std@@@std@@YAABV?$num_put@GV?$ostreambuf_iterator@GU?$char_traits@G@std@@@std@@@0@ABVlocale@0@@Z 00450554 f i libcpmt:wlocale.obj
 0001:0004f5ed       ??$use_facet@V?$numpunct@G@std@@@std@@YAABV?$numpunct@G@0@ABVlocale@0@@Z 004505ed f i libcpmt:wlocale.obj
 0001:0004f686       ??$use_facet@V?$collate@G@std@@@std@@YAABV?$collate@G@0@ABVlocale@0@@Z 00450686 f i libcpmt:wlocale.obj
 0001:0004f71f       ??$use_facet@V?$messages@G@std@@@std@@YAABV?$messages@G@0@ABVlocale@0@@Z 0045071f f i libcpmt:wlocale.obj
 0001:0004f7b8       ??$use_facet@V?$money_get@GV?$istreambuf_iterator@GU?$char_traits@G@std@@@std@@@std@@@std@@YAABV?$money_get@GV?$istreambuf_iterator@GU?$char_traits@G@std@@@std@@@0@ABVlocale@0@@Z 004507b8 f i libcpmt:wlocale.obj
 0001:0004f851       ??$use_facet@V?$money_put@GV?$ostreambuf_iterator@GU?$char_traits@G@std@@@std@@@std@@@std@@YAABV?$money_put@GV?$ostreambuf_iterator@GU?$char_traits@G@std@@@std@@@0@ABVlocale@0@@Z 00450851 f i libcpmt:wlocale.obj
 0001:0004f8ea       ??$use_facet@V?$time_put@GV?$ostreambuf_iterator@GU?$char_traits@G@std@@@std@@@std@@@std@@YAABV?$time_put@GV?$ostreambuf_iterator@GU?$char_traits@G@std@@@std@@@0@ABVlocale@0@@Z 004508ea f i libcpmt:wlocale.obj
 0001:0004f983       ?do_put@?$num_put@_WV?$ostreambuf_iterator@_WU?$char_traits@_W@std@@@std@@@std@@MBE?AV?$ostreambuf_iterator@_WU?$char_traits@_W@std@@@2@V32@AAVios_base@2@_W_N@Z 00450983 f i libcpmt:wlocale.obj
 0001:0004faf1       ?_Getcat@?$moneypunct@_W$0A@@std@@SAIPAPBVfacet@locale@2@@Z 00450af1 f i libcpmt:wlocale.obj
 0001:0004fb34       ?_Getcat@?$moneypunct@_W$00@std@@SAIPAPBVfacet@locale@2@@Z 00450b34 f i libcpmt:wlocale.obj
 0001:0004fb77       ?_Getcat@?$time_get@_WV?$istreambuf_iterator@_WU?$char_traits@_W@std@@@std@@@std@@SAIPAPBVfacet@locale@2@@Z 00450b77 f i libcpmt:wlocale.obj
 0001:0004fbba       ?do_put@?$num_put@GV?$ostreambuf_iterator@GU?$char_traits@G@std@@@std@@@std@@MBE?AV?$ostreambuf_iterator@GU?$char_traits@G@std@@@2@V32@AAVios_base@2@G_N@Z 00450bba f i libcpmt:wlocale.obj
 0001:0004fd28       ?_Getcat@?$moneypunct@G$0A@@std@@SAIPAPBVfacet@locale@2@@Z 00450d28 f i libcpmt:wlocale.obj
 0001:0004fd6b       ?_Getcat@?$moneypunct@G$00@std@@SAIPAPBVfacet@locale@2@@Z 00450d6b f i libcpmt:wlocale.obj
 0001:0004fdae       ?_Getcat@?$time_get@GV?$istreambuf_iterator@GU?$char_traits@G@std@@@std@@@std@@SAIPAPBVfacet@locale@2@@Z 00450dae f i libcpmt:wlocale.obj
 0001:0004fdf1       ?_Getifld@?$num_get@_WV?$istreambuf_iterator@_WU?$char_traits@_W@std@@@std@@@std@@ABAHPADAAV?$istreambuf_iterator@_WU?$char_traits@_W@std@@@2@1HABVlocale@2@@Z 00450df1 f i libcpmt:wlocale.obj
 0001:0005013a       ?_Getffld@?$num_get@_WV?$istreambuf_iterator@_WU?$char_traits@_W@std@@@std@@@std@@ABAHPADAAV?$istreambuf_iterator@_WU?$char_traits@_W@std@@@2@1ABVlocale@2@@Z 0045113a f i libcpmt:wlocale.obj
 0001:0005067f       ?_Fput@?$num_put@_WV?$ostreambuf_iterator@_WU?$char_traits@_W@std@@@std@@@std@@ABA?AV?$ostreambuf_iterator@_WU?$char_traits@_W@std@@@2@V32@AAVios_base@2@_WPBDIIII@Z 0045167f f i libcpmt:wlocale.obj
 0001:00050af1       ?_Iput@?$num_put@_WV?$ostreambuf_iterator@_WU?$char_traits@_W@std@@@std@@@std@@ABA?AV?$ostreambuf_iterator@_WU?$char_traits@_W@std@@@2@V32@AAVios_base@2@_WPADI@Z 00451af1 f i libcpmt:wlocale.obj
 0001:00050ce0       ?_Getifld@?$num_get@GV?$istreambuf_iterator@GU?$char_traits@G@std@@@std@@@std@@ABAHPADAAV?$istreambuf_iterator@GU?$char_traits@G@std@@@2@1HABVlocale@2@@Z 00451ce0 f i libcpmt:wlocale.obj
 0001:00051029       ?_Getffld@?$num_get@GV?$istreambuf_iterator@GU?$char_traits@G@std@@@std@@@std@@ABAHPADAAV?$istreambuf_iterator@GU?$char_traits@G@std@@@2@1ABVlocale@2@@Z 00452029 f i libcpmt:wlocale.obj
 0001:0005156e       ?_Fput@?$num_put@GV?$ostreambuf_iterator@GU?$char_traits@G@std@@@std@@@std@@ABA?AV?$ostreambuf_iterator@GU?$char_traits@G@std@@@2@V32@AAVios_base@2@GPBDIIII@Z 0045256e f i libcpmt:wlocale.obj
 0001:000519e0       ?_Iput@?$num_put@GV?$ostreambuf_iterator@GU?$char_traits@G@std@@@std@@@std@@ABA?AV?$ostreambuf_iterator@GU?$char_traits@G@std@@@2@V32@AAVios_base@2@GPADI@Z 004529e0 f i libcpmt:wlocale.obj
 0001:00051bcf       ??$use_facet@V?$moneypunct@_W$0A@@std@@@std@@YAABV?$moneypunct@_W$0A@@0@ABVlocale@0@@Z 00452bcf f i libcpmt:wlocale.obj
 0001:00051c68       ??$use_facet@V?$moneypunct@_W$00@std@@@std@@YAABV?$moneypunct@_W$00@0@ABVlocale@0@@Z 00452c68 f i libcpmt:wlocale.obj
 0001:00051d01       ??$use_facet@V?$time_get@_WV?$istreambuf_iterator@_WU?$char_traits@_W@std@@@std@@@std@@@std@@YAABV?$time_get@_WV?$istreambuf_iterator@_WU?$char_traits@_W@std@@@std@@@0@ABVlocale@0@@Z 00452d01 f i libcpmt:wlocale.obj
 0001:00051d9a       ??$use_facet@V?$moneypunct@G$0A@@std@@@std@@YAABV?$moneypunct@G$0A@@0@ABVlocale@0@@Z 00452d9a f i libcpmt:wlocale.obj
 0001:00051e33       ??$use_facet@V?$moneypunct@G$00@std@@@std@@YAABV?$moneypunct@G$00@0@ABVlocale@0@@Z 00452e33 f i libcpmt:wlocale.obj
 0001:00051ecc       ??$use_facet@V?$time_get@GV?$istreambuf_iterator@GU?$char_traits@G@std@@@std@@@std@@@std@@YAABV?$time_get@GV?$istreambuf_iterator@GU?$char_traits@G@std@@@std@@@0@ABVlocale@0@@Z 00452ecc f i libcpmt:wlocale.obj
 0001:00051f65       ?_Makewloc@_Locimp@locale@std@@CAXABV_Locinfo@3@HPAV123@PBV23@@Z 00452f65 f   libcpmt:wlocale.obj
 0001:0005247d       ?_Makeushloc@_Locimp@locale@std@@CAXABV_Locinfo@3@HPAV123@PBV23@@Z 0045347d f   libcpmt:wlocale.obj
 0001:00052995       ?do_get@?$num_get@_WV?$istreambuf_iterator@_WU?$char_traits@_W@std@@@std@@@std@@MBE?AV?$istreambuf_iterator@_WU?$char_traits@_W@std@@@2@V32@0AAVios_base@2@AAHAA_N@Z 00453995 f i libcpmt:wlocale.obj
 0001:00052b2f       ?do_get@?$num_get@_WV?$istreambuf_iterator@_WU?$char_traits@_W@std@@@std@@@std@@MBE?AV?$istreambuf_iterator@_WU?$char_traits@_W@std@@@2@V32@0AAVios_base@2@AAHAAG@Z 00453b2f f i libcpmt:wlocale.obj
 0001:00052bfb       ?do_get@?$num_get@_WV?$istreambuf_iterator@_WU?$char_traits@_W@std@@@std@@@std@@MBE?AV?$istreambuf_iterator@_WU?$char_traits@_W@std@@@2@V32@0AAVios_base@2@AAHAAI@Z 00453bfb f i libcpmt:wlocale.obj
 0001:00052cc3       ?do_get@?$num_get@_WV?$istreambuf_iterator@_WU?$char_traits@_W@std@@@std@@@std@@MBE?AV?$istreambuf_iterator@_WU?$char_traits@_W@std@@@2@V32@0AAVios_base@2@AAHAAJ@Z 00453cc3 f i libcpmt:wlocale.obj
 0001:00052d6e       ?do_get@?$num_get@_WV?$istreambuf_iterator@_WU?$char_traits@_W@std@@@std@@@std@@MBE?AV?$istreambuf_iterator@_WU?$char_traits@_W@std@@@2@V32@0AAVios_base@2@AAHAAK@Z 00453d6e f i libcpmt:wlocale.obj
 0001:00052e19       ?do_get@?$num_get@_WV?$istreambuf_iterator@_WU?$char_traits@_W@std@@@std@@@std@@MBE?AV?$istreambuf_iterator@_WU?$char_traits@_W@std@@@2@V32@0AAVios_base@2@AAHAA_J@Z 00453e19 f i libcpmt:wlocale.obj
 0001:00052ebc       ?do_get@?$num_get@_WV?$istreambuf_iterator@_WU?$char_traits@_W@std@@@std@@@std@@MBE?AV?$istreambuf_iterator@_WU?$char_traits@_W@std@@@2@V32@0AAVios_base@2@AAHAA_K@Z 00453ebc f i libcpmt:wlocale.obj
 0001:00052f5f       ?do_get@?$num_get@_WV?$istreambuf_iterator@_WU?$char_traits@_W@std@@@std@@@std@@MBE?AV?$istreambuf_iterator@_WU?$char_traits@_W@std@@@2@V32@0AAVios_base@2@AAHAAM@Z 00453f5f f i libcpmt:wlocale.obj
 0001:00053004       ?do_get@?$num_get@_WV?$istreambuf_iterator@_WU?$char_traits@_W@std@@@std@@@std@@MBE?AV?$istreambuf_iterator@_WU?$char_traits@_W@std@@@2@V32@0AAVios_base@2@AAHAAN@Z 00454004 f i libcpmt:wlocale.obj
 0001:000530a9       ?do_get@?$num_get@_WV?$istreambuf_iterator@_WU?$char_traits@_W@std@@@std@@@std@@MBE?AV?$istreambuf_iterator@_WU?$char_traits@_W@std@@@2@V32@0AAVios_base@2@AAHAAO@Z 004540a9 f i libcpmt:wlocale.obj
 0001:0005314e       ?do_get@?$num_get@_WV?$istreambuf_iterator@_WU?$char_traits@_W@std@@@std@@@std@@MBE?AV?$istreambuf_iterator@_WU?$char_traits@_W@std@@@2@V32@0AAVios_base@2@AAHAAPAX@Z 0045414e f i libcpmt:wlocale.obj
 0001:00053205       ?do_put@?$num_put@_WV?$ostreambuf_iterator@_WU?$char_traits@_W@std@@@std@@@std@@MBE?AV?$ostreambuf_iterator@_WU?$char_traits@_W@std@@@2@V32@AAVios_base@2@_WJ@Z 00454205 f i libcpmt:wlocale.obj
 0001:0005327c       ?do_put@?$num_put@_WV?$ostreambuf_iterator@_WU?$char_traits@_W@std@@@std@@@std@@MBE?AV?$ostreambuf_iterator@_WU?$char_traits@_W@std@@@2@V32@AAVios_base@2@_WK@Z 0045427c f i libcpmt:wlocale.obj
 0001:000532f3       ?do_put@?$num_put@_WV?$ostreambuf_iterator@_WU?$char_traits@_W@std@@@std@@@std@@MBE?AV?$ostreambuf_iterator@_WU?$char_traits@_W@std@@@2@V32@AAVios_base@2@_W_J@Z 004542f3 f i libcpmt:wlocale.obj
 0001:0005336d       ?do_put@?$num_put@_WV?$ostreambuf_iterator@_WU?$char_traits@_W@std@@@std@@@std@@MBE?AV?$ostreambuf_iterator@_WU?$char_traits@_W@std@@@2@V32@AAVios_base@2@_W_K@Z 0045436d f i libcpmt:wlocale.obj
 0001:000533e7       ?do_put@?$num_put@_WV?$ostreambuf_iterator@_WU?$char_traits@_W@std@@@std@@@std@@MBE?AV?$ostreambuf_iterator@_WU?$char_traits@_W@std@@@2@V32@AAVios_base@2@_WN@Z 004543e7 f i libcpmt:wlocale.obj
 0001:0005354c       ?do_put@?$num_put@_WV?$ostreambuf_iterator@_WU?$char_traits@_W@std@@@std@@@std@@MBE?AV?$ostreambuf_iterator@_WU?$char_traits@_W@std@@@2@V32@AAVios_base@2@_WO@Z 0045454c f i libcpmt:wlocale.obj
 0001:000536a9       ?do_put@?$num_put@_WV?$ostreambuf_iterator@_WU?$char_traits@_W@std@@@std@@@std@@MBE?AV?$ostreambuf_iterator@_WU?$char_traits@_W@std@@@2@V32@AAVios_base@2@_WPBX@Z 004546a9 f i libcpmt:wlocale.obj
 0001:0005370f       ?do_get@?$num_get@GV?$istreambuf_iterator@GU?$char_traits@G@std@@@std@@@std@@MBE?AV?$istreambuf_iterator@GU?$char_traits@G@std@@@2@V32@0AAVios_base@2@AAHAA_N@Z 0045470f f i libcpmt:wlocale.obj
 0001:000538a9       ?do_get@?$num_get@GV?$istreambuf_iterator@GU?$char_traits@G@std@@@std@@@std@@MBE?AV?$istreambuf_iterator@GU?$char_traits@G@std@@@2@V32@0AAVios_base@2@AAHAAG@Z 004548a9 f i libcpmt:wlocale.obj
 0001:00053975       ?do_get@?$num_get@GV?$istreambuf_iterator@GU?$char_traits@G@std@@@std@@@std@@MBE?AV?$istreambuf_iterator@GU?$char_traits@G@std@@@2@V32@0AAVios_base@2@AAHAAI@Z 00454975 f i libcpmt:wlocale.obj
 0001:00053a3d       ?do_get@?$num_get@GV?$istreambuf_iterator@GU?$char_traits@G@std@@@std@@@std@@MBE?AV?$istreambuf_iterator@GU?$char_traits@G@std@@@2@V32@0AAVios_base@2@AAHAAJ@Z 00454a3d f i libcpmt:wlocale.obj
 0001:00053ae8       ?do_get@?$num_get@GV?$istreambuf_iterator@GU?$char_traits@G@std@@@std@@@std@@MBE?AV?$istreambuf_iterator@GU?$char_traits@G@std@@@2@V32@0AAVios_base@2@AAHAAK@Z 00454ae8 f i libcpmt:wlocale.obj
 0001:00053b93       ?do_get@?$num_get@GV?$istreambuf_iterator@GU?$char_traits@G@std@@@std@@@std@@MBE?AV?$istreambuf_iterator@GU?$char_traits@G@std@@@2@V32@0AAVios_base@2@AAHAA_J@Z 00454b93 f i libcpmt:wlocale.obj
 0001:00053c36       ?do_get@?$num_get@GV?$istreambuf_iterator@GU?$char_traits@G@std@@@std@@@std@@MBE?AV?$istreambuf_iterator@GU?$char_traits@G@std@@@2@V32@0AAVios_base@2@AAHAA_K@Z 00454c36 f i libcpmt:wlocale.obj
 0001:00053cd9       ?do_get@?$num_get@GV?$istreambuf_iterator@GU?$char_traits@G@std@@@std@@@std@@MBE?AV?$istreambuf_iterator@GU?$char_traits@G@std@@@2@V32@0AAVios_base@2@AAHAAM@Z 00454cd9 f i libcpmt:wlocale.obj
 0001:00053d7e       ?do_get@?$num_get@GV?$istreambuf_iterator@GU?$char_traits@G@std@@@std@@@std@@MBE?AV?$istreambuf_iterator@GU?$char_traits@G@std@@@2@V32@0AAVios_base@2@AAHAAN@Z 00454d7e f i libcpmt:wlocale.obj
 0001:00053e23       ?do_get@?$num_get@GV?$istreambuf_iterator@GU?$char_traits@G@std@@@std@@@std@@MBE?AV?$istreambuf_iterator@GU?$char_traits@G@std@@@2@V32@0AAVios_base@2@AAHAAO@Z 00454e23 f i libcpmt:wlocale.obj
 0001:00053ec8       ?do_get@?$num_get@GV?$istreambuf_iterator@GU?$char_traits@G@std@@@std@@@std@@MBE?AV?$istreambuf_iterator@GU?$char_traits@G@std@@@2@V32@0AAVios_base@2@AAHAAPAX@Z 00454ec8 f i libcpmt:wlocale.obj
 0001:00053f7f       ?do_put@?$num_put@GV?$ostreambuf_iterator@GU?$char_traits@G@std@@@std@@@std@@MBE?AV?$ostreambuf_iterator@GU?$char_traits@G@std@@@2@V32@AAVios_base@2@GJ@Z 00454f7f f i libcpmt:wlocale.obj
 0001:00053ff6       ?do_put@?$num_put@GV?$ostreambuf_iterator@GU?$char_traits@G@std@@@std@@@std@@MBE?AV?$ostreambuf_iterator@GU?$char_traits@G@std@@@2@V32@AAVios_base@2@GK@Z 00454ff6 f i libcpmt:wlocale.obj
 0001:0005406d       ?do_put@?$num_put@GV?$ostreambuf_iterator@GU?$char_traits@G@std@@@std@@@std@@MBE?AV?$ostreambuf_iterator@GU?$char_traits@G@std@@@2@V32@AAVios_base@2@G_J@Z 0045506d f i libcpmt:wlocale.obj
 0001:000540e7       ?do_put@?$num_put@GV?$ostreambuf_iterator@GU?$char_traits@G@std@@@std@@@std@@MBE?AV?$ostreambuf_iterator@GU?$char_traits@G@std@@@2@V32@AAVios_base@2@G_K@Z 004550e7 f i libcpmt:wlocale.obj
 0001:00054161       ?do_put@?$num_put@GV?$ostreambuf_iterator@GU?$char_traits@G@std@@@std@@@std@@MBE?AV?$ostreambuf_iterator@GU?$char_traits@G@std@@@2@V32@AAVios_base@2@GN@Z 00455161 f i libcpmt:wlocale.obj
 0001:000542c6       ?do_put@?$num_put@GV?$ostreambuf_iterator@GU?$char_traits@G@std@@@std@@@std@@MBE?AV?$ostreambuf_iterator@GU?$char_traits@G@std@@@2@V32@AAVios_base@2@GO@Z 004552c6 f i libcpmt:wlocale.obj
 0001:00054423       ?do_put@?$num_put@GV?$ostreambuf_iterator@GU?$char_traits@G@std@@@std@@@std@@MBE?AV?$ostreambuf_iterator@GU?$char_traits@G@std@@@2@V32@AAVios_base@2@GPBX@Z 00455423 f i libcpmt:wlocale.obj
 0001:00054489       ?_Getmfld@?$money_get@_WV?$istreambuf_iterator@_WU?$char_traits@_W@std@@@std@@@std@@ABE?AV?$basic_string@_WU?$char_traits@_W@std@@V?$allocator@_W@2@@2@AAV?$istreambuf_iterator@_WU?$char_traits@_W@std@@@2@0_NAAVios_base@2@@Z 00455489 f i libcpmt:wlocale.obj
 0001:00054c89       ?_Putmfld@?$money_put@_WV?$ostreambuf_iterator@_WU?$char_traits@_W@std@@@std@@@std@@ABE?AV?$ostreambuf_iterator@_WU?$char_traits@_W@std@@@2@V32@_NAAVios_base@2@_W1V?$basic_string@_WU?$char_traits@_W@std@@V?$allocator@_W@2@@2@@Z 00455c89 f i libcpmt:wlocale.obj
 0001:00055223       ?_Getmfld@?$money_get@GV?$istreambuf_iterator@GU?$char_traits@G@std@@@std@@@std@@ABE?AV?$basic_string@GU?$char_traits@G@std@@V?$allocator@G@2@@2@AAV?$istreambuf_iterator@GU?$char_traits@G@std@@@2@0_NAAVios_base@2@@Z 00456223 f i libcpmt:wlocale.obj
 0001:00055a23       ?_Putmfld@?$money_put@GV?$ostreambuf_iterator@GU?$char_traits@G@std@@@std@@@std@@ABE?AV?$ostreambuf_iterator@GU?$char_traits@G@std@@@2@V32@_NAAVios_base@2@G1V?$basic_string@GU?$char_traits@G@std@@V?$allocator@G@2@@2@@Z 00456a23 f i libcpmt:wlocale.obj
 0001:00055fbd       ?do_get@?$money_get@_WV?$istreambuf_iterator@_WU?$char_traits@_W@std@@@std@@@std@@MBE?AV?$istreambuf_iterator@_WU?$char_traits@_W@std@@@2@V32@0_NAAVios_base@2@AAHAAO@Z 00456fbd f i libcpmt:wlocale.obj
 0001:00056112       ?do_get@?$money_get@_WV?$istreambuf_iterator@_WU?$char_traits@_W@std@@@std@@@std@@MBE?AV?$istreambuf_iterator@_WU?$char_traits@_W@std@@@2@V32@0_NAAVios_base@2@AAHAAV?$basic_string@_WU?$char_traits@_W@std@@V?$allocator@_W@2@@2@@Z 00457112 f i libcpmt:wlocale.obj
 0001:0005618e       ?do_put@?$money_put@_WV?$ostreambuf_iterator@_WU?$char_traits@_W@std@@@std@@@std@@MBE?AV?$ostreambuf_iterator@_WU?$char_traits@_W@std@@@2@V32@_NAAVios_base@2@_WO@Z 0045718e f i libcpmt:wlocale.obj
 0001:000562bc       ?do_put@?$money_put@_WV?$ostreambuf_iterator@_WU?$char_traits@_W@std@@@std@@@std@@MBE?AV?$ostreambuf_iterator@_WU?$char_traits@_W@std@@@2@V32@_NAAVios_base@2@_WABV?$basic_string@_WU?$char_traits@_W@std@@V?$allocator@_W@2@@2@@Z 004572bc f i libcpmt:wlocale.obj
 0001:00056397       ?do_get@?$money_get@GV?$istreambuf_iterator@GU?$char_traits@G@std@@@std@@@std@@MBE?AV?$istreambuf_iterator@GU?$char_traits@G@std@@@2@V32@0_NAAVios_base@2@AAHAAO@Z 00457397 f i libcpmt:wlocale.obj
 0001:000564ec       ?do_get@?$money_get@GV?$istreambuf_iterator@GU?$char_traits@G@std@@@std@@@std@@MBE?AV?$istreambuf_iterator@GU?$char_traits@G@std@@@2@V32@0_NAAVios_base@2@AAHAAV?$basic_string@GU?$char_traits@G@std@@V?$allocator@G@2@@2@@Z 004574ec f i libcpmt:wlocale.obj
 0001:00056568       ?do_put@?$money_put@GV?$ostreambuf_iterator@GU?$char_traits@G@std@@@std@@@std@@MBE?AV?$ostreambuf_iterator@GU?$char_traits@G@std@@@2@V32@_NAAVios_base@2@GO@Z 00457568 f i libcpmt:wlocale.obj
 0001:00056696       ?do_put@?$money_put@GV?$ostreambuf_iterator@GU?$char_traits@G@std@@@std@@@std@@MBE?AV?$ostreambuf_iterator@GU?$char_traits@G@std@@@2@V32@_NAAVios_base@2@GABV?$basic_string@GU?$char_traits@G@std@@V?$allocator@G@2@@2@@Z 00457696 f i libcpmt:wlocale.obj
 0001:00056771       ?_Init@?$time_put@_WV?$ostreambuf_iterator@_WU?$char_traits@_W@std@@@std@@@std@@IAEXABV_Locinfo@2@@Z 00457771 f i libcpmt:wlocale.obj
 0001:00056771       ?_Init@?$time_put@DV?$ostreambuf_iterator@DU?$char_traits@D@std@@@std@@@std@@IAEXABV_Locinfo@2@@Z 00457771 f i libcpmt:xlocale.obj
 0001:00056771       ?_Init@?$time_put@GV?$ostreambuf_iterator@GU?$char_traits@G@std@@@std@@@std@@IAEXABV_Locinfo@2@@Z 00457771 f i libcpmt:wlocale.obj
 0001:000567a4       ?_Makpat@?$_Mpunct@D@std@@AAEXAAUpattern@money_base@2@III@Z 004577a4 f i libcpmt:xlocale.obj
 0001:000567a4       ?_Makpat@?$_Mpunct@G@std@@AAEXAAUpattern@money_base@2@III@Z 004577a4 f i libcpmt:wlocale.obj
 0001:000567a4       ?_Makpat@?$_Mpunct@_W@std@@AAEXAAUpattern@money_base@2@III@Z 004577a4 f i libcpmt:wlocale.obj
 0001:000567ee       ??0?$collate@D@std@@QAE@ABV_Locinfo@1@I@Z 004577ee f i libcpmt:xlocale.obj
 0001:0005680f       ?do_compare@?$collate@D@std@@MBEHPBD000@Z 0045780f f i libcpmt:xlocale.obj
 0001:0005682e       ?do_hash@?$collate@D@std@@MBEJPBD0@Z 0045782e f i libcpmt:xlocale.obj
 0001:00056848       ?do_close@?$messages@D@std@@MBEXH@Z 00457848 f i libcpmt:xlocale.obj
 0001:00056848       ?do_close@?$messages@_W@std@@MBEXH@Z 00457848 f i libcpmt:wlocale.obj
 0001:00056848       ?do_close@?$messages@G@std@@MBEXH@Z 00457848 f i libcpmt:wlocale.obj
 0001:0005684b       ??0?$money_get@DV?$istreambuf_iterator@DU?$char_traits@D@std@@@std@@@std@@QAE@ABV_Locinfo@1@I@Z 0045784b f i libcpmt:xlocale.obj
 0001:0005686c       ??0?$money_put@DV?$ostreambuf_iterator@DU?$char_traits@D@std@@@std@@@std@@QAE@ABV_Locinfo@1@I@Z 0045786c f i libcpmt:xlocale.obj
 0001:0005688d       ??1?$_Mpunct@D@std@@MAE@XZ 0045788d f i libcpmt:xlocale.obj
 0001:000568a3       ?do_decimal_point@?$_Mpunct@D@std@@MBEDXZ 004578a3 f i libcpmt:xlocale.obj
 0001:000568a7       ?do_thousands_sep@?$_Mpunct@D@std@@MBEDXZ 004578a7 f i libcpmt:xlocale.obj
 0001:000568ab       ?do_pos_format@?$_Mpunct@_W@std@@MBE?AUpattern@money_base@2@XZ 004578ab f i libcpmt:wlocale.obj
 0001:000568ab       ?do_pos_format@?$_Mpunct@G@std@@MBE?AUpattern@money_base@2@XZ 004578ab f i libcpmt:wlocale.obj
 0001:000568ab       ?do_pos_format@?$_Mpunct@D@std@@MBE?AUpattern@money_base@2@XZ 004578ab f i libcpmt:xlocale.obj
 0001:000568b7       ?do_neg_format@?$_Mpunct@_W@std@@MBE?AUpattern@money_base@2@XZ 004578b7 f i libcpmt:wlocale.obj
 0001:000568b7       ?do_neg_format@?$_Mpunct@D@std@@MBE?AUpattern@money_base@2@XZ 004578b7 f i libcpmt:xlocale.obj
 0001:000568b7       ?do_neg_format@?$_Mpunct@G@std@@MBE?AUpattern@money_base@2@XZ 004578b7 f i libcpmt:wlocale.obj
 0001:000568c3       ??0?$time_put@DV?$ostreambuf_iterator@DU?$char_traits@D@std@@@std@@@std@@QAE@ABV_Locinfo@1@I@Z 004578c3 f i libcpmt:xlocale.obj
 0001:000568e6       ??1?$time_put@DV?$ostreambuf_iterator@DU?$char_traits@D@std@@@std@@@std@@MAE@XZ 004578e6 f i libcpmt:xlocale.obj
 0001:00056900       ??_E?$time_put@DV?$ostreambuf_iterator@DU?$char_traits@D@std@@@std@@@std@@MAEPAXI@Z 00457900 f i libcpmt:xlocale.obj
 0001:00056900       ??_G?$time_put@DV?$ostreambuf_iterator@DU?$char_traits@D@std@@@std@@@std@@MAEPAXI@Z 00457900 f i libcpmt:xlocale.obj
 0001:0005691c       ??_E?$_Mpunct@D@std@@MAEPAXI@Z 0045791c f i libcpmt:xlocale.obj
 0001:0005691c       ??_G?$_Mpunct@D@std@@MAEPAXI@Z 0045791c f i libcpmt:xlocale.obj
 0001:00056938       ??E?$_String_const_iterator@DU?$char_traits@D@std@@V?$allocator@D@2@@std@@QAEAAV01@XZ 00457938 f i libcpmt:xlocale.obj
 0001:00056971       ?_Put@?$money_put@DV?$ostreambuf_iterator@DU?$char_traits@D@std@@@std@@@std@@CA?AV?$ostreambuf_iterator@DU?$char_traits@D@std@@@2@V32@V?$_String_const_iterator@DU?$char_traits@D@std@@V?$allocator@D@2@@2@I@Z 00457971 f i libcpmt:xlocale.obj
 0001:000569ac       ?_Rep@?$money_put@DV?$ostreambuf_iterator@DU?$char_traits@D@std@@@std@@@std@@CA?AV?$ostreambuf_iterator@DU?$char_traits@D@std@@@2@V32@DI@Z 004579ac f i libcpmt:xlocale.obj
 0001:000569d6       ?_Init@?$_Mpunct@D@std@@IAEXABV_Locinfo@2@@Z 004579d6 f i libcpmt:xlocale.obj
 0001:00056af2       ??0?$_Mpunct@D@std@@QAE@ABV_Locinfo@1@I_N@Z 00457af2 f i libcpmt:xlocale.obj
 0001:00056b2b       ??G?$_String_iterator@DU?$char_traits@D@std@@V?$allocator@D@2@@std@@QBE?AV01@H@Z 00457b2b f i libcpmt:xlocale.obj
 0001:00056b5b       ??0?$moneypunct@D$0A@@std@@QAE@ABV_Locinfo@1@I@Z 00457b5b f i libcpmt:xlocale.obj
 0001:00056b79       ??_G?$moneypunct@D$0A@@std@@MAEPAXI@Z 00457b79 f i libcpmt:xlocale.obj
 0001:00056b79       ??_E?$moneypunct@D$0A@@std@@MAEPAXI@Z 00457b79 f i libcpmt:xlocale.obj
 0001:00056b9b       ??0?$moneypunct@D$00@std@@QAE@ABV_Locinfo@1@I@Z 00457b9b f i libcpmt:xlocale.obj
 0001:00056bb9       ??_E?$moneypunct@D$00@std@@MAEPAXI@Z 00457bb9 f i libcpmt:xlocale.obj
 0001:00056bb9       ??_G?$moneypunct@D$00@std@@MAEPAXI@Z 00457bb9 f i libcpmt:xlocale.obj
 0001:00056bdb       ?do_get@?$messages@D@std@@MBE?AV?$basic_string@DU?$char_traits@D@std@@V?$allocator@D@2@@2@HHHABV32@@Z 00457bdb f i libcpmt:xlocale.obj
 0001:00056bf5       ?do_put@?$time_put@DV?$ostreambuf_iterator@DU?$char_traits@D@std@@@std@@@std@@MBE?AV?$ostreambuf_iterator@DU?$char_traits@D@std@@@2@V32@AAVios_base@2@DPBUtm@@DD@Z 00457bf5 f i libcpmt:xlocale.obj
 0001:00056cea       ?do_transform@?$collate@D@std@@MBE?AV?$basic_string@DU?$char_traits@D@std@@V?$allocator@D@2@@2@PBD0@Z 00457cea f i libcpmt:xlocale.obj
 0001:00056d95       ?do_grouping@?$numpunct@_W@std@@MBE?AV?$basic_string@DU?$char_traits@D@std@@V?$allocator@D@2@@2@XZ 00457d95 f i libcpmt:wlocale.obj
 0001:00056d95       ?do_grouping@?$_Mpunct@_W@std@@MBE?AV?$basic_string@DU?$char_traits@D@std@@V?$allocator@D@2@@2@XZ 00457d95 f i libcpmt:wlocale.obj
 0001:00056d95       ?do_grouping@?$numpunct@G@std@@MBE?AV?$basic_string@DU?$char_traits@D@std@@V?$allocator@D@2@@2@XZ 00457d95 f i libcpmt:wlocale.obj
 0001:00056d95       ?do_grouping@?$_Mpunct@G@std@@MBE?AV?$basic_string@DU?$char_traits@D@std@@V?$allocator@D@2@@2@XZ 00457d95 f i libcpmt:wlocale.obj
 0001:00056d95       ?do_grouping@?$_Mpunct@D@std@@MBE?AV?$basic_string@DU?$char_traits@D@std@@V?$allocator@D@2@@2@XZ 00457d95 f i libcpmt:xlocale.obj
 0001:00056daf       ?do_curr_symbol@?$_Mpunct@D@std@@MBE?AV?$basic_string@DU?$char_traits@D@std@@V?$allocator@D@2@@2@XZ 00457daf f i libcpmt:xlocale.obj
 0001:00056dc9       ?do_positive_sign@?$_Mpunct@D@std@@MBE?AV?$basic_string@DU?$char_traits@D@std@@V?$allocator@D@2@@2@XZ 00457dc9 f i libcpmt:xlocale.obj
 0001:00056de3       ?do_negative_sign@?$_Mpunct@D@std@@MBE?AV?$basic_string@DU?$char_traits@D@std@@V?$allocator@D@2@@2@XZ 00457de3 f i libcpmt:xlocale.obj
 0001:00056dfd       ??0?$collate@D@std@@QAE@I@Z 00457dfd f i libcpmt:xlocale.obj
 0001:00056e51       ??0?$messages@D@std@@QAE@I@Z 00457e51 f i libcpmt:xlocale.obj
 0001:00056e9a       ??0?$money_get@DV?$istreambuf_iterator@DU?$char_traits@D@std@@@std@@@std@@QAE@I@Z 00457e9a f i libcpmt:xlocale.obj
 0001:00056eee       ??0?$money_put@DV?$ostreambuf_iterator@DU?$char_traits@D@std@@@std@@@std@@QAE@I@Z 00457eee f i libcpmt:xlocale.obj
 0001:00056f42       ?_Init@?$time_get@DV?$istreambuf_iterator@DU?$char_traits@D@std@@@std@@@std@@IAEXABV_Locinfo@2@@Z 00457f42 f i libcpmt:xlocale.obj
 0001:00056fb9       ??0?$time_put@DV?$ostreambuf_iterator@DU?$char_traits@D@std@@@std@@@std@@QAE@I@Z 00457fb9 f i libcpmt:xlocale.obj
 0001:00057018       ??0?$_Mpunct@D@std@@QAE@I_N@Z 00458018 f i libcpmt:xlocale.obj
 0001:0005707d       ?_Getcat@?$collate@D@std@@SAIPAPBVfacet@locale@2@@Z 0045807d f i libcpmt:xlocale.obj
 0001:000570c0       ?_Getcat@?$messages@D@std@@SAIPAPBVfacet@locale@2@@Z 004580c0 f i libcpmt:xlocale.obj
 0001:00057103       ?_Getcat@?$money_get@DV?$istreambuf_iterator@DU?$char_traits@D@std@@@std@@@std@@SAIPAPBVfacet@locale@2@@Z 00458103 f i libcpmt:xlocale.obj
 0001:00057146       ?_Getcat@?$money_put@DV?$ostreambuf_iterator@DU?$char_traits@D@std@@@std@@@std@@SAIPAPBVfacet@locale@2@@Z 00458146 f i libcpmt:xlocale.obj
 0001:00057189       ??0?$time_get@DV?$istreambuf_iterator@DU?$char_traits@D@std@@@std@@@std@@QAE@ABV_Locinfo@1@I@Z 00458189 f i libcpmt:xlocale.obj
 0001:000571bc       ??1?$time_get@DV?$istreambuf_iterator@DU?$char_traits@D@std@@@std@@@std@@MAE@XZ 004581bc f i libcpmt:xlocale.obj
 0001:000571d2       ??_E?$time_get@DV?$istreambuf_iterator@DU?$char_traits@D@std@@@std@@@std@@MAEPAXI@Z 004581d2 f i libcpmt:xlocale.obj
 0001:000571d2       ??_G?$time_get@DV?$istreambuf_iterator@DU?$char_traits@D@std@@@std@@@std@@MAEPAXI@Z 004581d2 f i libcpmt:xlocale.obj
 0001:000571ee       ?_Getint@?$time_get@DV?$istreambuf_iterator@DU?$char_traits@D@std@@@std@@@std@@ABAHAAV?$istreambuf_iterator@DU?$char_traits@D@std@@@2@0HHAAH@Z 004581ee f i libcpmt:xlocale.obj
 0001:00057334       ?do_get_time@?$time_get@DV?$istreambuf_iterator@DU?$char_traits@D@std@@@std@@@std@@MBE?AV?$istreambuf_iterator@DU?$char_traits@D@std@@@2@V32@0AAVios_base@2@AAHPAUtm@@@Z 00458334 f i libcpmt:xlocale.obj
 0001:000573ed       ?do_get_date@?$time_get@DV?$istreambuf_iterator@DU?$char_traits@D@std@@@std@@@std@@MBE?AV?$istreambuf_iterator@DU?$char_traits@D@std@@@2@V32@0AAVios_base@2@AAHPAUtm@@@Z 004583ed f i libcpmt:xlocale.obj
 0001:000577e2       ?do_get_year@?$time_get@DV?$istreambuf_iterator@DU?$char_traits@D@std@@@std@@@std@@MBE?AV?$istreambuf_iterator@DU?$char_traits@D@std@@@2@V32@0AAVios_base@2@AAHPAUtm@@@Z 004587e2 f i libcpmt:xlocale.obj
 0001:0005784f       ?do_get_weekday@?$time_get@DV?$istreambuf_iterator@DU?$char_traits@D@std@@@std@@@std@@MBE?AV?$istreambuf_iterator@DU?$char_traits@D@std@@@2@V32@0AAVios_base@2@AAHPAUtm@@@Z 0045884f f i libcpmt:xlocale.obj
 0001:0005788e       ?do_get_monthname@?$time_get@DV?$istreambuf_iterator@DU?$char_traits@D@std@@@std@@@std@@MBE?AV?$istreambuf_iterator@DU?$char_traits@D@std@@@2@V32@0AAVios_base@2@AAHPAUtm@@@Z 0045888e f i libcpmt:xlocale.obj
 0001:000578cd       ?_Getcat@?$time_put@DV?$ostreambuf_iterator@DU?$char_traits@D@std@@@std@@@std@@SAIPAPBVfacet@locale@2@@Z 004588cd f i libcpmt:xlocale.obj
 0001:00057910       ??0?$moneypunct@D$0A@@std@@QAE@I@Z 00458910 f i libcpmt:xlocale.obj
 0001:0005792a       ??0?$moneypunct@D$00@std@@QAE@I@Z 0045892a f i libcpmt:xlocale.obj
 0001:00057944       ??0?$time_get@DV?$istreambuf_iterator@DU?$char_traits@D@std@@@std@@@std@@QAE@I@Z 00458944 f i libcpmt:xlocale.obj
 0001:000579a3       ??$use_facet@V?$collate@D@std@@@std@@YAABV?$collate@D@0@ABVlocale@0@@Z 004589a3 f i libcpmt:xlocale.obj
 0001:00057a3c       ??$use_facet@V?$messages@D@std@@@std@@YAABV?$messages@D@0@ABVlocale@0@@Z 00458a3c f i libcpmt:xlocale.obj
 0001:00057ad5       ??$use_facet@V?$money_get@DV?$istreambuf_iterator@DU?$char_traits@D@std@@@std@@@std@@@std@@YAABV?$money_get@DV?$istreambuf_iterator@DU?$char_traits@D@std@@@std@@@0@ABVlocale@0@@Z 00458ad5 f i libcpmt:xlocale.obj
 0001:00057b6e       ??$use_facet@V?$money_put@DV?$ostreambuf_iterator@DU?$char_traits@D@std@@@std@@@std@@@std@@YAABV?$money_put@DV?$ostreambuf_iterator@DU?$char_traits@D@std@@@std@@@0@ABVlocale@0@@Z 00458b6e f i libcpmt:xlocale.obj
 0001:00057c07       ??$use_facet@V?$time_put@DV?$ostreambuf_iterator@DU?$char_traits@D@std@@@std@@@std@@@std@@YAABV?$time_put@DV?$ostreambuf_iterator@DU?$char_traits@D@std@@@std@@@0@ABVlocale@0@@Z 00458c07 f i libcpmt:xlocale.obj
 0001:00057ca0       ?_Getcat@?$moneypunct@D$0A@@std@@SAIPAPBVfacet@locale@2@@Z 00458ca0 f i libcpmt:xlocale.obj
 0001:00057ce3       ?_Getcat@?$moneypunct@D$00@std@@SAIPAPBVfacet@locale@2@@Z 00458ce3 f i libcpmt:xlocale.obj
 0001:00057d26       ?_Getcat@?$time_get@DV?$istreambuf_iterator@DU?$char_traits@D@std@@@std@@@std@@SAIPAPBVfacet@locale@2@@Z 00458d26 f i libcpmt:xlocale.obj
 0001:00057d69       ??$use_facet@V?$moneypunct@D$0A@@std@@@std@@YAABV?$moneypunct@D$0A@@0@ABVlocale@0@@Z 00458d69 f i libcpmt:xlocale.obj
 0001:00057e02       ??$use_facet@V?$moneypunct@D$00@std@@@std@@YAABV?$moneypunct@D$00@0@ABVlocale@0@@Z 00458e02 f i libcpmt:xlocale.obj
 0001:00057e9b       ??$use_facet@V?$time_get@DV?$istreambuf_iterator@DU?$char_traits@D@std@@@std@@@std@@@std@@YAABV?$time_get@DV?$istreambuf_iterator@DU?$char_traits@D@std@@@std@@@0@ABVlocale@0@@Z 00458e9b f i libcpmt:xlocale.obj
 0001:00057f34       ?_Makexloc@_Locimp@locale@std@@CAXABV_Locinfo@3@HPAV123@PBV23@@Z 00458f34 f   libcpmt:xlocale.obj
 0001:0005827a       ?_Getmfld@?$money_get@DV?$istreambuf_iterator@DU?$char_traits@D@std@@@std@@@std@@ABE?AV?$basic_string@DU?$char_traits@D@std@@V?$allocator@D@2@@2@AAV?$istreambuf_iterator@DU?$char_traits@D@std@@@2@0_NAAVios_base@2@@Z 0045927a f i libcpmt:xlocale.obj
 0001:00058a0c       ?_Putmfld@?$money_put@DV?$ostreambuf_iterator@DU?$char_traits@D@std@@@std@@@std@@ABE?AV?$ostreambuf_iterator@DU?$char_traits@D@std@@@2@V32@_NAAVios_base@2@D1V?$basic_string@DU?$char_traits@D@std@@V?$allocator@D@2@@2@@Z 00459a0c f i libcpmt:xlocale.obj
 0001:00058f9b       ?do_get@?$money_get@DV?$istreambuf_iterator@DU?$char_traits@D@std@@@std@@@std@@MBE?AV?$istreambuf_iterator@DU?$char_traits@D@std@@@2@V32@0_NAAVios_base@2@AAHAAO@Z 00459f9b f i libcpmt:xlocale.obj
 0001:000590c2       ?do_get@?$money_get@DV?$istreambuf_iterator@DU?$char_traits@D@std@@@std@@@std@@MBE?AV?$istreambuf_iterator@DU?$char_traits@D@std@@@2@V32@0_NAAVios_base@2@AAHAAV?$basic_string@DU?$char_traits@D@std@@V?$allocator@D@2@@2@@Z 0045a0c2 f i libcpmt:xlocale.obj
 0001:0005913e       ?do_put@?$money_put@DV?$ostreambuf_iterator@DU?$char_traits@D@std@@@std@@@std@@MBE?AV?$ostreambuf_iterator@DU?$char_traits@D@std@@@2@V32@_NAAVios_base@2@DO@Z 0045a13e f i libcpmt:xlocale.obj
 0001:00059249       ?do_put@?$money_put@DV?$ostreambuf_iterator@DU?$char_traits@D@std@@@std@@@std@@MBE?AV?$ostreambuf_iterator@DU?$char_traits@D@std@@@2@V32@_NAAVios_base@2@DABV?$basic_string@DU?$char_traits@D@std@@V?$allocator@D@2@@2@@Z 0045a249 f i libcpmt:xlocale.obj
 0001:000592f3       __Strcoll                  0045a2f3 f   libcpmt:xstrcoll.obj
 0001:00059384       __Getcoll                  0045a384 f   libcpmt:xstrcoll.obj
 0001:00059398       __Getdateorder             0045a398 f   libcpmt:xdateord.obj
 0001:000593e1       __Getwctype                0045a3e1 f   libcpmt:xgetwctype.obj
 0001:0005940e       __Getwctypes               0045a40e f   libcpmt:xgetwctype.obj
 0001:00059439       __Towlower                 0045a439 f   libcpmt:xtowlower.obj
 0001:0005949d       __Towupper                 0045a49d f   libcpmt:xtowupper.obj
 0001:00059500       __Wcscoll                  0045a500 f   libcpmt:xwcscoll.obj
 0001:000595ac       __Wcsxfrm                  0045a5ac f   libcpmt:xwcsxfrm.obj
 0001:00059683       __Strxfrm                  0045a683 f   libcpmt:xstrxfrm.obj
 0001:0005972d       __CxxThrowException@8      0045a72d f   LIBCMT:throw.obj
 0001:00059777       ??1type_info@@UAE@XZ       0045a777 f   LIBCMT:typinfo.obj
 0001:00059785       ??_Etype_info@@UAEPAXI@Z   0045a785 f i LIBCMT:typinfo.obj
 0001:00059785       ??_Gtype_info@@UAEPAXI@Z   0045a785 f i LIBCMT:typinfo.obj
 0001:000597a1       ??8type_info@@QBE_NABV0@@Z 0045a7a1 f   LIBCMT:typinfo.obj
 0001:000597bc       ??0exception@std@@QAE@XZ   0045a7bc f   LIBCMT:stdexcpt.obj
 0001:000597cd       ??0exception@std@@QAE@ABQBD@Z 0045a7cd f   LIBCMT:stdexcpt.obj
 0001:0005981b       ??0exception@std@@QAE@ABQBDH@Z 0045a81b f   LIBCMT:stdexcpt.obj
 0001:00059833       ??0exception@std@@QAE@ABV01@@Z 0045a833 f   LIBCMT:stdexcpt.obj
 0001:0005988b       ??1exception@std@@UAE@XZ   0045a88b f   LIBCMT:stdexcpt.obj
 0001:000598a1       ?what@exception@std@@UBEPBDXZ 0045a8a1 f   LIBCMT:stdexcpt.obj
 0001:000598ae       ??0bad_cast@std@@QAE@PBD@Z 0045a8ae f   LIBCMT:stdexcpt.obj
 0001:000598c7       ??0bad_cast@std@@QAE@ABV01@@Z 0045a8c7 f   LIBCMT:stdexcpt.obj
 0001:000598df       ??1bad_cast@std@@UAE@XZ    0045a8df f   LIBCMT:stdexcpt.obj
 0001:000598ea       ??_Gexception@std@@UAEPAXI@Z 0045a8ea f i LIBCMT:stdexcpt.obj
 0001:000598ea       ??_Eexception@std@@UAEPAXI@Z 0045a8ea f i LIBCMT:stdexcpt.obj
 0001:00059906       ??_Gbad_cast@std@@UAEPAXI@Z 0045a906 f i LIBCMT:stdexcpt.obj
 0001:00059906       ??_Ebad_cast@std@@UAEPAXI@Z 0045a906 f i LIBCMT:stdexcpt.obj
 0001:00059928       ??3@YAXPAX@Z               0045a928 f   LIBCMT:delete.obj
 0001:0005992d       _memcpy_s                  0045a92d f   LIBCMT:memcpy_s.obj
 0001:000599a8       _memmove_s                 0045a9a8 f   LIBCMT:memmove_s.obj
 0001:00059a03       ??2@YAPAXI@Z               0045aa03 f   LIBCMT:new.obj
 0001:00059a6d       ?_JumpToContinuation@@YGXPAXPAUEHRegistrationNode@@@Z 0045aa6d f   LIBCMT:trnsctrl.obj
 0001:00059a9d       ?_CallMemberFunction2@@YGXPAX00H@Z 0045aa9d f   LIBCMT:trnsctrl.obj
 0001:00059a9d       ?_CallMemberFunction1@@YGXPAX00@Z 0045aa9d f   LIBCMT:trnsctrl.obj
 0001:00059a9d       ?_CallMemberFunction0@@YGXPAX0@Z 0045aa9d f   LIBCMT:trnsctrl.obj
 0001:00059aa4       ?_UnwindNestedFrames@@YGXPAUEHRegistrationNode@@PAUEHExceptionRecord@@@Z 0045aaa4 f   LIBCMT:trnsctrl.obj
 0001:00059af6       ___CxxFrameHandler3        0045aaf6 f   LIBCMT:trnsctrl.obj
 0001:00059b5c       ?_CallSETranslator@@YAHPAUEHExceptionRecord@@PAUEHRegistrationNode@@PAX2PBU_s_FuncInfo@@H1@Z 0045ab5c f   LIBCMT:trnsctrl.obj
 0001:00059cce       ?_GetRangeOfTrysToCheck@@YAPBU_s_TryBlockMapEntry@@PBU_s_FuncInfo@@HHPAI1@Z 0045acce f   LIBCMT:trnsctrl.obj
 0001:00059d41       __CreateFrameInfo          0045ad41 f   LIBCMT:trnsctrl.obj
 0001:00059d69       __IsExceptionObjectToBeDestroyed 0045ad69 f   LIBCMT:trnsctrl.obj
 0001:00059d8a       __FindAndUnlinkFrame       0045ad8a f   LIBCMT:trnsctrl.obj
 0001:00059dd6       ?_CallCatchBlock2@@YAPAXPAUEHRegistrationNode@@PBU_s_FuncInfo@@PAXHK@Z 0045add6 f   LIBCMT:trnsctrl.obj
 0001:00059e34       @__security_check_cookie@4 0045ae34 f   LIBCMT:secchk.obj
 0001:00059e43       __initp_misc_invarg        0045ae43 f   LIBCMT:invarg.obj
 0001:00059e4d       __invoke_watson            0045ae4d f   LIBCMT:invarg.obj
 0001:00059f49       __set_invalid_parameter_handler 0045af49 f   LIBCMT:invarg.obj
 0001:00059f6b       __invalid_parameter        0045af6b f   LIBCMT:invarg.obj
 0001:00059f8f       __invalid_parameter_noinfo 0045af8f f   LIBCMT:invarg.obj
 0001:00059f9f       __snprintf                 0045af9f f   LIBCMT:snprintf.obj
 0001:0005a04c       __purecall                 0045b04c f   LIBCMT:purevirt.obj
 0001:0005a076       _sprintf                   0045b076 f   LIBCMT:sprintf.obj
 0001:0005a0f1       _sprintf_s                 0045b0f1 f   LIBCMT:sprintf.obj
 0001:0005a10d       __endthreadex              0045b10d f   LIBCMT:threadex.obj
 0001:0005a207       __beginthreadex            0045b207 f   LIBCMT:threadex.obj
 0001:0005a2b5       __flush                    0045b2b5 f   LIBCMT:fflush.obj
 0001:0005a317       __fflush_nolock            0045b317 f   LIBCMT:fflush.obj
 0001:0005a433       _fflush                    0045b433 f   LIBCMT:fflush.obj
 0001:0005a486       __flushall                 0045b486 f   LIBCMT:fflush.obj
 0001:0005a48f       _fprintf                   0045b48f f   LIBCMT:fprintf.obj
 0001:0005a5de       _vfprintf_helper           0045b5de f   LIBCMT:vfprintf.obj
 0001:0005a72c       _vfprintf                  0045b72c f   LIBCMT:vfprintf.obj
 0001:0005a748       ___iob_func                0045b748 f   LIBCMT:_file.obj
 0001:0005a74e       ___initstdio               0045b74e f   LIBCMT:_file.obj
 0001:0005a7ff       ___endstdio                0045b7ff f   LIBCMT:_file.obj
 0001:0005a81f       __lock_file                0045b81f f   LIBCMT:_file.obj
 0001:0005a85b       __lock_file2               0045b85b f   LIBCMT:_file.obj
 0001:0005a889       __unlock_file              0045b889 f   LIBCMT:_file.obj
 0001:0005a8bf       __unlock_file2             0045b8bf f   LIBCMT:_file.obj
 0001:0005a9a2       ___onexitinit              0045b9a2 f   LIBCMT:onexit.obj
 0001:0005a9d1       __onexit                   0045b9d1 f   LIBCMT:onexit.obj
 0001:0005aa0d       _atexit                    0045ba0d f   LIBCMT:onexit.obj
 0001:0005aa20       _memset                    0045ba20 f   LIBCMT:memset.obj
 0001:0005aa9a       ??_V@YAXPAX@Z              0045ba9a f   LIBCMT:delete2.obj
 0001:0005aa9f       _free                      0045ba9f f   LIBCMT:free.obj
 0001:0005ab2d       _fgetc                     0045bb2d f   LIBCMT:fgetc.obj
 0001:0005ac64       _fputc                     0045bc64 f   LIBCMT:fputc.obj
 0001:0005ada3       __ungetc_nolock            0045bda3 f   LIBCMT:ungetc.obj
 0001:0005aec1       _ungetc                    0045bec1 f   LIBCMT:ungetc.obj
 0001:0005af33       _setvbuf                   0045bf33 f   LIBCMT:setvbuf.obj
 0001:0005b031       __fwrite_nolock            0045c031 f   LIBCMT:fwrite.obj
 0001:0005b190       _fwrite                    0045c190 f   LIBCMT:fwrite.obj
 0001:0005b212       _fgetpos                   0045c212 f   LIBCMT:fgetpos.obj
 0001:0005b27d       __fseek_nolock             0045c27d f   LIBCMT:fseek.obj
 0001:0005b304       _fseek                     0045c304 f   LIBCMT:fseek.obj
 0001:0005b389       _fsetpos                   0045c389 f   LIBCMT:fsetpos.obj
 0001:0005b3cb       __fclose_nolock            0045c3cb f   LIBCMT:fclose.obj
 0001:0005b43d       _fclose                    0045c43d f   LIBCMT:fclose.obj
 0001:0005b4b9       _localeconv                0045c4b9 f   LIBCMT:lconv.obj
 0001:0005b4e0       _memchr                    0045c4e0 f   LIBCMT:memchr.obj
 0001:0005b590       _strcspn                   0045c590 f   LIBCMT:strcspn.obj
 0001:0005b5d6       __initp_misc_winxfltr      0045c5d6 f   LIBCMT:winxfltr.obj
 0001:0005b5d6       __fpclear                  0045c5d6 f   LIBCMT:fpinit.obj
 0001:0005b5d7       __cfltcvt_init             0045c5d7 f   LIBCMT:fpinit.obj
 0001:0005b637       __fpmath                   0045c637 f   LIBCMT:fpinit.obj
 0001:0005b655       _rename                    0045c655 f   LIBCMT:rename.obj
 0001:0005b683       _remove                    0045c683 f   LIBCMT:unlink.obj
 0001:0005b6ad       __unlink                   0045c6ad f   LIBCMT:unlink.obj
 0001:0005b6ad       _unlink                    0045c6ad f   LIBCMT:unlink.obj
 0001:0005b6b2       _atol                      0045c6b2 f   LIBCMT:atox.obj
 0001:0005b6c3       _atoi                      0045c6c3 f   LIBCMT:atox.obj
 0001:0005b6c8       __vsnprintf_l              0045c6c8 f   LIBCMT:vsnprint.obj
 0001:0005b779       __vsnprintf                0045c779 f   LIBCMT:vsnprint.obj
 0001:0005b7a0       _memcpy                    0045c7a0 f   LIBCMT:memcpy.obj
 0001:0005bb05       __fsopen                   0045cb05 f   LIBCMT:fopen.obj
 0001:0005bbc9       _fopen                     0045cbc9 f   LIBCMT:fopen.obj
 0001:0005bc44       _sscanf                    0045cc44 f   LIBCMT:sscanf.obj
 0001:0005bc63       __time64                   0045cc63 f   LIBCMT:time64.obj
 0001:0005bc9f       ??0_LocaleUpdate@@QAE@PAUlocaleinfo_struct@@@Z 0045cc9f f i LIBCMT:strtol.obj
 0001:0005bf4c       _strtol                    0045cf4c f   LIBCMT:strtol.obj
 0001:0005bf80       _strncpy                   0045cf80 f   LIBCMT:strncpy.obj
 0001:0005c17a       __stat64i32                0045d17a f   LIBCMT:stati32.obj
 0001:0005c4ac       __mkdir                    0045d4ac f   LIBCMT:mkdir.obj
 0001:0005c4d8       __access_s                 0045d4d8 f   LIBCMT:access.obj
 0001:0005c55f       __access                   0045d55f f   LIBCMT:access.obj
 0001:0005c573       _strncmp                   0045d573 f   LIBCMT:strncmp.obj
 0001:0005c821       __splitpath                0045d821 f   LIBCMT:splitpat.obj
 0001:0005c86b       __mbstowcs_l_helper        0045d86b f   LIBCMT:mbstowcs.obj
 0001:0005c9f3       _mbstowcs                  0045d9f3 f   LIBCMT:mbstowcs.obj
 0001:0005ca1b       __mbstowcs_s_l             0045da1b f   LIBCMT:mbstowcs.obj
 0001:0005cb11       _mbstowcs_s                0045db11 f   LIBCMT:mbstowcs.obj
 0001:0005cb2f       ___freetlocinfo            0045db2f f   LIBCMT:setlocal.obj
 0001:0005cc6f       ___addlocaleref            0045dc6f f   LIBCMT:setlocal.obj
 0001:0005ccf5       ___removelocaleref         0045dcf5 f   LIBCMT:setlocal.obj
 0001:0005cde3       ___updatetlocinfo          0045dde3 f   LIBCMT:setlocal.obj
 0001:0005ceac       __free_locale              0045deac f   LIBCMT:setlocal.obj
 0001:0005cf42       __strcats                  0045df42 f   LIBCMT:setlocal.obj
 0001:0005cf80       ___lc_strtolc              0045df80 f   LIBCMT:setlocal.obj
 0001:0005d0a9       ___lc_lctostr              0045e0a9 f   LIBCMT:setlocal.obj
 0001:0005d285       __expandlocale             0045e285 f   LIBCMT:setlocal.obj
 0001:0005d91d       __create_locale            0045e91d f   LIBCMT:setlocal.obj
 0001:0005da10       _setlocale                 0045ea10 f   LIBCMT:setlocal.obj
 0001:0005db80       __toupper_l                0045eb80 f   LIBCMT:toupper.obj
 0001:0005dc98       _toupper                   0045ec98 f   LIBCMT:toupper.obj
 0001:0005dcbf       __tolower_l                0045ecbf f   LIBCMT:tolower.obj
 0001:0005ddd6       _tolower                   0045edd6 f   LIBCMT:tolower.obj
 0001:0005ddfd       __gmtime64_s               0045edfd f   LIBCMT:gmtime64.obj
 0001:0005e039       __gmtime64                 0045f039 f   LIBCMT:gmtime64.obj
 0001:0005e05d       __localtime64_s            0045f05d f   LIBCMT:loctim64.obj
 0001:0005e322       __localtime64              0045f322 f   LIBCMT:loctim64.obj
 0001:0005e346       __ftime64_s                0045f346 f   LIBCMT:ftime64.obj
 0001:0005e498       __ftime64                  0045f498 f   LIBCMT:ftime64.obj
 0001:0005e4a0       __allmul                   0045f4a0 f   LIBCMT:llmul.obj
 0001:0005e4e0       __alldiv                   0045f4e0 f   LIBCMT:lldiv.obj
 0001:0005e590       __alldvrm                  0045f590 f   LIBCMT:lldvrm.obj
 0001:0005e66f       __freea                    0045f66f f i LIBCMT:strftime.obj
 0001:0005e68a       __Getdays_l                0045f68a f   LIBCMT:strftime.obj
 0001:0005e788       __Getdays                  0045f788 f   LIBCMT:strftime.obj
 0001:0005e791       __Getmonths_l              0045f791 f   LIBCMT:strftime.obj
 0001:0005e88f       __Getmonths                0045f88f f   LIBCMT:strftime.obj
 0001:0005e898       __Gettnames_l              0045f898 f   LIBCMT:strftime.obj
 0001:0005ebed       __Gettnames                0045fbed f   LIBCMT:strftime.obj
 0001:0005f4d2       __Strftime_l               004604d2 f   LIBCMT:strftime.obj
 0001:0005f681       _strftime                  00460681 f   LIBCMT:strftime.obj
 0001:0005f69e       __Strftime                 0046069e f   LIBCMT:strftime.obj
 0001:0005f6bc       ?__ArrayUnwind@@YGXPAXIHP6EX0@Z@Z 004606bc f   LIBCMT:ehvecdtr.obj
 0001:0005f71a       ??_M@YGXPAXIHP6EX0@Z@Z     0046071a f   LIBCMT:ehvecdtr.obj
 0001:0005f77d       ??_L@YGXPAXIHP6EX0@Z1@Z    0046077d f   LIBCMT:ehvecctr.obj
 0001:0005f7f0       _strstr                    004607f0 f   LIBCMT:strstr.obj
 0001:0005f876       _printf                    00460876 f   LIBCMT:printf.obj
 0001:0005f925       __get_printf_count_output  00460925 f   LIBCMT:printf.obj
 0001:0005f93b       _strncpy_s                 0046093b f   LIBCMT:strncpy_s.obj
 0001:0005fc82       __strtoi64                 00460c82 f   LIBCMT:strtoq.obj
 0001:0005fcab       __strtoui64                00460cab f   LIBCMT:strtoq.obj
 0001:0005fcd5       __amsg_exit                00460cd5 f   LIBCMT:crt0dat.obj
 0001:0005fcf9       ___crtCorExitProcess       00460cf9 f   LIBCMT:crt0dat.obj
 0001:0005fd1f       ___crtExitProcess          00460d1f f   LIBCMT:crt0dat.obj
 0001:0005fd34       __lockexit                 00460d34 f   LIBCMT:crt0dat.obj
 0001:0005fd3d       __unlockexit               00460d3d f   LIBCMT:crt0dat.obj
 0001:0005fd5e       __initterm_e               00460d5e f   LIBCMT:crt0dat.obj
 0001:0005fd7e       __get_osplatform           00460d7e f   LIBCMT:crt0dat.obj
 0001:0005fdb5       __get_winmajor             00460db5 f   LIBCMT:crt0dat.obj
 0001:0005fdf1       __cinit                    00460df1 f   LIBCMT:crt0dat.obj
 0001:0005ff65       _exit                      00460f65 f   LIBCMT:crt0dat.obj
 0001:0005ff76       __exit                     00460f76 f   LIBCMT:crt0dat.obj
 0001:0005ff87       __cexit                    00460f87 f   LIBCMT:crt0dat.obj
 0001:0005ff96       __c_exit                   00460f96 f   LIBCMT:crt0dat.obj
 0001:0005ffa5       __init_pointers            00460fa5 f   LIBCMT:crt0dat.obj
 0001:00060000       _memmove                   00461000 f   LIBCMT:memmove.obj
 0001:00060365       __vsnprintf_helper         00461365 f   LIBCMT:vsnprnc.obj
 0001:0006042f       __vsprintf_s_l             0046142f f   LIBCMT:vsnprnc.obj
 0001:000604b5       __ftell_nolock             004614b5 f   LIBCMT:ftell.obj
 0001:0006064d       __isupper_l                0046164d f i LIBCMT:_ctype.obj
 0001:0006069c       _isupper                   0046169c f i LIBCMT:_ctype.obj
 0001:000606c5       __islower_l                004616c5 f i LIBCMT:_ctype.obj
 0001:00060714       _islower                   00461714 f i LIBCMT:_ctype.obj
 0001:0006073d       __isdigit_l                0046173d f i LIBCMT:_ctype.obj
 0001:0006078c       _isdigit                   0046178c f i LIBCMT:_ctype.obj
 0001:000607b5       __isxdigit_l               004617b5 f i LIBCMT:_ctype.obj
 0001:00060809       _isxdigit                  00461809 f i LIBCMT:_ctype.obj
 0001:00060834       __isspace_l                00461834 f i LIBCMT:_ctype.obj
 0001:00060883       _isspace                   00461883 f i LIBCMT:_ctype.obj
 0001:000608c0       _strchr                    004618c0 f   LIBCMT:strchr.obj
 0001:000608c6       ___from_strstr_to_strchr   004618c6     LIBCMT:strchr.obj
 0001:0006097e       _V6_HeapAlloc              0046197e f   LIBCMT:malloc.obj
 0001:000609cd       _malloc                    004619cd f   LIBCMT:malloc.obj
 0001:00060a90       _realloc                   00461a90 f   LIBCMT:realloc.obj
 0001:00060cab       __recalloc                 00461cab f   LIBCMT:realloc.obj
 0001:00060d24       ___ascii_stricmp           00461d24 f   LIBCMT:stricmp.obj
 0001:00060d59       __stricmp_l                00461d59 f   LIBCMT:stricmp.obj
 0001:00060e2c       _stricmp                   00461e2c f   LIBCMT:stricmp.obj
 0001:00060e2c       __stricmp                  00461e2c f   LIBCMT:stricmp.obj
 0001:00060e7c       __ctime64                  00461e7c f   LIBCMT:ctime64.obj
 0001:00060ee0       __ftol2_sse                00461ee0 f   LIBCMT:ftol2.obj
 0001:00060ee9       __ftol2_pentium4           00461ee9 f   LIBCMT:ftol2.obj
 0001:00060efc       __ftol2_sse_excpt          00461efc f   LIBCMT:ftol2.obj
 0001:00060f16       __ftol2                    00461f16 f   LIBCMT:ftol2.obj
 0001:00060f8b       __strtod_l                 00461f8b f   LIBCMT:strtod.obj
 0001:000610a6       _strtod                    004620a6 f   LIBCMT:strtod.obj
 0001:000610b9       __strdup                   004620b9 f   LIBCMT:strdup.obj
 0001:00061110       __alloca_probe             00462110     LIBCMT:chkstk.obj
 0001:00061110       __chkstk                   00462110 f   LIBCMT:chkstk.obj
 0001:0006113b       __getenv_helper_nolock     0046213b f   LIBCMT:getenv.obj
 0001:000611bc       _getenv                    004621bc f   LIBCMT:getenv.obj
 0001:0006145a       _mainCRTStartup            0046245a f   LIBCMT:crt0.obj
 0001:00061470       _strlen                    00462470 f   LIBCMT:strlen.obj
 0001:000614fb       __EH_prolog3               004624fb f   LIBCMT:ehprolg3.obj
 0001:0006152e       __EH_prolog3_catch         0046252e f   LIBCMT:ehprolg3.obj
 0001:00061564       __EH_prolog3_GS            00462564 f   LIBCMT:ehprolg3.obj
 0001:0006159a       __EH_epilog3               0046259a f   LIBCMT:ehprolg3.obj
 0001:000615ae       __EH_epilog3_GS            004625ae f   LIBCMT:ehprolg3.obj
 0001:000615bd       ??1bad_exception@std@@UAE@XZ 004625bd f i LIBCMT:frame.obj
 0001:000615c8       ??_Gbad_exception@std@@UAEPAXI@Z 004625c8 f i LIBCMT:frame.obj
 0001:000615c8       ??_Ebad_exception@std@@UAEPAXI@Z 004625c8 f i LIBCMT:frame.obj
 0001:000615ea       ___TypeMatch               004625ea f   LIBCMT:frame.obj
 0001:00061646       ___FrameUnwindFilter       00462646 f   LIBCMT:frame.obj
 0001:0006168a       ___FrameUnwindToState      0046268a f   LIBCMT:frame.obj
 0001:000617b0       ___DestructExceptionObject 004627b0 f   LIBCMT:frame.obj
 0001:00061804       ___AdjustPointer           00462804 f   LIBCMT:frame.obj
 0001:00061829       ?__uncaught_exception@@YA_NXZ 00462829 f   LIBCMT:frame.obj
 0001:00061a9a       ___BuildCatchObjectHelper  00462a9a f   LIBCMT:frame.obj
 0001:00061c19       ___BuildCatchObject        00462c19 f   LIBCMT:frame.obj
 0001:0006215e       ??0bad_exception@std@@QAE@ABV01@@Z 0046315e f i LIBCMT:frame.obj
 0001:00062176       ___InternalCxxFrameHandler 00463176 f   LIBCMT:frame.obj
 0001:000625fc       ___crtLCMapStringA         004635fc f   LIBCMT:a_map.obj
 0001:0006263f       ___pctype_func             0046363f f   LIBCMT:ctype.obj
 0001:00062668       ___init_ctype              00463668 f   LIBCMT:initctyp.obj
 0001:000629fd       ____mb_cur_max_func        004639fd f   LIBCMT:initctyp.obj
 0001:00062a26       ____mb_cur_max_l_func      00463a26 f   LIBCMT:initctyp.obj
 0001:00062a3c       ____lc_codepage_func       00463a3c f   LIBCMT:initctyp.obj
 0001:00062a62       ____lc_collate_cp_func     00463a62 f   LIBCMT:initctyp.obj
 0001:00062a88       ____lc_handle_func         00463a88 f   LIBCMT:initctyp.obj
 0001:00062aae       __malloc_crt               00463aae f   LIBCMT:crtheap.obj
 0001:00062aee       __calloc_crt               00463aee f   LIBCMT:crtheap.obj
 0001:00062b36       __realloc_crt              00463b36 f   LIBCMT:crtheap.obj
 0001:00062b81       __recalloc_crt             00463b81 f   LIBCMT:crtheap.obj
 0001:00062bd1       __get_errno_from_oserr     00463bd1 f   LIBCMT:dosmap.obj
 0001:00062c0c       __errno                    00463c0c f   LIBCMT:dosmap.obj
 0001:00062c1f       ___doserrno                00463c1f f   LIBCMT:dosmap.obj
 0001:00062c32       __dosmaperr                00463c32 f   LIBCMT:dosmap.obj
 0001:00062c50       __wcstombs_l_helper        00463c50 f   LIBCMT:wcstombs.obj
 0001:00062e96       __wcstombs_s_l             00463e96 f   LIBCMT:wcstombs.obj
 0001:00062f47       _wcstombs_s                00463f47 f   LIBCMT:wcstombs.obj
 0001:00062f65       __wfsopen                  00463f65 f   LIBCMT:wfopen.obj
 0001:0006302b       _memcmp                    0046402b f   LIBCMT:memcmp.obj
 0001:000646ab       _abort                     004656ab f   LIBCMT:abort.obj
 0001:0006479e       __set_abort_behavior       0046579e f   LIBCMT:abort.obj
 0001:00064897       __itoa_s                   00465897 f   LIBCMT:xtoas.obj
 0001:000649b5       __ui64toa_s                004659b5 f   LIBCMT:xtoas.obj
 0001:000649d2       _wcslen                    004659d2 f   LIBCMT:wcslen.obj
 0001:00064d71       ___crtCompareStringA       00465d71 f   LIBCMT:a_cmp.obj
 0001:00064fd5       ___crtGetStringTypeW       00465fd5 f   LIBCMT:w_str.obj
 0001:00065274       ___crtLCMapStringW         00466274 f   LIBCMT:w_map.obj
 0001:00065520       ___crtCompareStringW       00466520 f   LIBCMT:w_cmp.obj
 0001:00065560       ?_Type_info_dtor@type_info@@CAXPAV1@@Z 00466560 f   LIBCMT:typname.obj
 0001:000655d0       _strcmp                    004665d0 f   LIBCMT:strcmp.obj
 0001:00065658       _strcpy_s                  00466658 f   LIBCMT:strcpy_s.obj
 0001:000656bd       __initp_heap_handler       004666bd f   LIBCMT:handler.obj
 0001:000656c7       __callnewh                 004666c7 f   LIBCMT:handler.obj
 0001:00065755       __encode_pointer           00466755 f   LIBCMT:tidtable.obj
 0001:000657c3       __encoded_null             004667c3 f   LIBCMT:tidtable.obj
 0001:000657cc       __decode_pointer           004667cc f   LIBCMT:tidtable.obj
 0001:0006583a       ___crtTlsAlloc@4           0046683a f   LIBCMT:tidtable.obj
 0001:00065843       ___fls_getvalue@4          00466843 f   LIBCMT:tidtable.obj
 0001:00065858       ___get_flsindex            00466858 f   LIBCMT:tidtable.obj
 0001:0006585e       ___set_flsgetvalue         0046685e f   LIBCMT:tidtable.obj
 0001:00065890       ___fls_setvalue@8          00466890 f   LIBCMT:tidtable.obj
 0001:000658a9       __mtterm                   004668a9 f   LIBCMT:tidtable.obj
 0001:000658e6       __initptd                  004668e6 f   LIBCMT:tidtable.obj
 0001:000659a5       __getptd_noexit            004669a5 f   LIBCMT:tidtable.obj
 0001:00065a1c       __getptd                   00466a1c f   LIBCMT:tidtable.obj
 0001:00065a34       __freefls@4                00466a34 f   LIBCMT:tidtable.obj
 0001:00065b55       __freeptd                  00466b55 f   LIBCMT:tidtable.obj
 0001:00065bbe       __mtinit                   00466bbe f   LIBCMT:tidtable.obj
 0001:00065d42       ?terminate@@YAXXZ          00466d42 f   LIBCMT:hooks.obj
 0001:00065d7b       ?unexpected@@YAXXZ         00466d7b f   LIBCMT:hooks.obj
 0001:00065d8e       ?_inconsistency@@YAXXZ     00466d8e f   LIBCMT:hooks.obj
 0001:00065dc5       __initp_eh_hooks           00466dc5 f   LIBCMT:hooks.obj
 0001:00065de0       __CallSettingFrame@12      00466de0 f   LIBCMT:lowhelpr.obj
 0001:00065e07       __NLG_Return               00466e07     LIBCMT:lowhelpr.obj
 0001:00065e2c       ___report_gsfailure        00466e2c f   LIBCMT:gs_report.obj
 0001:00065f30       __crt_debugger_hook        00466f30 f   LIBCMT:dbghook.obj
 0001:00065f38       __flsbuf                   00466f38 f   LIBCMT:_flsbuf.obj
 0001:000660e2       __output_l                 004670e2 f   LIBCMT:output.obj
 0001:00066a76       __NMSG_WRITE               00467a76 f   LIBCMT:crt0msg.obj
 0001:00066c16       __FF_MSGBANNER             00467c16 f   LIBCMT:crt0msg.obj
 0001:00066c4f       ___getlocaleinfo           00467c4f f   LIBCMT:inithelp.obj
 0001:00066da9       __initp_misc_purevirt      00467da9 f   LIBCMT:inithelp.obj
 0001:00066dc0       __ValidateImageBase        00467dc0 f   LIBCMT:pesect.obj
 0001:00066df0       __FindPESection            00467df0 f   LIBCMT:pesect.obj
 0001:00066e40       __IsNonwritableInCurrentImage 00467e40 f   LIBCMT:pesect.obj
 0001:00066efb       __XcptFilter               00467efb f   LIBCMT:winxfltr.obj
 0001:0006705c       __SEH_prolog4              0046805c f   LIBCMT:sehprolg4.obj
 0001:000670a1       __SEH_epilog4              004680a1 f   LIBCMT:sehprolg4.obj
 0001:000670c0       __except_handler4          004680c0 f   LIBCMT:chandler4.obj
 0001:00067256       __write_nolock             00468256 f   LIBCMT:write.obj
 0001:0006781c       __write                    0046881c f   LIBCMT:write.obj
 0001:000678f8       __fileno                   004688f8 f   LIBCMT:fileno.obj
 0001:00067925       __commit                   00468925 f   LIBCMT:commit.obj
 0001:00067a06       __mtinitlocks              00468a06 f   LIBCMT:mlock.obj
 0001:00067a4f       __mtdeletelocks            00468a4f f   LIBCMT:mlock.obj
 0001:00067aa4       __unlock                   00468aa4 f   LIBCMT:mlock.obj
 0001:00067ab9       __mtinitlocknum            00468ab9 f   LIBCMT:mlock.obj
 0001:00067b7c       __lock                     00468b7c f   LIBCMT:mlock.obj
 0001:00067bad       __stbuf                    00468bad f   LIBCMT:_sftbuf.obj
 0001:00067c43       __ftbuf                    00468c43 f   LIBCMT:_sftbuf.obj
 0001:00067c72       __ioinit                   00468c72 f   LIBCMT:ioinit.obj
 0001:00067f09       __output_s_l               00468f09 f   LIBCMT:outputs.obj
 0001:000688b9       __fcloseall                004698b9 f   LIBCMT:closeall.obj
 0001:00068958       __msize                    00469958 f   LIBCMT:msize.obj
 0001:00068a52       __VEC_memzero              00469a52 f   LIBCMT:p4_memset.obj
 0001:00068ae1       __sse2_mathfcns_init       00469ae1 f   LIBCMT:mathfcns.obj
 0001:00068af5       ___heap_select             00469af5 f   LIBCMT:heapinit.obj
 0001:00068b50       __heap_init                00469b50 f   LIBCMT:heapinit.obj
 0001:00068baa       ___sbh_heap_init           00469baa f   LIBCMT:sbheap.obj
 0001:00068bf2       ___sbh_find_block          00469bf2 f   LIBCMT:sbheap.obj
 0001:00068c1d       ___sbh_free_block          00469c1d f   LIBCMT:sbheap.obj
 0001:00068f31       ___sbh_alloc_new_region    00469f31 f   LIBCMT:sbheap.obj
 0001:00068fe1       ___sbh_alloc_new_group     00469fe1 f   LIBCMT:sbheap.obj
 0001:000690e7       ___sbh_resize_block        0046a0e7 f   LIBCMT:sbheap.obj
 0001:000693c6       ___sbh_alloc_block         0046a3c6 f   LIBCMT:sbheap.obj
 0001:000696a9       __filbuf                   0046a6a9 f   LIBCMT:_filbuf.obj
 0001:000697c9       __getbuf                   0046a7c9 f   LIBCMT:_getbuf.obj
 0001:0006980d       __freebuf                  0046a80d f   LIBCMT:_freebuf.obj
 0001:00069839       __ftelli64_nolock          0046a839 f   LIBCMT:ftelli64.obj
 0001:00069b15       __ftelli64                 0046ab15 f   LIBCMT:ftelli64.obj
 0001:00069b5f       __lseek_nolock             0046ab5f f   LIBCMT:lseek.obj
 0001:00069bd1       __lseek                    0046abd1 f   LIBCMT:lseek.obj
 0001:00069cad       __fseeki64_nolock          0046acad f   LIBCMT:fseeki64.obj
 0001:00069d46       __fseeki64                 0046ad46 f   LIBCMT:fseeki64.obj
 0001:00069d95       __close_nolock             0046ad95 f   LIBCMT:close.obj
 0001:00069e29       __close                    0046ae29 f   LIBCMT:close.obj
 0001:00069ef6       __forcdecpt_l              0046aef6 f   LIBCMT:cvt.obj
 0001:00069f67       __cropzeros_l              0046af67 f   LIBCMT:cvt.obj
 0001:00069fe7       __positive                 0046afe7 f   LIBCMT:cvt.obj
 0001:00069ffd       __fassign_l                0046affd f   LIBCMT:cvt.obj
 0001:0006a03d       __fassign                  0046b03d f   LIBCMT:cvt.obj
 0001:0006a071       __forcdecpt                0046b071 f   LIBCMT:cvt.obj
 0001:0006a07f       __cropzeros                0046b07f f   LIBCMT:cvt.obj
 0001:0006a1fa       __cftoe_l                  0046b1fa f   LIBCMT:cvt.obj
 0001:0006a2c8       __cftoe                    0046b2c8 f   LIBCMT:cvt.obj
 0001:0006a2e6       __cftoa_l                  0046b2e6 f   LIBCMT:cvt.obj
 0001:0006a74c       __cftof_l                  0046b74c f   LIBCMT:cvt.obj
 0001:0006a805       __cftog_l                  0046b805 f   LIBCMT:cvt.obj
 0001:0006a8fd       __cfltcvt_l                0046b8fd f   LIBCMT:cvt.obj
 0001:0006a983       __cfltcvt                  0046b983 f   LIBCMT:cvt.obj
 0001:0006a9a4       __initp_misc_cfltcvt_tab   0046b9a4 f   LIBCMT:cmiscdat.obj
 0001:0006a9c3       __setdefaultprecision      0046b9c3 f   LIBCMT:fp8.obj
 0001:0006a9ec       __ms_p5_test_fdiv          0046b9ec f   LIBCMT:testfdiv.obj
 0001:0006aa28       __ms_p5_mp_test_fdiv       0046ba28 f   LIBCMT:testfdiv.obj
 0001:0006aad8       __VEC_memcpy               0046bad8 f   LIBCMT:p4_memcpy.obj
 0001:0006abbb       __openfile                 0046bbbb f   LIBCMT:_open.obj
 0001:0006ae5b       __getstream                0046be5b f   LIBCMT:stream.obj
 0001:0006af8c       __local_unwind4            0046bf8c f   LIBCMT:exsup4.obj
 0001:0006b062       __seh_longjmp_unwind4@4    0046c062 f   LIBCMT:exsup4.obj
 0001:0006b07e       @_EH4_CallFilterFunc@8     0046c07e f   LIBCMT:exsup4.obj
 0001:0006b095       @_EH4_TransferToHandler@8  0046c095 f   LIBCMT:exsup4.obj
 0001:0006b0ae       @_EH4_GlobalUnwind@4       0046c0ae f   LIBCMT:exsup4.obj
 0001:0006b0c8       @_EH4_LocalUnwind@16       0046c0c8 f   LIBCMT:exsup4.obj
 0001:0006b16e       __input_l                  0046c16e f   LIBCMT:input.obj
 0001:0006bdc0       __aulldiv                  0046cdc0 f   LIBCMT:ulldiv.obj
 0001:0006c036       ___updatetmbcinfo          0046d036 f   LIBCMT:mbctype.obj
 0001:0006c154       __setmbcp_nolock           0046d154 f   LIBCMT:mbctype.obj
 0001:0006c32d       __setmbcp                  0046d32d f   LIBCMT:mbctype.obj
 0001:0006c4c7       ___initmbctable            0046d4c7 f   LIBCMT:mbctype.obj
 0001:0006c4e5       __isctype_l                0046d4e5 f   LIBCMT:isctype.obj
 0001:0006c59b       __fullpath                 0046d59b f   LIBCMT:fullpath.obj
 0001:0006c6a3       ___dtoxmode                0046d6a3 f   LIBCMT:stat.obj
 0001:0006c75c       ___loctotime64_t           0046d75c f   LIBCMT:dtoxtm64.obj
 0001:0006c9c5       __getdrive                 0046d9c5 f   LIBCMT:drive.obj
 0001:0006ca8b       __mbctolower_l             0046da8b f   LIBCMT:mbtolwr.obj
 0001:0006cb2f       __mbctolower               0046db2f f   LIBCMT:mbtolwr.obj
 0001:0006cb3d       __mbspbrk_l                0046db3d f   LIBCMT:mbspbrk.obj
 0001:0006cc07       __mbspbrk                  0046dc07 f   LIBCMT:mbspbrk.obj
 0001:0006cc6b       __ismbblead_l              0046dc6b f   LIBCMT:ismbbyte.obj
 0001:0006cc80       __ismbblead                0046dc80 f   LIBCMT:ismbbyte.obj
 0001:0006cc93       __mbsnbcpy_s               0046dc93 f   LIBCMT:mbsnbcpy_s.obj
 0001:0006ccae       __isleadbyte_l             0046dcae f i LIBCMT:_wctype.obj
 0001:0006cce4       _isleadbyte                0046dce4 f i LIBCMT:_wctype.obj
 0001:0006d10b       ___free_lc_time            0046e10b f   LIBCMT:inittime.obj
 0001:0006d29b       ___init_time               0046e29b f   LIBCMT:inittime.obj
 0001:0006d30e       ___free_lconv_num          0046e30e f   LIBCMT:initnum.obj
 0001:0006d34e       ___init_numeric            0046e34e f   LIBCMT:initnum.obj
 0001:0006d516       ___free_lconv_mon          0046e516 f   LIBCMT:initmon.obj
 0001:0006d59f       ___init_monetary           0046e59f f   LIBCMT:initmon.obj
 0001:0006d863       _strcat_s                  0046e863 f   LIBCMT:strcat_s.obj
 0001:0006de4e       ___get_qualified_locale    0046ee4e f   LIBCMT:getqloc.obj
 0001:0006e1e9       ___crtGetStringTypeA       0046f1e9 f   LIBCMT:a_str.obj
 0001:0006e230       _strpbrk                   0046f230 f   LIBCMT:strpbrk.obj
 0001:0006e270       __fltin2                   0046f270 f   LIBCMT:cfin.obj
 0001:0006e315       ___strgtold12_l            0046f315 f   LIBCMT:strgtold.obj
 0001:0006e9d5       ___getgmtimebuf            0046f9d5 f   LIBCMT:gmtime.obj
 0001:0006f109       ___tzset                   00470109 f   LIBCMT:tzset.obj
 0001:0006f158       __isindst                  00470158 f   LIBCMT:tzset.obj
 0001:0006f199       __get_daylight             00470199 f   LIBCMT:timeset.obj
 0001:0006f1cd       __get_dstbias              004701cd f   LIBCMT:timeset.obj
 0001:0006f201       __get_timezone             00470201 f   LIBCMT:timeset.obj
 0001:0006f235       ___daylight                00470235 f   LIBCMT:timeset.obj
 0001:0006f23b       ___dstbias                 0047023b f   LIBCMT:timeset.obj
 0001:0006f241       ___timezone                00470241 f   LIBCMT:timeset.obj
 0001:0006f247       ___tzname                  00470247 f   LIBCMT:timeset.obj
 0001:0006f250       __allrem                   00470250 f   LIBCMT:llrem.obj
 0001:0006f310       __aullrem                  00470310 f   LIBCMT:ullrem.obj
 0001:0006f390       __alloca_probe_16          00470390 f   LIBCMT:alloca16.obj
 0001:0006f3a6       __alloca_probe_8           004703a6     LIBCMT:alloca16.obj
 0001:0006f3bc       _strnlen                   004703bc f   LIBCMT:strlen_s.obj
 0001:0006f3e0       __aulldvrm                 004703e0 f   LIBCMT:ulldvrm.obj
 0001:0006f475       __RTC_Initialize           00470475 f   LIBCMT:initsect.obj
 0001:0006f499       __RTC_Terminate            00470499 f   LIBCMT:initsect.obj
 0001:0006f4bd       __initp_misc_winsig        004704bd f   LIBCMT:winsig.obj
 0001:0006f50a       ___get_sigabrt             0047050a f   LIBCMT:winsig.obj
 0001:0006f517       _raise                     00470517 f   LIBCMT:winsig.obj
 0001:0006f6c7       __initp_misc_rand_s        004706c7 f   LIBCMT:rand_s.obj
 0001:0006f6d1       __initp_misc_initcrit      004706d1 f   LIBCMT:initcrit.obj
 0001:0006f6eb       ___crtInitCritSecAndSpinCount 004706eb f   LIBCMT:initcrit.obj
 0001:0006f7b0       __read_nolock              004707b0 f   LIBCMT:read.obj
 0001:0006fd71       __read                     00470d71 f   LIBCMT:read.obj
 0001:0006fe6e       _asctime_s                 00470e6e f   LIBCMT:asctime.obj
 0001:0007005c       _asctime                   0047105c f   LIBCMT:asctime.obj
 0001:000700b0       __mbsnbicoll_l             004710b0 f   LIBCMT:mbsnbico.obj
 0001:0007019c       __mbsnbicoll               0047119c f   LIBCMT:mbsnbico.obj
 0001:000701b3       ___wtomb_environ           004711b3 f   LIBCMT:wtombenv.obj
 0001:00070248       __calloc_impl              00471248 f   LIBCMT:calloc.obj
 0001:00070366       _calloc                    00471366 f   LIBCMT:calloc.obj
 0001:000703a5       ?__CxxUnhandledExceptionFilter@@YGJPAU_EXCEPTION_POINTERS@@@Z 004713a5 f   LIBCMT:unhandld.obj
 0001:000703e2       ___CxxSetUnhandledExceptionFilter 004713e2 f   LIBCMT:unhandld.obj
 0001:000703f0       __setenvp                  004713f0 f   LIBCMT:stdenvp.obj
 0001:00070663       __setargv                  00471663 f   LIBCMT:stdargv.obj
 0001:0007071c       ___crtGetEnvironmentStringsA 0047171c f   LIBCMT:a_env.obj
 0001:00070851       ___security_init_cookie    00471851 f   LIBCMT:gs_support.obj
 0001:000708e5       ?_ValidateWrite@@YAHPAXI@Z 004718e5 f   LIBCMT:validate.obj
 0001:000708e5       ?_ValidateExecute@@YAHP6GHXZ@Z 004718e5 f   LIBCMT:validate.obj
 0001:000708e5       ?_ValidateRead@@YAHPBXI@Z  004718e5 f   LIBCMT:validate.obj
 0001:000708f2       ___ansicp                  004718f2 f   LIBCMT:convrtcp.obj
 0001:00070939       ___convertcp               00471939 f   LIBCMT:convrtcp.obj
 0001:00070aeb       __wopenfile                00471aeb f   LIBCMT:_wopen.obj
 0001:00070d78       __global_unwind2           00471d78 f   LIBCMT:exsup.obj
 0001:00070ddd       __local_unwind2            00471ddd f   LIBCMT:exsup.obj
 0001:00070e61       __abnormal_termination     00471e61 f   LIBCMT:exsup.obj
 0001:00070e84       __NLG_Notify1              00471e84 f   LIBCMT:exsup.obj
 0001:00070e8d       __NLG_Notify               00471e8d f   LIBCMT:exsup.obj
 0001:00070ea4       __NLG_Dispatch2            00471ea4     LIBCMT:exsup.obj
 0001:00070ea4       __NLG_Dispatch             00471ea4     LIBCMT:exsup.obj
 0001:00070eac       __NLG_Call                 00471eac f   LIBCMT:exsup.obj
 0001:00070eae       __NLG_Return2              00471eae     LIBCMT:exsup.obj
 0001:00070eaf       __lseeki64_nolock          00471eaf f   LIBCMT:lseeki64.obj
 0001:00070f32       __lseeki64                 00471f32 f   LIBCMT:lseeki64.obj
 0001:0007104b       __isatty                   0047204b f   LIBCMT:isatty.obj
 0001:000710a9       __wctomb_s_l               004720a9 f   LIBCMT:wctomb.obj
 0001:00071208       _wctomb_s                  00472208 f   LIBCMT:wctomb.obj
 0001:00071223       ___crtMessageBoxA          00472223 f   LIBCMT:crtmbox.obj
 0001:000713e0       __set_error_mode           004723e0 f   LIBCMT:errmode.obj
 0001:00071561       ___crtGetLocaleInfoW       00472561 f   LIBCMT:w_loc.obj
 0001:000716d9       ___crtGetLocaleInfoA       004726d9 f   LIBCMT:a_loc.obj
 0001:00071714       __putwch_nolock            00472714 f   LIBCMT:putwch.obj
 0001:000717d6       __mbtowc_l                 004727d6 f   LIBCMT:mbtowc.obj
 0001:000718e9       _mbtowc                    004728e9 f   LIBCMT:mbtowc.obj
 0001:00071900       __set_osfhnd               00472900 f   LIBCMT:osfinfo.obj
 0001:0007197d       __free_osfhnd              0047297d f   LIBCMT:osfinfo.obj
 0001:000719fe       __get_osfhandle            004729fe f   LIBCMT:osfinfo.obj
 0001:00071a6f       ___lock_fhandle            00472a6f f   LIBCMT:osfinfo.obj
 0001:00071b0f       __unlock_fhandle           00472b0f f   LIBCMT:osfinfo.obj
 0001:00071b31       __alloc_osfhnd             00472b31 f   LIBCMT:osfinfo.obj
 0001:00071d20       __get_sse2_info            00472d20 f   LIBCMT:cpu_disp.obj
 0001:00071d80       ___sse2_available_init     00472d80 f   LIBCMT:cpu_disp.obj
 0001:00071d90       _strrchr                   00472d90 f   LIBCMT:strrchr.obj
 0001:00071dbd       __atodbl_l                 00472dbd f   LIBCMT:atodbl.obj
 0001:00071e63       __atoflt_l                 00472e63 f   LIBCMT:atodbl.obj
 0001:00071f09       __fptostr                  00472f09 f   LIBCMT:_fptostr.obj
 0001:00071fc6       ___dtold                   00472fc6 f   LIBCMT:cfout.obj
 0001:00072081       __fltout2                  00473081 f   LIBCMT:cfout.obj
 0001:00072110       __aullshr                  00473110 f   LIBCMT:ullshr.obj
 0001:0007212f       __fptrap                   0047312f f   LIBCMT:crt0fp.obj
 0001:00072138       __controlfp_s              00473138 f   LIBCMT:contrlfp.obj
 0001:000728fb       __sopen_helper             004738fb f   LIBCMT:open.obj
 0001:000729c7       __sopen_s                  004739c7 f   LIBCMT:open.obj
 0001:000729e5       __mbsicmp_l                004739e5 f   LIBCMT:mbsicmp.obj
 0001:00072bff       __mbsicmp                  00473bff f   LIBCMT:mbsicmp.obj
 0001:00072c12       __mbsnbcmp_l               00473c12 f   LIBCMT:mbsnbcmp.obj
 0001:00072d7b       __mbsnbcmp                 00473d7b f   LIBCMT:mbsnbcmp.obj
 0001:00072d92       __validdrive               00473d92 f   LIBCMT:getcwd.obj
 0001:00072dc9       __getdcwd_nolock           00473dc9 f   LIBCMT:getcwd.obj
 0001:00072efe       __getcwd                   00473efe f   LIBCMT:getcwd.obj
 0001:00072f47       __mbsrchr_l                00473f47 f   LIBCMT:mbsrchr.obj
 0001:00073007       __mbsrchr                  00474007 f   LIBCMT:mbsrchr.obj
 0001:0007301a       __mbsnbcpy_s_l             0047401a f   LIBCMT:mbsnbcpy_s_l.obj
 0001:00073227       __iswctype_l               00474227 f   LIBCMT:iswctype.obj
 0001:000732a9       __strnicmp_l               004742a9 f   LIBCMT:strnicmp.obj
 0001:00073399       __strnicmp                 00474399 f   LIBCMT:strnicmp.obj
 0001:000733f5       __ld12tod                  004743f5 f   LIBCMT:intrncvt.obj
 0001:00073937       __ld12tof                  00474937 f   LIBCMT:intrncvt.obj
 0001:00073e79       ___mtold12                 00474e79 f   LIBCMT:mantold.obj
 0001:00074045       __strnicoll_l              00475045 f   LIBCMT:strnicol.obj
 0001:000741e7       ___crtsetenv               004751e7 f   LIBCMT:setenv.obj
 0001:00074b8d       __wsopen_helper            00475b8d f   LIBCMT:wopen.obj
 0001:00074c59       __wsopen_s                 00475c59 f   LIBCMT:wopen.obj
 0001:00074c77       __wcsicmp_l                00475c77 f   LIBCMT:wcsicmp.obj
 0001:00074d86       __wcsicmp                  00475d86 f   LIBCMT:wcsicmp.obj
 0001:00074e17       _wcsncmp                   00475e17 f   LIBCMT:wcsncmp.obj
 0001:00074e4c       ___initconout              00475e4c f   LIBCMT:initcon.obj
 0001:00074e6b       ___termcon                 00475e6b f   LIBCMT:initcon.obj
 0001:00074e98       _$I10_OUTPUT               00475e98 f   LIBCMT:x10fout.obj
 0001:0007588c       __control87                0047688c f i LIBCMT:ieee87.obj
 0001:00075b8f       __chsize_nolock            00476b8f f   LIBCMT:chsize.obj
 0001:00075d43       __setmode_nolock           00476d43 f   LIBCMT:setmode.obj
 0001:00075dff       __get_fmode                00476dff f   LIBCMT:setmode.obj
 0001:00075e40       ___ascii_strnicmp          00476e40 f   LIBCMT:_strnicm.obj
 0001:00075ea1       __mbschr_l                 00476ea1 f   LIBCMT:mbschr.obj
 0001:00075f5b       __mbschr                   00476f5b f   LIBCMT:mbschr.obj
 0001:00075f6e       __towlower_l               00476f6e f   LIBCMT:towlower.obj
 0001:0007601b       ___set_fpsr_sse2           0047701b f   LIBCMT:fpctrl.obj
 0001:0007608e       ___WSAFDIsSet@8            0047708e f   ws2_32:WS2_32.dll
 0001:00076094       _GetModuleBaseNameA@16     00477094 f   Psapi:PSAPI.DLL
 0001:0007609a       _EnumProcessModules@16     0047709a f   Psapi:PSAPI.DLL
 0001:000760a0       _RtlUnwind@16              004770a0 f   kernel32:KERNEL32.dll
 0001:000760a6       _getpid                    004770a6 f   LIBCMT:getpid.obj
 0001:000760a6       __getpid                   004770a6 f   LIBCMT:getpid.obj
 0002:00000000       __imp__TlsGetValue@4       00483000     kernel32:KERNEL32.dll
 0002:00000004       __imp__GetStringTypeW@16   00483004     kernel32:KERNEL32.dll
 0002:00000008       __imp__GetStringTypeA@20   00483008     kernel32:KERNEL32.dll
 0002:0000000c       __imp__CompareStringW@24   0048300c     kernel32:KERNEL32.dll
 0002:00000010       __imp__CompareStringA@24   00483010     kernel32:KERNEL32.dll
 0002:00000014       __imp__GetCPInfo@8         00483014     kernel32:KERNEL32.dll
 0002:00000018       __imp__LCMapStringW@24     00483018     kernel32:KERNEL32.dll
 0002:0000001c       __imp__LoadLibraryA@4      0048301c     kernel32:KERNEL32.dll
 0002:00000020       __imp__FreeLibrary@4       00483020     kernel32:KERNEL32.dll
 0002:00000024       __imp__GetProcAddress@8    00483024     kernel32:KERNEL32.dll
 0002:00000028       __imp__EnterCriticalSection@4 00483028     kernel32:KERNEL32.dll
 0002:0000002c       __imp__LeaveCriticalSection@4 0048302c     kernel32:KERNEL32.dll
 0002:00000030       __imp__CreateEventA@16     00483030     kernel32:KERNEL32.dll
 0002:00000034       __imp__CloseHandle@4       00483034     kernel32:KERNEL32.dll
 0002:00000038       __imp__SetEvent@4          00483038     kernel32:KERNEL32.dll
 0002:0000003c       __imp__WaitForSingleObject@8 0048303c     kernel32:KERNEL32.dll
 0002:00000040       __imp__DeleteCriticalSection@4 00483040     kernel32:KERNEL32.dll
 0002:00000044       __imp__InitializeCriticalSection@4 00483044     kernel32:KERNEL32.dll
 0002:00000048       __imp__GetLastError@0      00483048     kernel32:KERNEL32.dll
 0002:0000004c       __imp__LocalFree@4         0048304c     kernel32:KERNEL32.dll
 0002:00000050       __imp__LoadLibraryExA@12   00483050     kernel32:KERNEL32.dll
 0002:00000054       __imp__FormatMessageA@28   00483054     kernel32:KERNEL32.dll
 0002:00000058       __imp__TlsAlloc@0          00483058     kernel32:KERNEL32.dll
 0002:0000005c       __imp__GetCurrentThreadId@0 0048305c     kernel32:KERNEL32.dll
 0002:00000060       __imp__GetTickCount@0      00483060     kernel32:KERNEL32.dll
 0002:00000064       __imp__HeapFree@12         00483064     kernel32:KERNEL32.dll
 0002:00000068       __imp__GetProcessHeap@0    00483068     kernel32:KERNEL32.dll
 0002:0000006c       __imp__HeapAlloc@12        0048306c     kernel32:KERNEL32.dll
 0002:00000070       __imp__GetCurrentProcess@0 00483070     kernel32:KERNEL32.dll
 0002:00000074       __imp__TerminateProcess@8  00483074     kernel32:KERNEL32.dll
 0002:00000078       __imp__OpenProcess@12      00483078     kernel32:KERNEL32.dll
 0002:0000007c       __imp__GetModuleFileNameA@12 0048307c     kernel32:KERNEL32.dll
 0002:00000080       __imp__CreateProcessA@40   00483080     kernel32:KERNEL32.dll
 0002:00000084       __imp__SetConsoleMode@8    00483084     kernel32:KERNEL32.dll
 0002:00000088       __imp__GetConsoleMode@8    00483088     kernel32:KERNEL32.dll
 0002:0000008c       __imp__GetStdHandle@4      0048308c     kernel32:KERNEL32.dll
 0002:00000090       __imp__SetConsoleTitleA@4  00483090     kernel32:KERNEL32.dll
 0002:00000094       __imp__ExitProcess@4       00483094     kernel32:KERNEL32.dll
 0002:00000098       __imp__CreateMutexA@12     00483098     kernel32:KERNEL32.dll
 0002:0000009c       __imp__ReleaseMutex@4      0048309c     kernel32:KERNEL32.dll
 0002:000000a0       __imp__CreateFileW@28      004830a0     kernel32:KERNEL32.dll
 0002:000000a4       __imp__SetEnvironmentVariableA@8 004830a4     kernel32:KERNEL32.dll
 0002:000000a8       __imp__CreateFileA@28      004830a8     kernel32:KERNEL32.dll
 0002:000000ac       __imp__SetStdHandle@8      004830ac     kernel32:KERNEL32.dll
 0002:000000b0       __imp__WriteConsoleW@20    004830b0     kernel32:KERNEL32.dll
 0002:000000b4       __imp__TlsSetValue@8       004830b4     kernel32:KERNEL32.dll
 0002:000000b8       __imp__TlsFree@4           004830b8     kernel32:KERNEL32.dll
 0002:000000bc       __imp__SetLastError@4      004830bc     kernel32:KERNEL32.dll
 0002:000000c0       __imp__WriteFile@20        004830c0     kernel32:KERNEL32.dll
 0002:000000c4       __imp__GetConsoleCP@0      004830c4     kernel32:KERNEL32.dll
 0002:000000c8       __imp__FlushFileBuffers@4  004830c8     kernel32:KERNEL32.dll
 0002:000000cc       __imp__SetHandleCount@4    004830cc     kernel32:KERNEL32.dll
 0002:000000d0       __imp__Sleep@4             004830d0     kernel32:KERNEL32.dll
 0002:000000d4       __imp__SetEndOfFile@4      004830d4     kernel32:KERNEL32.dll
 0002:000000d8       __imp__GetConsoleOutputCP@0 004830d8     kernel32:KERNEL32.dll
 0002:000000dc       __imp__WriteConsoleA@20    004830dc     kernel32:KERNEL32.dll
 0002:000000e0       __imp__GetLocaleInfoW@16   004830e0     kernel32:KERNEL32.dll
 0002:000000e4       __imp__GetCurrentProcessId@0 004830e4     kernel32:KERNEL32.dll
 0002:000000e8       __imp__QueryPerformanceCounter@4 004830e8     kernel32:KERNEL32.dll
 0002:000000ec       __imp__GetEnvironmentStringsW@0 004830ec     kernel32:KERNEL32.dll
 0002:000000f0       __imp__FreeEnvironmentStringsW@4 004830f0     kernel32:KERNEL32.dll
 0002:000000f4       __imp__GetEnvironmentStrings@0 004830f4     kernel32:KERNEL32.dll
 0002:000000f8       __imp__FreeEnvironmentStringsA@4 004830f8     kernel32:KERNEL32.dll
 0002:000000fc       __imp__IsValidLocale@8     004830fc     kernel32:KERNEL32.dll
 0002:00000100       __imp__EnumSystemLocalesA@8 00483100     kernel32:KERNEL32.dll
 0002:00000104       __imp__GetUserDefaultLCID@0 00483104     kernel32:KERNEL32.dll
 0002:00000108       __imp__GetCurrentDirectoryA@8 00483108     kernel32:KERNEL32.dll
 0002:0000010c       __imp__GetFullPathNameA@16 0048310c     kernel32:KERNEL32.dll
 0002:00000110       __imp__IsValidCodePage@4   00483110     kernel32:KERNEL32.dll
 0002:00000114       __imp__GetOEMCP@0          00483114     kernel32:KERNEL32.dll
 0002:00000118       __imp__GetACP@0            00483118     kernel32:KERNEL32.dll
 0002:0000011c       __imp__SetFilePointer@16   0048311c     kernel32:KERNEL32.dll
 0002:00000120       __imp__LCMapStringA@24     00483120     kernel32:KERNEL32.dll
 0002:00000124       __imp__ReadFile@20         00483124     kernel32:KERNEL32.dll
 0002:00000128       __imp__VirtualAlloc@16     00483128     kernel32:KERNEL32.dll
 0002:0000012c       __imp__VirtualFree@12      0048312c     kernel32:KERNEL32.dll
 0002:00000130       __imp__HeapCreate@12       00483130     kernel32:KERNEL32.dll
 0002:00000134       __imp__HeapDestroy@4       00483134     kernel32:KERNEL32.dll
 0002:00000138       __imp__HeapSize@12         00483138     kernel32:KERNEL32.dll
 0002:0000013c       __imp__GetStartupInfoA@4   0048313c     kernel32:KERNEL32.dll
 0002:00000140       __imp__WideCharToMultiByte@32 00483140     kernel32:KERNEL32.dll
 0002:00000144       __imp__InterlockedIncrement@4 00483144     kernel32:KERNEL32.dll
 0002:00000148       __imp__InterlockedDecrement@4 00483148     kernel32:KERNEL32.dll
 0002:0000014c       __imp__InterlockedExchange@8 0048314c     kernel32:KERNEL32.dll
 0002:00000150       __imp__InterlockedCompareExchange@12 00483150     kernel32:KERNEL32.dll
 0002:00000154       __imp__MultiByteToWideChar@24 00483154     kernel32:KERNEL32.dll
 0002:00000158       __imp__GetLocaleInfoA@16   00483158     kernel32:KERNEL32.dll
 0002:0000015c       __imp__RaiseException@16   0048315c     kernel32:KERNEL32.dll
 0002:00000160       __imp__RtlUnwind@16        00483160     kernel32:KERNEL32.dll
 0002:00000164       __imp__UnhandledExceptionFilter@4 00483164     kernel32:KERNEL32.dll
 0002:00000168       __imp__SetUnhandledExceptionFilter@4 00483168     kernel32:KERNEL32.dll
 0002:0000016c       __imp__IsDebuggerPresent@0 0048316c     kernel32:KERNEL32.dll
 0002:00000170       __imp__ExitThread@4        00483170     kernel32:KERNEL32.dll
 0002:00000174       __imp__CreateThread@24     00483174     kernel32:KERNEL32.dll
 0002:00000178       __imp__MoveFileA@8         00483178     kernel32:KERNEL32.dll
 0002:0000017c       __imp__DeleteFileA@4       0048317c     kernel32:KERNEL32.dll
 0002:00000180       __imp__GetSystemTimeAsFileTime@4 00483180     kernel32:KERNEL32.dll
 0002:00000184       __imp__FindClose@4         00483184     kernel32:KERNEL32.dll
 0002:00000188       __imp__FileTimeToSystemTime@8 00483188     kernel32:KERNEL32.dll
 0002:0000018c       __imp__FileTimeToLocalFileTime@8 0048318c     kernel32:KERNEL32.dll
 0002:00000190       __imp__GetDriveTypeA@4     00483190     kernel32:KERNEL32.dll
 0002:00000194       __imp__FindFirstFileA@8    00483194     kernel32:KERNEL32.dll
 0002:00000198       __imp__CreateDirectoryA@8  00483198     kernel32:KERNEL32.dll
 0002:0000019c       __imp__GetFileAttributesA@4 0048319c     kernel32:KERNEL32.dll
 0002:000001a0       __imp__GetTimeZoneInformation@4 004831a0     kernel32:KERNEL32.dll
 0002:000001a4       __imp__GetTimeFormatA@24   004831a4     kernel32:KERNEL32.dll
 0002:000001a8       __imp__GetDateFormatA@24   004831a8     kernel32:KERNEL32.dll
 0002:000001ac       __imp__GetModuleHandleA@4  004831ac     kernel32:KERNEL32.dll
 0002:000001b0       __imp__HeapReAlloc@16      004831b0     kernel32:KERNEL32.dll
 0002:000001b4       __imp__GetCommandLineA@0   004831b4     kernel32:KERNEL32.dll
 0002:000001b8       __imp__GetVersionExA@4     004831b8     kernel32:KERNEL32.dll
 0002:000001bc       __imp__GetFileType@4       004831bc     kernel32:KERNEL32.dll
 0002:000001c0       \177KERNEL32_NULL_THUNK_DATA 004831c0     kernel32:KERNEL32.dll
 0002:000001c4       __imp__OCIStmtExecute      004831c4     oci:OCI.dll
 0002:000001c8       __imp__OCIStmtFetch2       004831c8     oci:OCI.dll
 0002:000001cc       __imp__OCIStmtPrepare      004831cc     oci:OCI.dll
 0002:000001d0       __imp__OCIBindByName       004831d0     oci:OCI.dll
 0002:000001d4       __imp__OCIBindByPos        004831d4     oci:OCI.dll
 0002:000001d8       __imp__OCIAttrGet          004831d8     oci:OCI.dll
 0002:000001dc       __imp__OCIParamGet         004831dc     oci:OCI.dll
 0002:000001e0       __imp__OCIDefineByPos      004831e0     oci:OCI.dll
 0002:000001e4       __imp__OCINumberToInt      004831e4     oci:OCI.dll
 0002:000001e8       __imp__OCINumberToReal     004831e8     oci:OCI.dll
 0002:000001ec       __imp__OCIEnvCreate        004831ec     oci:OCI.dll
 0002:000001f0       __imp__OCIHandleAlloc      004831f0     oci:OCI.dll
 0002:000001f4       __imp__OCILogon            004831f4     oci:OCI.dll
 0002:000001f8       __imp__OCIErrorGet         004831f8     oci:OCI.dll
 0002:000001fc       __imp__OCITerminate        004831fc     oci:OCI.dll
 0002:00000200       __imp__OCIHandleFree       00483200     oci:OCI.dll
 0002:00000204       __imp__OCILogoff           00483204     oci:OCI.dll
 0002:00000208       \177OCI_NULL_THUNK_DATA    00483208     oci:OCI.dll
 0002:0000020c       __imp__EnumProcessModules@16 0048320c     Psapi:PSAPI.DLL
 0002:00000210       __imp__GetModuleBaseNameA@16 00483210     Psapi:PSAPI.DLL
 0002:00000214       \177PSAPI_NULL_THUNK_DATA  00483214     Psapi:PSAPI.DLL
 0002:00000218       __imp__DispatchMessageA@4  00483218     user32:USER32.dll
 0002:0000021c       __imp__TranslateMessage@4  0048321c     user32:USER32.dll
 0002:00000220       __imp__GetMessageA@16      00483220     user32:USER32.dll
 0002:00000224       __imp__PostThreadMessageA@16 00483224     user32:USER32.dll
 0002:00000228       \177USER32_NULL_THUNK_DATA 00483228     user32:USER32.dll
 0002:0000022c       __imp__socket@12           0048322c     ws2_32:WS2_32.dll
 0002:00000230       __imp__getpeername@12      00483230     ws2_32:WS2_32.dll
 0002:00000234       __imp__recv@16             00483234     ws2_32:WS2_32.dll
 0002:00000238       __imp__send@16             00483238     ws2_32:WS2_32.dll
 0002:0000023c       __imp__setsockopt@20       0048323c     ws2_32:WS2_32.dll
 0002:00000240       __imp____WSAFDIsSet@8      00483240     ws2_32:WS2_32.dll
 0002:00000244       __imp__inet_ntoa@4         00483244     ws2_32:WS2_32.dll
 0002:00000248       __imp__closesocket@4       00483248     ws2_32:WS2_32.dll
 0002:0000024c       __imp__inet_addr@4         0048324c     ws2_32:WS2_32.dll
 0002:00000250       __imp__gethostbyname@4     00483250     ws2_32:WS2_32.dll
 0002:00000254       __imp__htonl@4             00483254     ws2_32:WS2_32.dll
 0002:00000258       __imp__connect@12          00483258     ws2_32:WS2_32.dll
 0002:0000025c       __imp__bind@12             0048325c     ws2_32:WS2_32.dll
 0002:00000260       __imp__select@20           00483260     ws2_32:WS2_32.dll
 0002:00000264       __imp__ntohs@4             00483264     ws2_32:WS2_32.dll
 0002:00000268       __imp__WSACleanup@0        00483268     ws2_32:WS2_32.dll
 0002:0000026c       __imp__WSAStartup@8        0048326c     ws2_32:WS2_32.dll
 0002:00000270       __imp__getsockname@12      00483270     ws2_32:WS2_32.dll
 0002:00000274       __imp__listen@8            00483274     ws2_32:WS2_32.dll
 0002:00000278       __imp__accept@12           00483278     ws2_32:WS2_32.dll
 0002:0000027c       __imp__htons@4             0048327c     ws2_32:WS2_32.dll
 0002:00000280       __imp__shutdown@8          00483280     ws2_32:WS2_32.dll
 0002:00000284       \177WS2_32_NULL_THUNK_DATA 00483284     ws2_32:WS2_32.dll
 0002:00000288       ___xc_a                    00483288     LIBCMT:crt0init.obj
 0002:00000310       ___xc_z                    00483310     LIBCMT:crt0init.obj
 0002:00000314       ___xi_a                    00483314     LIBCMT:crt0init.obj
 0002:00000334       ___xi_z                    00483334     LIBCMT:crt0init.obj
 0002:00000338       ___xp_a                    00483338     LIBCMT:crt0init.obj
 0002:00000344       ___xp_z                    00483344     LIBCMT:crt0init.obj
 0002:00000348       ___xt_a                    00483348     LIBCMT:crt0init.obj
 0002:0000034c       ___xt_z                    0048334c     LIBCMT:crt0init.obj
 0002:0000036c       ??_C@_0P@GHFPNOJB@bad?5allocation?$AA@ 0048336c     DllBase.obj
 0002:00000380       ??_7bad_alloc@std@@6B@     00483380     DllBase.obj
 0002:0000038c       ??_7Exception@cacti@@6B@   0048338c     DllBase.obj
 0002:00000398       ??_7SyscallException@cacti@@6B@ 00483398     DllBase.obj
 0002:000003a0       ??_C@_0CB@NEFAIPLO@w?3?2common?2cacti?2kernel?2Mutex?4cpp@ 004833a0     Mutex.obj
 0002:000003c4       ??_C@_03MCPBMLDJ@?5?3?5?$AA@ 004833c4     SysError.obj
 0002:000003c8       ??_C@_0M@OGMLGDBI@?$DMsyserr?3?$CFd?$DO?$AA@ 004833c8     SysError.obj
 0002:000003d4       ??_C@_0L@MNPEAJCA@netmsg?4dll?$AA@ 004833d4     SysError.obj
 0002:000003e4       ??_7Runable@cacti@@6B@     004833e4     Thread.obj
 0002:000003f0       ??_7Thread@cacti@@6B@      004833f0     Thread.obj
 0002:000003f8       ??_C@_04JIMNDDED@?$CF08X?$AA@ 004833f8     Thread.obj
 0002:00000400       ??_C@_0CC@MJIJKKPA@w?3?2common?2cacti?2kernel?2Thread?4cp@ 00483400     Thread.obj
 0002:00000428       ??_7sp_counted_base@detail@boost@@6B@ 00483428     ConfigureLoader.obj
 0002:0000043c       ??_7Formatter@cacti@@6B@   0048343c     ConfigureLoader.obj
 0002:00000448       ??_7?$sp_counted_impl_p@VConsoleHandler@cacti@@@detail@boost@@6B@ 00483448     ConfigureLoader.obj
 0002:0000045c       ??_7?$sp_counted_impl_p@VFileHandler@cacti@@@detail@boost@@6B@ 0048345c     ConfigureLoader.obj
 0002:00000470       ??_7?$sp_counted_impl_p@VStarFileHandler@cacti@@@detail@boost@@6B@ 00483470     ConfigureLoader.obj
 0002:00000484       ??_7?$sp_counted_impl_p@VSimpleFormatter@cacti@@@detail@boost@@6B@ 00483484     ConfigureLoader.obj
 0002:00000498       ??_7?$sp_counted_impl_p@VTTICFormatter@cacti@@@detail@boost@@6B@ 00483498     ConfigureLoader.obj
 0002:000004ac       ??_7?$sp_counted_impl_p@VStarFormatter@cacti@@@detail@boost@@6B@ 004834ac     ConfigureLoader.obj
 0002:000004c0       ??_7SimpleFormatter@cacti@@6B@ 004834c0     ConfigureLoader.obj
 0002:000004cc       ??_7logic_error@std@@6B@   004834cc     ConfigureLoader.obj
 0002:000004d8       ??_7runtime_error@std@@6B@ 004834d8     ConfigureLoader.obj
 0002:000004e4       ??_7length_error@std@@6B@  004834e4     ConfigureLoader.obj
 0002:000004f0       ??_7out_of_range@std@@6B@  004834f0     ConfigureLoader.obj
 0002:000004fc       ??_7failure@ios_base@std@@6B@ 004834fc     ConfigureLoader.obj
 0002:00000504       ??_C@_0BF@OOHOMBOF@ios_base?3?3eofbit?5set?$AA@ 00483504     ConfigureLoader.obj
 0002:0000051c       ??_C@_0BG@FMKFHCIL@ios_base?3?3failbit?5set?$AA@ 0048351c     ConfigureLoader.obj
 0002:00000534       ??_C@_0BF@PHHKMMFD@ios_base?3?3badbit?5set?$AA@ 00483534     ConfigureLoader.obj
 0002:0000054c       ??_C@_05JLFELJNP@FATAL?$AA@ 0048354c     ConfigureLoader.obj
 0002:00000554       ??_C@_05KBPPIFM@ALERT?$AA@ 00483554     ConfigureLoader.obj
 0002:0000055c       ??_C@_05MBDEGLCK@ERROR?$AA@ 0048355c     ConfigureLoader.obj
 0002:00000564       ??_C@_0BE@JONHPENG@map?1set?$DMT?$DO?5too?5long?$AA@ 00483564     ConfigureLoader.obj
 0002:00000578       ??_C@_0BM@PAPJHAGI@invalid?5map?1set?$DMT?$DO?5iterator?$AA@ 00483578     ConfigureLoader.obj
 0002:00000594       ??_C@_01LBDDMOBJ@?$FN?$AA@ 00483594     ConfigureLoader.obj
 0002:00000598       ??_C@_06JNBMNMH@logger?$AA@ 00483598     ConfigureLoader.obj
 0002:000005a0       ??_C@_02DKCKIIND@?$CFs?$AA@ 004835a0     ConsoleHandler.obj
 0002:000005a8       ??_7LogHandler@cacti@@6B@  004835a8     ConsoleHandler.obj
 0002:000005b4       ??_7ConsoleHandler@cacti@@6B@ 004835b4     ConsoleHandler.obj
 0002:000005bc       ??_C@_05LAPONLG@false?$AA@ 004835bc     ConsoleHandler.obj
 0002:000005c8       ??_7facet@locale@std@@6B@  004835c8     FileHandler.obj
 0002:000005d0       ??_7ios_base@std@@6B@      004835d0     FileHandler.obj
 0002:000005d8       ??_7?$basic_ostream@DU?$char_traits@D@std@@@std@@6B@ 004835d8     FileHandler.obj
 0002:000005e0       ??_7?$basic_ios@DU?$char_traits@D@std@@@std@@6B@ 004835e0     FileHandler.obj
 0002:000005e8       ??_7?$basic_streambuf@DU?$char_traits@D@std@@@std@@6B@ 004835e8     FileHandler.obj
 0002:00000624       ??_7?$basic_stringbuf@DU?$char_traits@D@std@@V?$allocator@D@2@@std@@6B@ 00483624     FileHandler.obj
 0002:00000660       ??_7?$basic_ostringstream@DU?$char_traits@D@std@@V?$allocator@D@2@@std@@6B@ 00483660     FileHandler.obj
 0002:00000668       ??_7?$basic_filebuf@DU?$char_traits@D@std@@@std@@6B@ 00483668     FileHandler.obj
 0002:000006a0       ??_C@_0BA@ELKIONDK@bad?5locale?5name?$AA@ 004836a0     FileHandler.obj
 0002:000006b4       ??_7?$ctype@D@std@@6B@     004836b4     FileHandler.obj
 0002:000006e0       ??_C@_01GFHCPBMG@C?$AA@    004836e0     FileHandler.obj
 0002:000006e4       ??_C@_01LFCBOECM@?4?$AA@   004836e4     FileHandler.obj
 0002:000006e8       ??_C@_08GOBPOGDO@?$CFY?9?$CFm?9?$CFd?$AA@ 004836e8     FileHandler.obj
 0002:000006f4       ??_C@_08EPJLHIJG@bad?5cast?$AA@ 004836f4     FileHandler.obj
 0002:00000704       ??_7?$num_put@DV?$ostreambuf_iterator@DU?$char_traits@D@std@@@std@@@std@@6B@ 00483704     FileHandler.obj
 0002:00000728       ??_C@_04LOAJBDKD@true?$AA@ 00483728     FileHandler.obj
 0002:00000734       ??_7?$codecvt@DDH@std@@6B@ 00483734     FileHandler.obj
 0002:00000758       ??_7?$numpunct@D@std@@6B@  00483758     FileHandler.obj
 0002:00000774       ??_7?$basic_ofstream@DU?$char_traits@D@std@@@std@@6B@ 00483774     FileHandler.obj
 0002:0000077c       ??_7FileHandler@cacti@@6B@ 0048377c     FileHandler.obj
 0002:00000788       ??_7StarFileHandler@cacti@@6B@ 00483788     FileHandler.obj
 0002:00000790       ??_8?$basic_ostream@DU?$char_traits@D@std@@@std@@7B@ 00483790     FileHandler.obj
 0002:00000798       ??_C@_01KGKMHCOC@e?$AA@    00483798     FileHandler.obj
 0002:0000079c       ??_C@_01DDCIFGEA@E?$AA@    0048379c     FileHandler.obj
 0002:000007a0       ??_8?$basic_ofstream@DU?$char_traits@D@std@@@std@@7B@ 004837a0     FileHandler.obj
 0002:000007a8       ??_8?$basic_ostringstream@DU?$char_traits@D@std@@V?$allocator@D@2@@std@@7B@ 004837a8     FileHandler.obj
 0002:000007b0       ??_C@_02EAOCLKAK@ld?$AA@   004837b0     FileHandler.obj
 0002:000007b4       ??_C@_02BDDLJJBK@lu?$AA@   004837b4     FileHandler.obj
 0002:000007b8       ??_C@_02HIKPPMOK@Ld?$AA@   004837b8     FileHandler.obj
 0002:000007bc       ??_C@_02CLHGNPPK@Lu?$AA@   004837bc     FileHandler.obj
 0002:000007c0       __real@38aa95a5b7f87a0f    004837c0     FileHandler.obj
 0002:000007c8       __real@4202a05f20000000    004837c8     FileHandler.obj
 0002:000007d0       __real@4733426172c74d82    004837d0     FileHandler.obj
 0002:000007d8       ??_C@_02BBAHNLBA@?$CFp?$AA@ 004837d8     FileHandler.obj
 0002:000007db       ??_C@_00CNPNBAHC@?$AA@     004837db     FileHandler.obj
 0002:000007dc       ??_C@_0CC@HOHCLCGF@?5?$DMStarFileHandler?$DO?5new?5roll?5file@ 004837dc     FileHandler.obj
 0002:00000800       ??_C@_04NNKNHMAL@_bak?$AA@ 00483800     FileHandler.obj
 0002:00000808       ??_C@_0BO@LMAOOCMH@?5?$DMStarFileHandler?$DO?5file?5roll?$CB?$AA@ 00483808     FileHandler.obj
 0002:00000828       ??_C@_0P@NKKDMBOO@?$CFm?$CFd?5?$CFH?3?$CFM?3?$CFS?5?$AA@ 00483828     FileHandler.obj
 0002:00000838       ??_C@_05NOAMLIBA@?$FL?$CFX?$FN?5?$AA@ 00483838     Formatter.obj
 0002:00000840       ??_C@_06EDEFPJLA@?$CFs?$CF3d?5?$AA@ 00483840     Formatter.obj
 0002:00000848       ??_C@_0M@NGJNOEJI@?$CFs?$CF3d?5?$FL?$CFX?$FN?5?$AA@ 00483848     Formatter.obj
 0002:00000858       ??_7TTICFormatter@cacti@@6B@ 00483858     Formatter.obj
 0002:00000864       ??_C@_05FKHKFDID@index?$AA@ 00483864     Formatter.obj
 0002:0000086c       ??_C@_01CLKCMJKC@?5?$AA@   0048386c     Formatter.obj
 0002:00000870       ??_C@_02GFKOMOKH@?5?$CI?$AA@ 00483870     Formatter.obj
 0002:00000874       ??_C@_01PKGAHCOL@?$CJ?$AA@ 00483874     Formatter.obj
 0002:00000878       ??_C@_02PEDIMADA@?5?$HL?$AA@ 00483878     Formatter.obj
 0002:0000087c       ??_C@_01CELHOKLL@?$HN?$AA@ 0048387c     Formatter.obj
 0002:00000880       ??_C@_02GBLMOEJC@?5?$FL?$AA@ 00483880     Formatter.obj
 0002:00000884       ??_C@_02ELAABJPC@?5?$DM?$AA@ 00483884     Formatter.obj
 0002:00000888       ??_C@_01PPODPGHN@?$DO?$AA@ 00483888     Formatter.obj
 0002:0000088c       ??_C@_01JLIPDDHJ@?3?$AA@   0048388c     Formatter.obj
 0002:00000894       ??_7StarFormatter@cacti@@6B@ 00483894     Formatter.obj
 0002:000008a4       ??_7LazyLog@cacti@@6B@     004838a4     LazyLog.obj
 0002:000008a8       ??_C@_05CIMNLLAJ@?4?1log?$AA@ 004838a8     LazyLog.obj
 0002:000008b0       ??_C@_03OFAPEBGM@?$CFs?6?$AA@ 004838b0     LazyLog.obj
 0002:000008b4       ??_C@_04FPOLKAEB@?4log?$AA@ 004838b4     LazyLog.obj
 0002:000008bc       ??_C@_06GLOIENHC@?4?1log?1?$AA@ 004838bc     LazyLog.obj
 0002:000008c8       ??_7invalid_argument@std@@6B@ 004838c8     Logger.obj
 0002:000008d0       ??_C@_0BB@MOGOBHAF@list?$DMT?$DO?5too?5long?$AA@ 004838d0     Logger.obj
 0002:000008e8       ??_7Logger@cacti@@6B@      004838e8     Logger.obj
 0002:00000900       ??_C@_0CH@HCFPPBMN@cannot?5set?5level?5NOTSET?5on?5Root?5@ 00483900     Logger.obj
 0002:00000928       ??_C@_0N@JLHLPOCD@NULL?5handler?$AA@ 00483928     Logger.obj
 0002:00000938       ??_C@_05LEKBFEKL@WARN?5?$AA@ 00483938     LogLevel.obj
 0002:00000940       ??_C@_05NBJEAKGO@INFO?5?$AA@ 00483940     LogLevel.obj
 0002:00000948       ??_C@_05KOLFGEDA@DEBUG?$AA@ 00483948     LogLevel.obj
 0002:00000950       ??_C@_06DEAEIICA@NOTSET?$AA@ 00483950     LogLevel.obj
 0002:0000095c       ??_7?$sp_counted_impl_p@VLogger@cacti@@@detail@boost@@6B@ 0048395c     LogManager.obj
 0002:00000970       ??_7LogManager@cacti@@6B@  00483970     LogManager.obj
 0002:00000980       ??_C@_03FKNCMABI@?$CFlu?$AA@ 00483980     LogRecord.obj
 0002:00000984       ??_C@_0BD@OLBABOEK@vector?$DMT?$DO?5too?5long?$AA@ 00483984     Stream.obj
 0002:0000099c       ??_7TLV@cacti@@6B@         0048399c     TLV.obj
 0002:000009a4       ??_7?$sp_counted_impl_p@VUserTransferMessage@cacti@@@detail@boost@@6B@ 004839a4     TransferMessage.obj
 0002:000009b8       ??_7?$sp_counted_impl_p@VTLV@cacti@@@detail@boost@@6B@ 004839b8     TransferMessage.obj
 0002:000009cc       ??_7?$sp_counted_impl_p@VKVNode@cacti@@@detail@boost@@6B@ 004839cc     TransferMessage.obj
 0002:000009dc       ??_C@_0N@KLMGHOGD@?$FL?$CF04d?$FN?5HOOK?6?$AA@ 004839dc     MessageDispatcher.obj
 0002:000009ec       ??_C@_0CD@NMEPKBPI@?$FL?$CF04d?$FN?5Allocate?5port?5queue?5faile@ 004839ec     MessageDispatcher.obj
 0002:00000a10       ??_C@_0P@HKMLFEAL@?$FL?$CF04d?$FN?5UNHOOK?6?$AA@ 00483a10     MessageDispatcher.obj
 0002:00000a24       ??_7?$sp_counted_impl_p@VNetworkPackage@cacti@@@detail@boost@@6B@ 00483a24     MessageDispatcher.obj
 0002:00000a38       ??_7ConfigureDispatcher@cacti@@6B@ 00483a38     MessageDispatcher.obj
 0002:00000a48       ??_C@_08LIONCKMN@?$CFd?4?$CFd?4?$CFx?$AA@ 00483a48     MessageDispatcher.obj
 0002:00000a54       ??_C@_01EOFPKCAF@?$EA?$AA@ 00483a54     MessageDispatcher.obj
 0002:00000a58       ??_C@_01DNKMNLPK@?$HM?$AA@ 00483a58     MessageDispatcher.obj
 0002:00000a5c       ??_C@_01KMDKNFGN@?1?$AA@   00483a5c     MessageDispatcher.obj
 0002:00000a60       ??_C@_0BF@DMGGCOHK@CfgServer?5ID?5?5?5?3?5?$CFd?6?$AA@ 00483a60     MessageDispatcher.obj
 0002:00000a78       ??_C@_0BF@EABOGGGF@Service?5port?5?5?5?3?5?$CFd?6?$AA@ 00483a78     MessageDispatcher.obj
 0002:00000a90       ??_C@_0BF@OPFGCCCJ@Backup?5address?5?3?5?$CFs?6?$AA@ 00483a90     MessageDispatcher.obj
 0002:00000aa8       ??_C@_0BF@OICNOBHG@Primary?5address?3?5?$CFs?6?$AA@ 00483aa8     MessageDispatcher.obj
 0002:00000ac0       ??_C@_0BF@FLNLPFPP@Application?5ID?5?3?5?$CFd?6?$AA@ 00483ac0     MessageDispatcher.obj
 0002:00000ad8       ??_C@_0BF@LMFHADP@Service?5name?5?5?5?3?5?$CFs?6?$AA@ 00483ad8     MessageDispatcher.obj
 0002:00000af0       ??_C@_07LMLHFMEG@Service?$AA@ 00483af0     MessageDispatcher.obj
 0002:00000af8       ??_C@_09HKFEKOF@cfgServer?$AA@ 00483af8     MessageDispatcher.obj
 0002:00000b04       ??_C@_0CH@EOLPMOPM@Configure?5error?0?5service?5portid?5@ 00483b04     MessageDispatcher.obj
 0002:00000b2c       ??_C@_0CH@LPKPAPFE@Configure?5error?0?5application?5ID?5@ 00483b2c     MessageDispatcher.obj
 0002:00000b54       ??_C@_0CD@JMINMDKF@?$FL?$CF04d?$FN?5GET?5?$CI?$CFs?0?5?$CFs?0?5?$CFX?$CJ?5from?5?$CI?$CFs@ 00483b54     MessageDispatcher.obj
 0002:00000b78       ??_C@_0CJ@BMLCOGI@?$FL?$CF04d?$FN?5post?5by?5active?5connection@ 00483b78     MessageDispatcher.obj
 0002:00000ba4       ??_C@_0CC@JEMGDFHG@?$FL?$CF04d?$FN?5post?5by?5active?5connection@ 00483ba4     MessageDispatcher.obj
 0002:00000bc8       ??_C@_0EB@OPNEMJKG@?$FL?$CF04d?$FN?5post?5by?5passive?5connectio@ 00483bc8     MessageDispatcher.obj
 0002:00000c0c       ??_C@_0CD@GLHJKPCI@?$FL?$CF04d?$FN?5post?5by?5passive?5connectio@ 00483c0c     MessageDispatcher.obj
 0002:00000c30       ??_C@_0BP@MNAOFCFM@?$FL?$CF04d?$FN?5peer?$CI?$CFd?4?$CFd?$CJ?5not?5active?6?$AA@ 00483c30     MessageDispatcher.obj
 0002:00000c50       ??_C@_0CB@GLEPPOIL@?$FL?$CF04d?$FN?5POST?$CI?$CFs?0?5?$CFs?0?5?$CFX?$CJ?5to?5?$CI?$CFs?$CJ?6@ 00483c50     MessageDispatcher.obj
 0002:00000c74       ??_C@_0BK@IINDHAFN@broadcast?5to?5?$CI?$CFd?$CJ?5failed?6?$AA@ 00483c74     MessageDispatcher.obj
 0002:00000c90       ??_C@_04EINJHBMM@?6?$CFs?6?$AA@ 00483c90     MessageDispatcher.obj
 0002:00000c98       ??_C@_0O@KKNEMMFO@cfgServer?$DN?$CFd?6?$AA@ 00483c98     MessageDispatcher.obj
 0002:00000ca8       ??_C@_0BL@FDJCKODM@?$FLservice?$FN?6url?$DN?$CFs?1?$CFd?$EA?$CFs?3?$CFd?6?$AA@ 00483ca8     MessageDispatcher.obj
 0002:00000cc4       ??_C@_0BO@HBCJOKBN@?$FLservice?$FN?6url?$DN?$CFs?1?$CFd?$EA?$CFs?$HM?$CFs?3?$CFd?6?$AA@ 00483cc4     MessageDispatcher.obj
 0002:00000ce4       ??_C@_0BJ@BPHGKGDC@Open?5?$CFs?5to?5write?5failed?6?$AA@ 00483ce4     MessageDispatcher.obj
 0002:00000d00       ??_C@_0M@OEDEIHAN@?4?1mtlr?4conf?$AA@ 00483d00     MessageDispatcher.obj
 0002:00000d0c       ??_C@_02BKFDOEMK@wt?$AA@   00483d0c     MessageDispatcher.obj
 0002:00000d10       ??_C@_0BL@IBJBJKGG@WhoAmI?5response?5FAILED?0?$CFd?6?$AA@ 00483d10     MessageDispatcher.obj
 0002:00000d2c       ??_C@_0P@BFOIJMND@Asking?5WhoAmI?6?$AA@ 00483d2c     MessageDispatcher.obj
 0002:00000d3c       ??_C@_0BE@PMKECBIP@Send?5WhoAmI?5FAILED?6?$AA@ 00483d3c     MessageDispatcher.obj
 0002:00000d50       ??_C@_0CH@GCLMJAKJ@Can?8t?5connect?5to?5configure?5serve@ 00483d50     MessageDispatcher.obj
 0002:00000d78       ??_C@_0O@JPCFEMEM@socket?4client?$AA@ 00483d78     MessageDispatcher.obj
 0002:00000d88       ??_C@_0P@OJFCKCAA@?$FL?$CF04d?$FN?5INITED?6?$AA@ 00483d88     MessageDispatcher.obj
 0002:00000d98       ??_C@_0DG@KHINLJFJ@send?5_EvtModuleActive?5to?5?$CI?$CFd?$CJ?5wh@ 00483d98     MessageDispatcher.obj
 0002:00000dd0       ??_C@_0DN@FPDNAIPG@send?5_EvtModuleActive?5to?5?$CI?$CFd?$CJ?5fa@ 00483dd0     MessageDispatcher.obj
 0002:00000e10       ??_C@_0BD@HPGNGLBE@?$FL?$CFd?0?5?$CF04d?$FN?5active?6?$AA@ 00483e10     MessageDispatcher.obj
 0002:00000e24       ??_C@_0BH@NBFHPIFM@Connected?5to?5peer?$CI?$CFd?$CJ?6?$AA@ 00483e24     MessageDispatcher.obj
 0002:00000e3c       ??_C@_0BG@NKEKDCIB@need?5active?5list?$CI?$CFs?$CJ?6?$AA@ 00483e3c     MessageDispatcher.obj
 0002:00000e54       ??_C@_0BI@KIHMBENP@need?5deactive?5list?$CI?$CFs?$CJ?6?$AA@ 00483e54     MessageDispatcher.obj
 0002:00000e6c       ??_C@_0BP@FPAMEGIG@?$CFd?5passive?5connid?$CI?$CFd?$CJ?5updated?6?$AA@ 00483e6c     MessageDispatcher.obj
 0002:00000e8c       ??_C@_0DG@GEENFIMB@MTL?5without?5application?5timestam@ 00483e8c     MessageDispatcher.obj
 0002:00000ec4       ??_C@_0BB@GMCGDHNA@?$FL?$CFd?0?5?$CF04d?$FN?5?$DP?$CFd?$DP?6?$AA@ 00483ec4     MessageDispatcher.obj
 0002:00000ed8       ??_C@_0CE@CAAIMLEE@?$FL?$CFd?0?5?$CF04d?$FN?5duplicated?5active?5eve@ 00483ed8     MessageDispatcher.obj
 0002:00000efc       ??_C@_0BF@MGEEIBOH@?$FL?$CFd?0?5?$CF04d?$FN?5reactive?6?$AA@ 00483efc     MessageDispatcher.obj
 0002:00000f14       ??_C@_0CF@MBHEDCHI@?$FL?$CFd?0?5?$CF04d?$FN?5anonymous?5service?5act@ 00483f14     MessageDispatcher.obj
 0002:00000f3c       ??_C@_0CA@PHBDBEGM@MTL?5with?5application?5timestamp?6?$AA@ 00483f3c     MessageDispatcher.obj
 0002:00000f5c       ??_C@_0CC@OJGBLHLB@?$CFd?5tell?5me?5it?8s?5active?0connid?$DN?$CFd@ 00483f5c     MessageDispatcher.obj
 0002:00000f80       ??_C@_0CG@BHNFJHLH@?$FL?$CF04d?$FN?5broadcast?5active?5to?5all?5p@ 00483f80     MessageDispatcher.obj
 0002:00000fa8       ??_C@_0CN@CLJGODNH@?$FL?$CF04d?$FN?5notify?5missed?5service?$CI?$CFd?0@ 00483fa8     MessageDispatcher.obj
 0002:00000fd8       ??_C@_08GFBCCACN@17?358?324?$AA@ 00483fd8     MessageDispatcher.obj
 0002:00000fe4       ??_C@_0P@HKMMDJOP@?$CF4d?9?$CF02d?9?$CF02d?5?$AA@ 00483fe4     MessageDispatcher.obj
 0002:00000ff4       ??_C@_03MKABNOCG@Dec?$AA@  00483ff4     MessageDispatcher.obj
 0002:00000ff8       ??_C@_03JPJOFNIA@Nov?$AA@  00483ff8     MessageDispatcher.obj
 0002:00000ffc       ??_C@_03BMAOKBAD@Oct?$AA@  00483ffc     MessageDispatcher.obj
 0002:00001000       ??_C@_03GGCAPAJC@Sep?$AA@  00484000     MessageDispatcher.obj
 0002:00001004       ??_C@_03IFJFEIGA@Aug?$AA@  00484004     MessageDispatcher.obj
 0002:00001008       ??_C@_03LBGABGKK@Jul?$AA@  00484008     MessageDispatcher.obj
 0002:0000100c       ??_C@_03IDFGHECI@Jun?$AA@  0048400c     MessageDispatcher.obj
 0002:00001010       ??_C@_03CNMDKL@May?$AA@    00484010     MessageDispatcher.obj
 0002:00001014       ??_C@_03LEOLGMJP@Apr?$AA@  00484014     MessageDispatcher.obj
 0002:00001018       ??_C@_03ODNJBKGA@Mar?$AA@  00484018     MessageDispatcher.obj
 0002:0000101c       ??_C@_03HJBDCHOM@Feb?$AA@  0048401c     MessageDispatcher.obj
 0002:00001020       ??_C@_03JIHJHPIE@Jan?$AA@  00484020     MessageDispatcher.obj
 0002:00001024       ??_C@_0M@HHEPGAPD@May?5?59?52016?$AA@ 00484024     MessageDispatcher.obj
 0002:00001030       ??_C@_08JIAEEDMM@?$CFs?5?$CFd?5?$CFd?$AA@ 00484030     MessageDispatcher.obj
 0002:0000103c       ??_C@_0CH@MEBCJBAF@ver?3mtl?5?5?5?5?5?5?5?5V2?41?420080421?41?5?5@ 0048403c     MessageDispatcher.obj
 0002:00001064       ??_C@_0O@NAGHJHMP@socket?4server?$AA@ 00484064     MessageDispatcher.obj
 0002:00001074       ??_C@_0P@GGHAPACC@mtl?4dispatcher?$AA@ 00484074     MessageDispatcher.obj
 0002:00001088       ??_7MessageDispatcher@cacti@@6B@ 00484088     MessageDispatcher.obj
 0002:00001094       ??_C@_07HMNAANNE@?$CFs?0?5?$CFs?6?$AA@ 00484094     MessageDispatcher.obj
 0002:0000109c       ??_C@_0BE@CAENEANA@Initialized?5OK?0?5?$FO_?$FO?$AA@ 0048409c     MessageDispatcher.obj
 0002:000010b0       ??_C@_0BD@NCNEAPAC@Everything?5ready?$CB?6?$AA@ 004840b0     MessageDispatcher.obj
 0002:000010c4       ??_C@_0BK@FNBNNLKE@Start?5the?5listener?5failed?$AA@ 004840c4     MessageDispatcher.obj
 0002:000010e0       ??_C@_0BM@GICPOGAA@Connecting?5to?5all?5peers?4?4?4?6?$AA@ 004840e0     MessageDispatcher.obj
 0002:000010fc       ??_C@_0BO@EOJPEKHO@Starting?5service?5listener?4?4?4?6?$AA@ 004840fc     MessageDispatcher.obj
 0002:0000111c       ??_C@_0BD@FKNMJCFJ@Timer?5start?5failed?$AA@ 0048411c     MessageDispatcher.obj
 0002:00001130       ??_C@_0BO@EILPDEAO@Running?5the?5message?5timer?4?4?4?6?$AA@ 00484130     MessageDispatcher.obj
 0002:00001150       ??_C@_07GIDHPNDG@Passed?6?$AA@ 00484150     MessageDispatcher.obj
 0002:00001158       ??_C@_0BK@KLDFJPCA@Verify?5the?5configures?4?4?4?6?$AA@ 00484158     MessageDispatcher.obj
 0002:00001174       ??_C@_0DL@KPNICCBP@Try?5to?5load?5configure?5from?5previ@ 00484174     MessageDispatcher.obj
 0002:000011b0       ??_C@_0BI@PHKDKBNL@Loading?5configures?4?4?4?4?6?$AA@ 004841b0     MessageDispatcher.obj
 0002:000011c8       ??_C@_0BC@CMICBAG@No?5URL?5configured?$AA@ 004841c8     MessageDispatcher.obj
 0002:000011dc       ??_C@_03BBJMCFKE@URL?$AA@  004841dc     MessageDispatcher.obj
 0002:000011e0       ??_C@_07EFMBDOBA@service?$AA@ 004841e0     MessageDispatcher.obj
 0002:000011e8       ??_C@_04OONEELOO@ping?$AA@ 004841e8     MessageDispatcher.obj
 0002:000011f0       ??_C@_0BE@EGPJJBHD@Socket?5stack?5failed?$AA@ 004841f0     MessageDispatcher.obj
 0002:00001204       ??_C@_0BE@KIBEBPCE@Initialize?5from?5?$CFs?6?$AA@ 00484204     MessageDispatcher.obj
 0002:00001218       ??_C@_0BE@LAFEGKFA@Message?5Dispatcher?6?$AA@ 00484218     MessageDispatcher.obj
 0002:0000122c       ??_C@_0O@GGGKELHJ@?4?1version?4txt?$AA@ 0048422c     MessageDispatcher.obj
 0002:0000123c       ??_C@_02CPIDLAI@at?$AA@    0048423c     MessageDispatcher.obj
 0002:00001240       ??_C@_0P@LEJPCJPI@peer?$CI?$CFd?$CJ?5dead?6?$AA@ 00484240     MessageDispatcher.obj
 0002:00001250       ??_C@_0CD@MJBHBFDP@peer?$CI?$CFd?$CJ?5active?5connection?5close@ 00484250     MessageDispatcher.obj
 0002:00001274       ??_C@_0CM@CKHKIOGP@peer?$CI?$CFd?$CJ?5passive?5connection?$CI?$CFd?$CJ?5@ 00484274     MessageDispatcher.obj
 0002:000012a0       ??_C@_0BD@CGKBELOF@?$CI?$CFd?$CJclient?5closed?6?$AA@ 004842a0     MessageDispatcher.obj
 0002:000012b4       ??_C@_0BG@EHIMBLKA@Got?5a?5ping?5from?5?$CI?$CFd?$CJ?6?$AA@ 004842b4     MessageDispatcher.obj
 0002:000012cc       ??_C@_0CI@JBCBBMBG@?$FL?$CF04d?$FN?5POST?$CI?$CFs?0?5?$CFs?0?5?$CFX?$CJ?5to?5self?5@ 004842cc     MessageDispatcher.obj
 0002:000012f4       ??_C@_0BH@EOHEEJOO@?$FL0000?$FN?5System?5message?6?$AA@ 004842f4     MessageDispatcher.obj
 0002:0000130c       ??_C@_0CL@CKGEGMIL@?$FL?$CF04d?$FN?5RECV?$CI?$CFs?0?5?$CFs?0?5?$CFX?$CJ?5from?5?$CI?$CFs@ 0048430c     MessageDispatcher.obj
 0002:00001338       ??_C@_0DE@LENJEAAH@?$FL?$CF04d?$FN?5POST?$CI?$CFs?0?5?$CFs?0?5?$CFX?$CJ?5from?5sel@ 00484338     MessageDispatcher.obj
 0002:0000136c       ??_C@_04DIFLAKIP@tail?$AA@ 0048436c     MessageDispatcher.obj
 0002:00001374       ??_C@_04NEODDMOL@head?$AA@ 00484374     MessageDispatcher.obj
 0002:00001380       ??_7TimerTask@cacti@@6B@   00484380     MessageTimer.obj
 0002:00001390       ??_7MessageTimerTask@cacti@@6B@ 00484390     MessageTimer.obj
 0002:0000139c       ??_C@_0BJ@DCDGIBBE@?$FLPM?$FN?5connect?5to?5?$CI?$CFs?3?$CFd?$CJ?6?$AA@ 0048439c     PeersManager.obj
 0002:000013b8       ??_C@_0BG@CIKFHIAN@?6?7?5boot?5timestamp?3?$CFs?6?$AA@ 004843b8     PeersManager.obj
 0002:000013d0       ??_C@_0BA@FAJKHJAH@?$CFY?$CFm?$CFd?5?$CFH?3?$CFM?3?$CFS?$AA@ 004843d0     PeersManager.obj
 0002:000013e0       ??_C@_03JDANDILB@?$CFd?5?$AA@ 004843e0     PeersManager.obj
 0002:000013e4       ??_C@_07EMGCJOIB@?7?5svrs?$DN?$AA@ 004843e4     PeersManager.obj
 0002:000013ec       ??_C@_0N@JOBCJNIK@?7?5pasv?$DN?$CF08X?6?$AA@ 004843ec     PeersManager.obj
 0002:000013fc       ??_C@_0BB@IJDCGIDB@?7?5addr?$DN?$CFs?$HM?$CFs?3?$CFd?6?$AA@ 004843fc     PeersManager.obj
 0002:00001410       ??_C@_0L@BEKODFEF@?$FL?$CFd?0?5?$CFs?$FN?5?6?$AA@ 00484410     PeersManager.obj
 0002:0000141c       ??_C@_05EMBOFKPA@?6?$CFs?3?6?$AA@ 0048441c     PeersManager.obj
 0002:00001424       ??_C@_0O@PIBHBOKD@?$CFm?$CFd?5?$CFH?3?$CFM?3?$CFS?$AA@ 00484424     PeersManager.obj
 0002:00001434       ??_C@_0CI@OIPGLPKJ@?$FLPM?$FN?5invalid?5configure?5item?$CI?$CFs?$CJ?0@ 00484434     PeersManager.obj
 0002:0000145c       ??_C@_0CH@ICFODDGM@?$FLPM?$FN?5invalid?5configure?5item?$CI?$CFs?$CJ?0@ 0048445c     PeersManager.obj
 0002:00001484       ??_C@_0CK@PNFOCJAL@?$FLPM?$FN?5invalid?5configure?5item?$CI?$CFs?$CJ?0@ 00484484     PeersManager.obj
 0002:000014b0       ??_C@_0EI@JDFMGPAE@?$FLPM?$FN?5add?5peers?$CI?$CFs?0?$CFd?$CJ?0?5primary?5a@ 004844b0     PeersManager.obj
 0002:000014f8       ??_C@_05ELFCDKJK@peers?$AA@ 004844f8     PeersManager.obj
 0002:00001500       ??_C@_06HJDBNEMB@peer?$CFd?$AA@ 00484500     PeersManager.obj
 0002:00001508       ??_C@_0BA@GBNBBMBN@?4?1log?1peers?4map?$AA@ 00484508     PeersManager.obj
 0002:00001518       ??_C@_0M@GFMEADKF@mtl?4connmap?$AA@ 00484518     PeersManager.obj
 0002:00001524       ??_C@_09IIIKBJGD@mtl?4peers?$AA@ 00484524     PeersManager.obj
 0002:00001530       ??_C@_06PCGEICBJ@_?$CFs_?$CFd?$AA@ 00484530     PeersManager.obj
 0002:00001538       ??_C@_0M@DDIHNDPG@_anonymous_?$AA@ 00484538     PeersManager.obj
 0002:00001548       ??_7?$sp_counted_impl_p@V?$BoundedQueue@V?$shared_ptr@VNetworkPackage@cacti@@@boost@@@cacti@@@detail@boost@@6B@ 00484548     ServiceManager.obj
 0002:0000155c       ??_7?$ClassFunctionThread@VServiceSkeleton@cacti@@@?A0x9eab1761@@6B@ 0048455c     ServiceSkeleton.obj
 0002:00001564       ??_C@_02DPKJAMEF@?$CFd?$AA@ 00484564     ServiceSkeleton.obj
